(dp1
S'output'
p2
S"<type 'exceptions.TypeError'> 'str' object is not callable"
p3
sS'layer'
p4
S'/home/gaurav/classwork/WEB_PROGRAMMING/web2py/applications/OnlineExamination/controllers/default.py'
p5
sS'code'
p6
S'# -*- coding: utf-8 -*-\n# this file is released under public domain and you can use without limitations\n\n#########################################################################\n## This is a samples controller\n## - index is the default action of any application\n## - user is required for authentication and authorization\n## - download is for downloading files uploaded in the db (does streaming)\n## - call exposes all registered services (none by default)\n#########################################################################\n\n\ndef index():\n    """\n    example action using the internationalization operator T and flash\n    rendered by views/default/index.html or views/generic.html\n\n    if you need a simple wiki simple replace the two lines below with:\n    return auth.wiki()\n    """\n    response.flash = T("Online Examination")\n    if(auth.user):\n\t db(auth.user.email==db.student.email).update(coun=1)\n    return dict(message=T(\'Hello World\'))\n\n@auth.requires_login()\n@auth.requires_membership(\'IIIT_FACULTY_DEPARTMENT\')\ndef teacher_index():\n     return locals()\n\n\n@auth.requires_login()\ndef student_index():\n     return locals()\n\n@auth.requires_login()\ndef performance():\n     redirect(URL(\'show_paper\'))\n\ndef user():\n    """\n    exposes:\n    http://..../[app]/default/user/login\n    http://..../[app]/default/user/logout\n    http://..../[app]/default/user/register\n    http://..../[app]/default/user/profile\n    http://..../[app]/default/user/retrieve_password\n    http://..../[app]/default/user/change_password\n    use @auth.requires_login()\n        @auth.requires_membership(\'group name\')\n        @auth.requires_permission(\'read\',\'table name\',record_id)\n\n    to decorate functions that need access control\n    """\n    return dict(form=auth())\n\n\ndef download():\n    """\n    allows downloading of uploaded files\n    http://..../[app]/default/download/[filename]\n    """\n    return response.download(request, db)\n\n\ndef call():\n    """\n    exposes services. for example:\n    http://..../[app]/default/call/jsonrpc\n    decorate with @services.jsonrpc the functions to expose\n    supports xml, json, xmlrpc, jsonrpc, amfrpc, rss, csv\n    """\n    return service()\n\n\n@auth.requires_signature()\ndef data():\n    """\n    http://..../[app]/default/data/tables\n    http://..../[app]/default/data/create/[table]\n    http://..../[app]/default/data/read/[table]/[id]\n    http://..../[app]/default/data/update/[table]/[id]\n    http://..../[app]/default/data/delete/[table]/[id]\n    http://..../[app]/default/data/select/[table]\n    http://..../[app]/default/data/search/[table]\n    but URLs must be signed, i.e. linked with\n      A(\'table\',_href=URL(\'data/tables\',user_signature=True))\n    or with the signed load operator\n      LOAD(\'default\',\'data.load\',args=\'tables\',ajax=True,user_signature=True)\n    """\n    return dict(form=crud())\n\n\n\n\n\n#---------------------------------------------------Project Starts---------------------------------------------------------------#\n\n@auth.requires_login()\ndef student_info():\n     a=auth.user.email\n     b=auth.user.first_name\n     c=auth.user.last_name\n     response.flash=\'Logged in as \'+b+\' \'+c\n     form=SQLFORM(db.student)\n     form.vars.email=a\n     if (form.accepts(request,session)):\n\t  response.flash="Personal Information Successfully Added"\n     return dict(form=form)\n\n@auth.requires_login()\n@auth.requires_membership(\'IIIT_FACULTY_DEPARTMENT\')\ndef set_paper():\n     form=SQLFORM(db.questions)\n     form.vars.faculty_id=auth.user.email\n     if form.accepts(request,session):\n\t  response.flash="Question Inserted"\n     return dict(form=form)\n\n\n@auth.requires_login()\ndef exam():\n     p={}\n     CHECK_TEACHER=db((auth.user.id==db.auth_membership.user_id)&(db.auth_membership.group_id==17)).select(db.auth_user.ALL)\n     x=db(db.see.id==8).select(db.see.course)\n     x=x[0][\'course\']\n     k=db(auth.user.email==db.student.email).select(db.student.email)\n     if k:\n\t  t=db((auth.user.email==db.answer.stid) & (x==db.answer.course)).select(db.answer.given)\n\t  print t\n\t  if t:\n\t       if t[0][\'given\']==1:\n\t\t    response.flash=\'You have already given the Examination\'\n\t\t    redirect(\'index\')\n\t  start_time=db(db.times.course==x).select(db.times.start_time)\n          end_time=db(db.times.course==x).select(db.times.end_time)\n          exam_date=db(db.times.course==x).select(db.times.date_of_exam)\n          p=db(auth.user.email==db.student.email).select(db.student.coun)\n          n=p[0][\'coun\']\n          que={}\n          que=db((db.questions.course==x)&(db.questions.que_number==n)).select(db.questions.que_number,\n\t       \t\t\t\t            db.questions.question,\n\t\t\t\t\t            db.questions.option_a,\n\t                                            db.questions.option_b,\n\t                                            db.questions.option_c,\n\t                                            db.questions.option_d,\n\t  \t\t\t\t            )\n          if (db((auth.user.id==db.auth_membership.user_id)&(db.auth_membership.group_id==17)).select(db.auth_user.ALL)):\n\t       form=SQLFORM.factory(\n\t\t\t Field(\'ans\',requires=IS_IN_SET([\'A\',\'B\',\'C\',\'D\'],multiple=True),widget=SQLFORM.widgets.checkboxes.widget),\n\t\t\t Field(\'com\',\'text\'))\n\t\t\t      \n\t\t\t \n\t       \n\t  else:\n\t       form=SQLFORM.factory(\n\t\t\t Field(\'ans\',requires=IS_IN_SET([\'A\',\'B\',\'C\',\'D\'],multiple=True),widget=SQLFORM.widgets.checkboxes.widget\n\t\t\t      )\n\t\t\t )\n\t  check=db((auth.user.email==db.answer.stid)&(n==db.answer.que_num)&(db.see.course==db.answer.course)).select(db.answer.ALL)\n\t  if(form.accepts(request,session)):\n\t       response.flash="Answer Submitted"\n\t       if check:\n\t\t    db((auth.user.email==db.answer.stid)&(n==db.answer.que_num)&(x==db.answer.course)).update(op= form.vars.ans,course=x)\n\t       else:\n\t\t    db.answer.insert(que_num=n,stid=auth.user.email,op=form.vars.ans,course=x)\n\t       response.flash=str(form.vars.ans)+"asdasd"\n\t       if CHECK_TEACHER:\n\t\t    if(form.vars.com):\n\t\t\t db.comments.insert(faculty_id=auth.user.email,que=n,course=x,comment_given=form.vars.com)\n\t     \n\t       redirect(\'next\')\n\n     if k:\n\t  if que:\n\t       if CHECK_TEACHER:\n\t\t    com=db((db.comments.que==n)&(db.comments.course==x)).select(db.comments.comment_given)\n\t\t    return dict(que=que,form=form,com=com,start_time=start_time,end_time=end_time,exam_date=exam_date)\n\t       else:\n\t\t    com={}\n\t\t    return dict(que=que,form=form,com=com,start_time=start_time,end_time=end_time,exam_date=exam_date)\n\n\t  else:\n\t       redirect(URL(\'default\',\'show\'))\n     else:\n\t  redirect(URL(\'default\',\'student_info\'))\n\t  \n\n\n@auth.requires_login()\ndef next():\n     p=db(auth.user.email==db.student.email).select(db.student.coun)\n     x=db(db.see.id==8).select(db.see.course)\n     x=x[0][\'course\']\n     n=p[0][\'coun\']\n     correct=db((db.questions.que_number==n)&(db.questions.course==x)).select(db.questions.ans)\n     given=db((db.answer.stid==auth.user.email)&(db.answer.que_num==n)&(db.answer.course==x)).select(db.answer.op)\n     print given[0][\'op\']\n     if given and given[0][\'op\']!=\'||\':\n\t  print \'aaaaa\'\n\t  if(given!=None and correct[0][\'ans\']==given[0][\'op\']):\n\t       db(db.questions.que_number==n).update(stid=auth.user.email)\n\t       db((db.questions.stid==auth.user.email)&(db.questions.que_number==n)).update(obtained_marks=4)\n\t  elif(correct!=given and given!=None):\n\t       db(db.questions.que_number==n).update(stid=auth.user.email)\n\t       db((db.questions.stid==auth.user.email)&(db.questions.que_number==n)).update(obtained_marks=-1)\n     \n     db(auth.user.email==db.student.email).update(coun=n+1)\n     que=db(db.questions.que_number>0).select(db.questions.que_number)\n     redirect(URL(\'default\',\'exam\'))\n\n\ndef prev():\n     p=db(auth.user.email==db.student.email).select(db.student.coun)\n     n=p[0][\'coun\']\n     if(n-1>0):\n\t  db(auth.user.email==db.student.email).update(coun=n-1)\n     if(n-1>0):\n\t  redirect(URL(\'default\',\'exam\'))\n     else:\n\t  redirect(URL(\'default\',\'exam\'))\ndef courses():\n     return locals()\ndef noq():\n     return locals()\n\ndef list():\n     k=db((db.auth_membership.user_id==db.auth_user.id)&(db.auth_membership.group_id!=17)).select(db.auth_user.first_name,db.auth_user.last_name)\n     return dict(k=k)\n\n\ndef faculty():\n     f=db((db.auth_membership.user_id==db.auth_user.id)&(db.auth_membership.group_id==17)).select(db.auth_user.first_name,db.auth_user.last_name)\n     return dict(f=f)\n\ndef show():\n     x=db(db.see.id==8).select(db.see.course)\n     x=x[0][\'course\']\n     a=auth.user.email\n     k=db((db.questions.stid==a)&(db.questions.course==x)).select(db.questions.obtained_marks)\n     marks=0\n     db((auth.user.email==db.answer.stid)&(x==db.answer.course)).update(given=1)\n     for i in range(len(k)):\n\t  marks=marks+k[i][\'obtained_marks\']\n     db(auth.user.email==db.student.email).update(final_marks=marks)\n     return dict(marks=marks)\n     if (db((auth.user.id==db.auth_membership.user_id)&(db.auth_membership.group_id==17)).select(db.auth_user.ALL)):\n\t  print\'wallah\'\n\ndef give_exam():\n     return locals()\n\ndef which_one():\n     p=request.post_vars[\'id\']\n     db(db.see.id==8).update(course=p)\n     redirect(URL(\'exam\'))\n\n@auth.requires_login()\ndef show_paper():\n     if (db((auth.user.id==db.auth_membership.user_id)&(db.auth_membership.group_id==17)).select(db.auth_user.ALL)):\n\t  query=db.questions.faculty_id==auth.user.email\n\t  grid=SQLFORM.grid(query)\n\t  return locals()\n     else:\n\t  redirect(URL(\'F1\'))\n\t  return locals()\n\n\n@auth.requires_login()\ndef F1():\n     return locals()\n\n\n@auth.requires_login()\ndef F2():\n     x=request.post_vars[\'id\']\n     t=db((auth.user.email==db.answer.stid) & (x==db.answer.course)).select(db.answer.given)\n     if t:\n\t  ans=db((auth.user.email==db.answer.stid) & (db.answer.course==x)).select(db.answer.que_num,db.answer.op)\n\t  ques=db(x==db.questions.course).select(db.questions.ALL)\n\t  return dict(ans=ans,ques=ques)\n     else:\n\t  response.flash(\'jhkjh\')\n\t  redirect(URL(\'index\'))\n     return locals()\n\n\n@auth.requires_login()\n@auth.requires_membership(\'IIIT_FACULTY_DEPARTMENT\')\ndef set_time():\n     form=SQLFORM(db.times)\n     if (form.accepts(request,session)):\n\t  response.flash="Time Setted"\n     return dict(form=form)\n\nresponse._vars=response._caller(F2)\n'
p7
sS'snapshot'
p8
(dp9
S'exception'
p10
(dp11
S'__hash__'
p12
S"<method-wrapper '__hash__' of exceptions.TypeError object>"
p13
sS'__setattr__'
p14
S"<method-wrapper '__setattr__' of exceptions.TypeError object>"
p15
sS'__reduce_ex__'
p16
S'<built-in method __reduce_ex__ of exceptions.TypeError object>'
p17
sS'__getslice__'
p18
S"<method-wrapper '__getslice__' of exceptions.TypeError object>"
p19
sS'__getitem__'
p20
S"<method-wrapper '__getitem__' of exceptions.TypeError object>"
p21
sS'__setstate__'
p22
S'<built-in method __setstate__ of exceptions.TypeError object>'
p23
sS'__reduce__'
p24
S'<built-in method __reduce__ of exceptions.TypeError object>'
p25
sS'__str__'
p26
S"<method-wrapper '__str__' of exceptions.TypeError object>"
p27
sS'__format__'
p28
S'<built-in method __format__ of exceptions.TypeError object>'
p29
sS'__getattribute__'
p30
S"<method-wrapper '__getattribute__' of exceptions.TypeError object>"
p31
sS'__class__'
p32
S"<type 'exceptions.TypeError'>"
p33
sS'__unicode__'
p34
S'<built-in method __unicode__ of exceptions.TypeError object>'
p35
sS'__delattr__'
p36
S"<method-wrapper '__delattr__' of exceptions.TypeError object>"
p37
sS'__subclasshook__'
p38
S'<built-in method __subclasshook__ of type object>'
p39
sS'__repr__'
p40
S"<method-wrapper '__repr__' of exceptions.TypeError object>"
p41
sS'args'
p42
S'("\'str\' object is not callable",)'
p43
sS'__dict__'
p44
S'{}'
p45
sS'__sizeof__'
p46
S'<built-in method __sizeof__ of exceptions.TypeError object>'
p47
sS'__doc__'
p48
S"'Inappropriate argument type.'"
p49
sS'__init__'
p50
S"<method-wrapper '__init__' of exceptions.TypeError object>"
p51
sS'__new__'
p52
S'<built-in method __new__ of type object>'
p53
ssS'evalue'
p54
S"'str' object is not callable"
p55
sS'request'
p56
ccopy_reg
_reconstructor
p57
(cgluon.html
BEAUTIFY
p58
c__builtin__
object
p59
NtRp60
(dp61
S'attributes'
p62
(dp63
sS'components'
p64
(lp65
g57
(cgluon.html
TABLE
p66
g59
NtRp67
(dp68
g62
(dp69
S'level'
p70
I5
ssS'parent'
p71
Nsg64
(lp72
g57
(cgluon.html
TR
p73
g59
NtRp74
(dp75
g62
(dp76
sg71
g67
sg64
(lp77
g57
(cgluon.html
TD
p78
g59
NtRp79
(dp80
g62
(dp81
S'_style'
p82
S'font-weight:bold;vertical-align:top'
p83
ssg71
g74
sg64
(lp84
S'ajax'
p85
asbag57
(g78
g59
NtRp86
(dp87
g62
(dp88
S'_valign'
p89
S'top'
p90
ssg71
g74
sg64
(lp91
S':'
asbag57
(g78
g59
NtRp92
(dp93
g62
(dp94
sg71
g74
sg64
(lp95
g57
(g58
g59
NtRp96
(dp97
g62
(dp98
g70
I5
ssg71
g92
sg64
(lp99
S'False'
p100
asbasbasbag57
(g73
g59
NtRp101
(dp102
g62
(dp103
sg71
g67
sg64
(lp104
g57
(g78
g59
NtRp105
(dp106
g62
(dp107
g82
g83
ssg71
g101
sg64
(lp108
S'application'
p109
asbag57
(g78
g59
NtRp110
(dp111
g62
(dp112
g89
g90
ssg71
g101
sg64
(lp113
S':'
asbag57
(g78
g59
NtRp114
(dp115
g62
(dp116
sg71
g101
sg64
(lp117
g57
(g58
g59
NtRp118
(dp119
g62
(dp120
g70
I5
ssg71
g114
sg64
(lp121
S'OnlineExamination'
p122
asbasbasbag57
(g73
g59
NtRp123
(dp124
g62
(dp125
sg71
g67
sg64
(lp126
g57
(g78
g59
NtRp127
(dp128
g62
(dp129
g82
g83
ssg71
g123
sg64
(lp130
g42
asbag57
(g78
g59
NtRp131
(dp132
g62
(dp133
g89
g90
ssg71
g123
sg64
(lp134
S':'
asbag57
(g78
g59
NtRp135
(dp136
g62
(dp137
sg71
g123
sg64
(lp138
g57
(g58
g59
NtRp139
(dp140
g62
(dp141
g70
I5
ssg71
g135
sg64
(lp142
g57
(g66
g59
NtRp143
(dp144
g62
(dp145
g70
I4
ssg71
Nsg64
(lp146
sbasbasbasbag57
(g73
g59
NtRp147
(dp148
g62
(dp149
sg71
g67
sg64
(lp150
g57
(g78
g59
NtRp151
(dp152
g62
(dp153
g82
g83
ssg71
g147
sg64
(lp154
S'body'
p155
asbag57
(g78
g59
NtRp156
(dp157
g62
(dp158
g89
g90
ssg71
g147
sg64
(lp159
S':'
asbag57
(g78
g59
NtRp160
(dp161
g62
(dp162
sg71
g147
sg64
(lp163
g57
(g58
g59
NtRp164
(dp165
g62
(dp166
g70
I5
ssg71
g160
sg64
(lp167
S"<open file '<fdopen>', mode 'w+b' at 0xae242c28>"
p168
asbasbasbag57
(g73
g59
NtRp169
(dp170
g62
(dp171
sg71
g67
sg64
(lp172
g57
(g78
g59
NtRp173
(dp174
g62
(dp175
g82
g83
ssg71
g169
sg64
(lp176
S'cid'
p177
asbag57
(g78
g59
NtRp178
(dp179
g62
(dp180
g89
g90
ssg71
g169
sg64
(lp181
S':'
asbag57
(g78
g59
NtRp182
(dp183
g62
(dp184
sg71
g169
sg64
(lp185
g57
(g58
g59
NtRp186
(dp187
g62
(dp188
g70
I5
ssg71
g182
sg64
(lp189
S'None'
p190
asbasbasbag57
(g73
g59
NtRp191
(dp192
g62
(dp193
sg71
g67
sg64
(lp194
g57
(g78
g59
NtRp195
(dp196
g62
(dp197
g82
g83
ssg71
g191
sg64
(lp198
S'client'
p199
asbag57
(g78
g59
NtRp200
(dp201
g62
(dp202
g89
g90
ssg71
g191
sg64
(lp203
S':'
asbag57
(g78
g59
NtRp204
(dp205
g62
(dp206
sg71
g191
sg64
(lp207
g57
(g58
g59
NtRp208
(dp209
g62
(dp210
g70
I5
ssg71
g204
sg64
(lp211
S'127.0.0.1'
p212
asbasbasbag57
(g73
g59
NtRp213
(dp214
g62
(dp215
sg71
g67
sg64
(lp216
g57
(g78
g59
NtRp217
(dp218
g62
(dp219
g82
g83
ssg71
g213
sg64
(lp220
S'controller'
p221
asbag57
(g78
g59
NtRp222
(dp223
g62
(dp224
g89
g90
ssg71
g213
sg64
(lp225
S':'
asbag57
(g78
g59
NtRp226
(dp227
g62
(dp228
sg71
g213
sg64
(lp229
g57
(g58
g59
NtRp230
(dp231
g62
(dp232
g70
I5
ssg71
g226
sg64
(lp233
S'default'
p234
asbasbasbag57
(g73
g59
NtRp235
(dp236
g62
(dp237
sg71
g67
sg64
(lp238
g57
(g78
g59
NtRp239
(dp240
g62
(dp241
g82
g83
ssg71
g235
sg64
(lp242
S'cookies'
p243
asbag57
(g78
g59
NtRp244
(dp245
g62
(dp246
g89
g90
ssg71
g235
sg64
(lp247
S':'
asbag57
(g78
g59
NtRp248
(dp249
g62
(dp250
sg71
g235
sg64
(lp251
g57
(g58
g59
NtRp252
(dp253
g62
(dp254
g70
I5
ssg71
g248
sg64
(lp255
g57
(g66
g59
NtRp256
(dp257
g62
(dp258
g70
I4
ssg71
Nsg64
(lp259
g57
(g73
g59
NtRp260
(dp261
g62
(dp262
sg71
g256
sg64
(lp263
g57
(g78
g59
NtRp264
(dp265
g62
(dp266
g82
g83
ssg71
g260
sg64
(lp267
S'session_id_admin'
p268
asbag57
(g78
g59
NtRp269
(dp270
g62
(dp271
g89
g90
ssg71
g260
sg64
(lp272
S':'
asbag57
(g78
g59
NtRp273
(dp274
g62
(dp275
sg71
g260
sg64
(lp276
g57
(g58
g59
NtRp277
(dp278
g62
(dp279
g70
I4
ssg71
g273
sg64
(lp280
S'127.0.0.1-42300d3b-177a-485b-80bb-8744966741ee'
p281
ag57
(g66
g59
NtRp282
(dp283
g62
(dp284
g70
I3
ssg71
Nsg64
(lp285
g57
(g73
g59
NtRp286
(dp287
g62
(dp288
sg71
g282
sg64
(lp289
g57
(g78
g59
NtRp290
(dp291
g62
(dp292
g82
g83
ssg71
g286
sg64
(lp293
S'comment'
p294
asbag57
(g78
g59
NtRp295
(dp296
g62
(dp297
g89
g90
ssg71
g286
sg64
(lp298
S':'
asbag57
(g78
g59
NtRp299
(dp300
g62
(dp301
sg71
g286
sg64
(lp302
g57
(g58
g59
NtRp303
(dp304
g62
(dp305
g70
I3
ssg71
g299
sg64
(lp306
S''
asbasbasbag57
(g73
g59
NtRp307
(dp308
g62
(dp309
sg71
g282
sg64
(lp310
g57
(g78
g59
NtRp311
(dp312
g62
(dp313
g82
g83
ssg71
g307
sg64
(lp314
S'domain'
p315
asbag57
(g78
g59
NtRp316
(dp317
g62
(dp318
g89
g90
ssg71
g307
sg64
(lp319
S':'
asbag57
(g78
g59
NtRp320
(dp321
g62
(dp322
sg71
g307
sg64
(lp323
g57
(g58
g59
NtRp324
(dp325
g62
(dp326
g70
I3
ssg71
g320
sg64
(lp327
S''
asbasbasbag57
(g73
g59
NtRp328
(dp329
g62
(dp330
sg71
g282
sg64
(lp331
g57
(g78
g59
NtRp332
(dp333
g62
(dp334
g82
g83
ssg71
g328
sg64
(lp335
S'expires'
p336
asbag57
(g78
g59
NtRp337
(dp338
g62
(dp339
g89
g90
ssg71
g328
sg64
(lp340
S':'
asbag57
(g78
g59
NtRp341
(dp342
g62
(dp343
sg71
g328
sg64
(lp344
g57
(g58
g59
NtRp345
(dp346
g62
(dp347
g70
I3
ssg71
g341
sg64
(lp348
S''
asbasbasbag57
(g73
g59
NtRp349
(dp350
g62
(dp351
sg71
g282
sg64
(lp352
g57
(g78
g59
NtRp353
(dp354
g62
(dp355
g82
g83
ssg71
g349
sg64
(lp356
S'httponly'
p357
asbag57
(g78
g59
NtRp358
(dp359
g62
(dp360
g89
g90
ssg71
g349
sg64
(lp361
S':'
asbag57
(g78
g59
NtRp362
(dp363
g62
(dp364
sg71
g349
sg64
(lp365
g57
(g58
g59
NtRp366
(dp367
g62
(dp368
g70
I3
ssg71
g362
sg64
(lp369
S''
asbasbasbag57
(g73
g59
NtRp370
(dp371
g62
(dp372
sg71
g282
sg64
(lp373
g57
(g78
g59
NtRp374
(dp375
g62
(dp376
g82
g83
ssg71
g370
sg64
(lp377
S'max-age'
p378
asbag57
(g78
g59
NtRp379
(dp380
g62
(dp381
g89
g90
ssg71
g370
sg64
(lp382
S':'
asbag57
(g78
g59
NtRp383
(dp384
g62
(dp385
sg71
g370
sg64
(lp386
g57
(g58
g59
NtRp387
(dp388
g62
(dp389
g70
I3
ssg71
g383
sg64
(lp390
S''
asbasbasbag57
(g73
g59
NtRp391
(dp392
g62
(dp393
sg71
g282
sg64
(lp394
g57
(g78
g59
NtRp395
(dp396
g62
(dp397
g82
g83
ssg71
g391
sg64
(lp398
S'path'
p399
asbag57
(g78
g59
NtRp400
(dp401
g62
(dp402
g89
g90
ssg71
g391
sg64
(lp403
S':'
asbag57
(g78
g59
NtRp404
(dp405
g62
(dp406
sg71
g391
sg64
(lp407
g57
(g58
g59
NtRp408
(dp409
g62
(dp410
g70
I3
ssg71
g404
sg64
(lp411
S''
asbasbasbag57
(g73
g59
NtRp412
(dp413
g62
(dp414
sg71
g282
sg64
(lp415
g57
(g78
g59
NtRp416
(dp417
g62
(dp418
g82
g83
ssg71
g412
sg64
(lp419
S'secure'
p420
asbag57
(g78
g59
NtRp421
(dp422
g62
(dp423
g89
g90
ssg71
g412
sg64
(lp424
S':'
asbag57
(g78
g59
NtRp425
(dp426
g62
(dp427
sg71
g412
sg64
(lp428
g57
(g58
g59
NtRp429
(dp430
g62
(dp431
g70
I3
ssg71
g425
sg64
(lp432
S''
asbasbasbag57
(g73
g59
NtRp433
(dp434
g62
(dp435
sg71
g282
sg64
(lp436
g57
(g78
g59
NtRp437
(dp438
g62
(dp439
g82
g83
ssg71
g433
sg64
(lp440
S'version'
p441
asbag57
(g78
g59
NtRp442
(dp443
g62
(dp444
g89
g90
ssg71
g433
sg64
(lp445
S':'
asbag57
(g78
g59
NtRp446
(dp447
g62
(dp448
sg71
g433
sg64
(lp449
g57
(g58
g59
NtRp450
(dp451
g62
(dp452
g70
I3
ssg71
g446
sg64
(lp453
S''
asbasbasbasbasbasbasbag57
(g73
g59
NtRp454
(dp455
g62
(dp456
sg71
g256
sg64
(lp457
g57
(g78
g59
NtRp458
(dp459
g62
(dp460
g82
g83
ssg71
g454
sg64
(lp461
S'session_id_onlineexamination'
p462
asbag57
(g78
g59
NtRp463
(dp464
g62
(dp465
g89
g90
ssg71
g454
sg64
(lp466
S':'
asbag57
(g78
g59
NtRp467
(dp468
g62
(dp469
sg71
g454
sg64
(lp470
g57
(g58
g59
NtRp471
(dp472
g62
(dp473
g70
I4
ssg71
g467
sg64
(lp474
S'127.0.0.1-890005ee-6292-472c-99ed-b32ea0089194'
p475
ag57
(g66
g59
NtRp476
(dp477
g62
(dp478
g70
I3
ssg71
Nsg64
(lp479
g57
(g73
g59
NtRp480
(dp481
g62
(dp482
sg71
g476
sg64
(lp483
g57
(g78
g59
NtRp484
(dp485
g62
(dp486
g82
g83
ssg71
g480
sg64
(lp487
g294
asbag57
(g78
g59
NtRp488
(dp489
g62
(dp490
g89
g90
ssg71
g480
sg64
(lp491
S':'
asbag57
(g78
g59
NtRp492
(dp493
g62
(dp494
sg71
g480
sg64
(lp495
g57
(g58
g59
NtRp496
(dp497
g62
(dp498
g70
I3
ssg71
g492
sg64
(lp499
S''
asbasbasbag57
(g73
g59
NtRp500
(dp501
g62
(dp502
sg71
g476
sg64
(lp503
g57
(g78
g59
NtRp504
(dp505
g62
(dp506
g82
g83
ssg71
g500
sg64
(lp507
g315
asbag57
(g78
g59
NtRp508
(dp509
g62
(dp510
g89
g90
ssg71
g500
sg64
(lp511
S':'
asbag57
(g78
g59
NtRp512
(dp513
g62
(dp514
sg71
g500
sg64
(lp515
g57
(g58
g59
NtRp516
(dp517
g62
(dp518
g70
I3
ssg71
g512
sg64
(lp519
S''
asbasbasbag57
(g73
g59
NtRp520
(dp521
g62
(dp522
sg71
g476
sg64
(lp523
g57
(g78
g59
NtRp524
(dp525
g62
(dp526
g82
g83
ssg71
g520
sg64
(lp527
g336
asbag57
(g78
g59
NtRp528
(dp529
g62
(dp530
g89
g90
ssg71
g520
sg64
(lp531
S':'
asbag57
(g78
g59
NtRp532
(dp533
g62
(dp534
sg71
g520
sg64
(lp535
g57
(g58
g59
NtRp536
(dp537
g62
(dp538
g70
I3
ssg71
g532
sg64
(lp539
S''
asbasbasbag57
(g73
g59
NtRp540
(dp541
g62
(dp542
sg71
g476
sg64
(lp543
g57
(g78
g59
NtRp544
(dp545
g62
(dp546
g82
g83
ssg71
g540
sg64
(lp547
g357
asbag57
(g78
g59
NtRp548
(dp549
g62
(dp550
g89
g90
ssg71
g540
sg64
(lp551
S':'
asbag57
(g78
g59
NtRp552
(dp553
g62
(dp554
sg71
g540
sg64
(lp555
g57
(g58
g59
NtRp556
(dp557
g62
(dp558
g70
I3
ssg71
g552
sg64
(lp559
S''
asbasbasbag57
(g73
g59
NtRp560
(dp561
g62
(dp562
sg71
g476
sg64
(lp563
g57
(g78
g59
NtRp564
(dp565
g62
(dp566
g82
g83
ssg71
g560
sg64
(lp567
g378
asbag57
(g78
g59
NtRp568
(dp569
g62
(dp570
g89
g90
ssg71
g560
sg64
(lp571
S':'
asbag57
(g78
g59
NtRp572
(dp573
g62
(dp574
sg71
g560
sg64
(lp575
g57
(g58
g59
NtRp576
(dp577
g62
(dp578
g70
I3
ssg71
g572
sg64
(lp579
S''
asbasbasbag57
(g73
g59
NtRp580
(dp581
g62
(dp582
sg71
g476
sg64
(lp583
g57
(g78
g59
NtRp584
(dp585
g62
(dp586
g82
g83
ssg71
g580
sg64
(lp587
g399
asbag57
(g78
g59
NtRp588
(dp589
g62
(dp590
g89
g90
ssg71
g580
sg64
(lp591
S':'
asbag57
(g78
g59
NtRp592
(dp593
g62
(dp594
sg71
g580
sg64
(lp595
g57
(g58
g59
NtRp596
(dp597
g62
(dp598
g70
I3
ssg71
g592
sg64
(lp599
S''
asbasbasbag57
(g73
g59
NtRp600
(dp601
g62
(dp602
sg71
g476
sg64
(lp603
g57
(g78
g59
NtRp604
(dp605
g62
(dp606
g82
g83
ssg71
g600
sg64
(lp607
g420
asbag57
(g78
g59
NtRp608
(dp609
g62
(dp610
g89
g90
ssg71
g600
sg64
(lp611
S':'
asbag57
(g78
g59
NtRp612
(dp613
g62
(dp614
sg71
g600
sg64
(lp615
g57
(g58
g59
NtRp616
(dp617
g62
(dp618
g70
I3
ssg71
g612
sg64
(lp619
S''
asbasbasbag57
(g73
g59
NtRp620
(dp621
g62
(dp622
sg71
g476
sg64
(lp623
g57
(g78
g59
NtRp624
(dp625
g62
(dp626
g82
g83
ssg71
g620
sg64
(lp627
g441
asbag57
(g78
g59
NtRp628
(dp629
g62
(dp630
g89
g90
ssg71
g620
sg64
(lp631
S':'
asbag57
(g78
g59
NtRp632
(dp633
g62
(dp634
sg71
g620
sg64
(lp635
g57
(g58
g59
NtRp636
(dp637
g62
(dp638
g70
I3
ssg71
g632
sg64
(lp639
S''
asbasbasbasbasbasbasbag57
(g73
g59
NtRp640
(dp641
g62
(dp642
sg71
g256
sg64
(lp643
g57
(g78
g59
NtRp644
(dp645
g62
(dp646
g82
g83
ssg71
g640
sg64
(lp647
S'session_id_welcome'
p648
asbag57
(g78
g59
NtRp649
(dp650
g62
(dp651
g89
g90
ssg71
g640
sg64
(lp652
S':'
asbag57
(g78
g59
NtRp653
(dp654
g62
(dp655
sg71
g640
sg64
(lp656
g57
(g58
g59
NtRp657
(dp658
g62
(dp659
g70
I4
ssg71
g653
sg64
(lp660
S'127.0.0.1-3c4c582f-5478-4324-9266-c453ce96a604'
p661
ag57
(g66
g59
NtRp662
(dp663
g62
(dp664
g70
I3
ssg71
Nsg64
(lp665
g57
(g73
g59
NtRp666
(dp667
g62
(dp668
sg71
g662
sg64
(lp669
g57
(g78
g59
NtRp670
(dp671
g62
(dp672
g82
g83
ssg71
g666
sg64
(lp673
g294
asbag57
(g78
g59
NtRp674
(dp675
g62
(dp676
g89
g90
ssg71
g666
sg64
(lp677
S':'
asbag57
(g78
g59
NtRp678
(dp679
g62
(dp680
sg71
g666
sg64
(lp681
g57
(g58
g59
NtRp682
(dp683
g62
(dp684
g70
I3
ssg71
g678
sg64
(lp685
S''
asbasbasbag57
(g73
g59
NtRp686
(dp687
g62
(dp688
sg71
g662
sg64
(lp689
g57
(g78
g59
NtRp690
(dp691
g62
(dp692
g82
g83
ssg71
g686
sg64
(lp693
g315
asbag57
(g78
g59
NtRp694
(dp695
g62
(dp696
g89
g90
ssg71
g686
sg64
(lp697
S':'
asbag57
(g78
g59
NtRp698
(dp699
g62
(dp700
sg71
g686
sg64
(lp701
g57
(g58
g59
NtRp702
(dp703
g62
(dp704
g70
I3
ssg71
g698
sg64
(lp705
S''
asbasbasbag57
(g73
g59
NtRp706
(dp707
g62
(dp708
sg71
g662
sg64
(lp709
g57
(g78
g59
NtRp710
(dp711
g62
(dp712
g82
g83
ssg71
g706
sg64
(lp713
g336
asbag57
(g78
g59
NtRp714
(dp715
g62
(dp716
g89
g90
ssg71
g706
sg64
(lp717
S':'
asbag57
(g78
g59
NtRp718
(dp719
g62
(dp720
sg71
g706
sg64
(lp721
g57
(g58
g59
NtRp722
(dp723
g62
(dp724
g70
I3
ssg71
g718
sg64
(lp725
S''
asbasbasbag57
(g73
g59
NtRp726
(dp727
g62
(dp728
sg71
g662
sg64
(lp729
g57
(g78
g59
NtRp730
(dp731
g62
(dp732
g82
g83
ssg71
g726
sg64
(lp733
g357
asbag57
(g78
g59
NtRp734
(dp735
g62
(dp736
g89
g90
ssg71
g726
sg64
(lp737
S':'
asbag57
(g78
g59
NtRp738
(dp739
g62
(dp740
sg71
g726
sg64
(lp741
g57
(g58
g59
NtRp742
(dp743
g62
(dp744
g70
I3
ssg71
g738
sg64
(lp745
S''
asbasbasbag57
(g73
g59
NtRp746
(dp747
g62
(dp748
sg71
g662
sg64
(lp749
g57
(g78
g59
NtRp750
(dp751
g62
(dp752
g82
g83
ssg71
g746
sg64
(lp753
g378
asbag57
(g78
g59
NtRp754
(dp755
g62
(dp756
g89
g90
ssg71
g746
sg64
(lp757
S':'
asbag57
(g78
g59
NtRp758
(dp759
g62
(dp760
sg71
g746
sg64
(lp761
g57
(g58
g59
NtRp762
(dp763
g62
(dp764
g70
I3
ssg71
g758
sg64
(lp765
S''
asbasbasbag57
(g73
g59
NtRp766
(dp767
g62
(dp768
sg71
g662
sg64
(lp769
g57
(g78
g59
NtRp770
(dp771
g62
(dp772
g82
g83
ssg71
g766
sg64
(lp773
g399
asbag57
(g78
g59
NtRp774
(dp775
g62
(dp776
g89
g90
ssg71
g766
sg64
(lp777
S':'
asbag57
(g78
g59
NtRp778
(dp779
g62
(dp780
sg71
g766
sg64
(lp781
g57
(g58
g59
NtRp782
(dp783
g62
(dp784
g70
I3
ssg71
g778
sg64
(lp785
S''
asbasbasbag57
(g73
g59
NtRp786
(dp787
g62
(dp788
sg71
g662
sg64
(lp789
g57
(g78
g59
NtRp790
(dp791
g62
(dp792
g82
g83
ssg71
g786
sg64
(lp793
g420
asbag57
(g78
g59
NtRp794
(dp795
g62
(dp796
g89
g90
ssg71
g786
sg64
(lp797
S':'
asbag57
(g78
g59
NtRp798
(dp799
g62
(dp800
sg71
g786
sg64
(lp801
g57
(g58
g59
NtRp802
(dp803
g62
(dp804
g70
I3
ssg71
g798
sg64
(lp805
S''
asbasbasbag57
(g73
g59
NtRp806
(dp807
g62
(dp808
sg71
g662
sg64
(lp809
g57
(g78
g59
NtRp810
(dp811
g62
(dp812
g82
g83
ssg71
g806
sg64
(lp813
g441
asbag57
(g78
g59
NtRp814
(dp815
g62
(dp816
g89
g90
ssg71
g806
sg64
(lp817
S':'
asbag57
(g78
g59
NtRp818
(dp819
g62
(dp820
sg71
g806
sg64
(lp821
g57
(g58
g59
NtRp822
(dp823
g62
(dp824
g70
I3
ssg71
g818
sg64
(lp825
S''
asbasbasbasbasbasbasbasbasbasbasbag57
(g73
g59
NtRp826
(dp827
g62
(dp828
sg71
g67
sg64
(lp829
g57
(g78
g59
NtRp830
(dp831
g62
(dp832
g82
g83
ssg71
g826
sg64
(lp833
S'env'
p834
asbag57
(g78
g59
NtRp835
(dp836
g62
(dp837
g89
g90
ssg71
g826
sg64
(lp838
S':'
asbag57
(g78
g59
NtRp839
(dp840
g62
(dp841
sg71
g826
sg64
(lp842
g57
(g58
g59
NtRp843
(dp844
g62
(dp845
g70
I5
ssg71
g839
sg64
(lp846
g57
(g66
g59
NtRp847
(dp848
g62
(dp849
g70
I4
ssg71
Nsg64
(lp850
g57
(g73
g59
NtRp851
(dp852
g62
(dp853
sg71
g847
sg64
(lp854
g57
(g78
g59
NtRp855
(dp856
g62
(dp857
g82
g83
ssg71
g851
sg64
(lp858
S'app_folders'
p859
asbag57
(g78
g59
NtRp860
(dp861
g62
(dp862
g89
g90
ssg71
g851
sg64
(lp863
S':'
asbag57
(g78
g59
NtRp864
(dp865
g62
(dp866
sg71
g851
sg64
(lp867
g57
(g58
g59
NtRp868
(dp869
g62
(dp870
g70
I4
ssg71
g864
sg64
(lp871
S"set(['/home/gaurav/classwork/WEB_PROGRAMMING/web2py/applications/OnlineExamination/', '/home/gaurav/classwork/WEB_PROGRAMMING/web2py/applications/admin/', '/home/gaurav/classwork/WEB_PROGRAMMING/web2py/applications/welcome/'])"
p872
asbasbasbag57
(g73
g59
NtRp873
(dp874
g62
(dp875
sg71
g847
sg64
(lp876
g57
(g78
g59
NtRp877
(dp878
g62
(dp879
g82
g83
ssg71
g873
sg64
(lp880
S'applications_parent'
p881
asbag57
(g78
g59
NtRp882
(dp883
g62
(dp884
g89
g90
ssg71
g873
sg64
(lp885
S':'
asbag57
(g78
g59
NtRp886
(dp887
g62
(dp888
sg71
g873
sg64
(lp889
g57
(g58
g59
NtRp890
(dp891
g62
(dp892
g70
I4
ssg71
g886
sg64
(lp893
S'/home/gaurav/classwork/WEB_PROGRAMMING/web2py'
p894
asbasbasbag57
(g73
g59
NtRp895
(dp896
g62
(dp897
sg71
g847
sg64
(lp898
g57
(g78
g59
NtRp899
(dp900
g62
(dp901
g82
g83
ssg71
g895
sg64
(lp902
S'cmd_args'
p903
asbag57
(g78
g59
NtRp904
(dp905
g62
(dp906
g89
g90
ssg71
g895
sg64
(lp907
S':'
asbag57
(g78
g59
NtRp908
(dp909
g62
(dp910
sg71
g895
sg64
(lp911
g57
(g58
g59
NtRp912
(dp913
g62
(dp914
g70
I4
ssg71
g908
sg64
(lp915
g57
(g66
g59
NtRp916
(dp917
g62
(dp918
g70
I3
ssg71
Nsg64
(lp919
sbasbasbasbag57
(g73
g59
NtRp920
(dp921
g62
(dp922
sg71
g847
sg64
(lp923
g57
(g78
g59
NtRp924
(dp925
g62
(dp926
g82
g83
ssg71
g920
sg64
(lp927
S'cmd_options'
p928
asbag57
(g78
g59
NtRp929
(dp930
g62
(dp931
g89
g90
ssg71
g920
sg64
(lp932
S':'
asbag57
(g78
g59
NtRp933
(dp934
g62
(dp935
sg71
g920
sg64
(lp936
g57
(g58
g59
NtRp937
(dp938
g62
(dp939
g70
I4
ssg71
g933
sg64
(lp940
S"<Values at 0xa6066ec: {'verbose': False, 'ip': '127.0.0.1', 'with_scheduler': False, 'ips': [], 'shutdown_timeout': 5, 'taskbar': False, 'port': 8000, 'maxthreads': None, 'softcron': False, 'server_name': 'gaurav-Compaq-Presario-C700-Notebook-PC', 'bpython': False, 'nogui': False, 'pid_filename': 'httpserver.pid', 'extcron': False, 'runcron': False, 'run_system_tests': False, 'test': None, 'folder': '/home/gaurav/classwork/WEB_PROGRAMMING/web2py', 'config': '', 'import_models': False, 'winservice': '', 'shell': None, 'run': '', 'log_filename': 'httpserver.log', 'debuglevel': 30, 'args': [''], 'socket_timeout': 5, 'ssl_ca_certificate': None, 'scheduler': None, 'profiler_filename': None, 'ssl_private_key': '', 'scheduler_groups': None, 'password': '<ask>', 'request_queue_size': 5, 'ssl_certificate': '', 'cronjob': False, 'numthreads': None, 'quiet': False, 'interfaces': None, 'minthreads': None, 'timeout': 10, 'plain': False, 'nobanner': False}>"
p941
asbasbasbag57
(g73
g59
NtRp942
(dp943
g62
(dp944
sg71
g847
sg64
(lp945
g57
(g78
g59
NtRp946
(dp947
g62
(dp948
g82
g83
ssg71
g942
sg64
(lp949
S'content_length'
p950
asbag57
(g78
g59
NtRp951
(dp952
g62
(dp953
g89
g90
ssg71
g942
sg64
(lp954
S':'
asbag57
(g78
g59
NtRp955
(dp956
g62
(dp957
sg71
g942
sg64
(lp958
g57
(g58
g59
NtRp959
(dp960
g62
(dp961
g70
I4
ssg71
g955
sg64
(lp962
S'4'
asbasbasbag57
(g73
g59
NtRp963
(dp964
g62
(dp965
sg71
g847
sg64
(lp966
g57
(g78
g59
NtRp967
(dp968
g62
(dp969
g82
g83
ssg71
g963
sg64
(lp970
S'content_type'
p971
asbag57
(g78
g59
NtRp972
(dp973
g62
(dp974
g89
g90
ssg71
g963
sg64
(lp975
S':'
asbag57
(g78
g59
NtRp976
(dp977
g62
(dp978
sg71
g963
sg64
(lp979
g57
(g58
g59
NtRp980
(dp981
g62
(dp982
g70
I4
ssg71
g976
sg64
(lp983
S'application/x-www-form-urlencoded'
p984
asbasbasbag57
(g73
g59
NtRp985
(dp986
g62
(dp987
sg71
g847
sg64
(lp988
g57
(g78
g59
NtRp989
(dp990
g62
(dp991
g82
g83
ssg71
g985
sg64
(lp992
S'db_sessions'
p993
asbag57
(g78
g59
NtRp994
(dp995
g62
(dp996
g89
g90
ssg71
g985
sg64
(lp997
S':'
asbag57
(g78
g59
NtRp998
(dp999
g62
(dp1000
sg71
g985
sg64
(lp1001
g57
(g58
g59
NtRp1002
(dp1003
g62
(dp1004
g70
I4
ssg71
g998
sg64
(lp1005
S'set([])'
p1006
asbasbasbag57
(g73
g59
NtRp1007
(dp1008
g62
(dp1009
sg71
g847
sg64
(lp1010
g57
(g78
g59
NtRp1011
(dp1012
g62
(dp1013
g82
g83
ssg71
g1007
sg64
(lp1014
S'debugging'
p1015
asbag57
(g78
g59
NtRp1016
(dp1017
g62
(dp1018
g89
g90
ssg71
g1007
sg64
(lp1019
S':'
asbag57
(g78
g59
NtRp1020
(dp1021
g62
(dp1022
sg71
g1007
sg64
(lp1023
g57
(g58
g59
NtRp1024
(dp1025
g62
(dp1026
g70
I4
ssg71
g1020
sg64
(lp1027
g100
asbasbasbag57
(g73
g59
NtRp1028
(dp1029
g62
(dp1030
sg71
g847
sg64
(lp1031
g57
(g78
g59
NtRp1032
(dp1033
g62
(dp1034
g82
g83
ssg71
g1028
sg64
(lp1035
S'gluon_parent'
p1036
asbag57
(g78
g59
NtRp1037
(dp1038
g62
(dp1039
g89
g90
ssg71
g1028
sg64
(lp1040
S':'
asbag57
(g78
g59
NtRp1041
(dp1042
g62
(dp1043
sg71
g1028
sg64
(lp1044
g57
(g58
g59
NtRp1045
(dp1046
g62
(dp1047
g70
I4
ssg71
g1041
sg64
(lp1048
S'/home/gaurav/classwork/WEB_PROGRAMMING/web2py'
p1049
asbasbasbag57
(g73
g59
NtRp1050
(dp1051
g62
(dp1052
sg71
g847
sg64
(lp1053
g57
(g78
g59
NtRp1054
(dp1055
g62
(dp1056
g82
g83
ssg71
g1050
sg64
(lp1057
S'http_accept'
p1058
asbag57
(g78
g59
NtRp1059
(dp1060
g62
(dp1061
g89
g90
ssg71
g1050
sg64
(lp1062
S':'
asbag57
(g78
g59
NtRp1063
(dp1064
g62
(dp1065
sg71
g1050
sg64
(lp1066
g57
(g58
g59
NtRp1067
(dp1068
g62
(dp1069
g70
I4
ssg71
g1063
sg64
(lp1070
S'text/html,application/xhtml+xml,application/xml;q=0.9,*/*;q=0.8'
p1071
asbasbasbag57
(g73
g59
NtRp1072
(dp1073
g62
(dp1074
sg71
g847
sg64
(lp1075
g57
(g78
g59
NtRp1076
(dp1077
g62
(dp1078
g82
g83
ssg71
g1072
sg64
(lp1079
S'http_accept_encoding'
p1080
asbag57
(g78
g59
NtRp1081
(dp1082
g62
(dp1083
g89
g90
ssg71
g1072
sg64
(lp1084
S':'
asbag57
(g78
g59
NtRp1085
(dp1086
g62
(dp1087
sg71
g1072
sg64
(lp1088
g57
(g58
g59
NtRp1089
(dp1090
g62
(dp1091
g70
I4
ssg71
g1085
sg64
(lp1092
S'gzip, deflate'
p1093
asbasbasbag57
(g73
g59
NtRp1094
(dp1095
g62
(dp1096
sg71
g847
sg64
(lp1097
g57
(g78
g59
NtRp1098
(dp1099
g62
(dp1100
g82
g83
ssg71
g1094
sg64
(lp1101
S'http_accept_language'
p1102
asbag57
(g78
g59
NtRp1103
(dp1104
g62
(dp1105
g89
g90
ssg71
g1094
sg64
(lp1106
S':'
asbag57
(g78
g59
NtRp1107
(dp1108
g62
(dp1109
sg71
g1094
sg64
(lp1110
g57
(g58
g59
NtRp1111
(dp1112
g62
(dp1113
g70
I4
ssg71
g1107
sg64
(lp1114
S'en-US,en;q=0.5'
p1115
asbasbasbag57
(g73
g59
NtRp1116
(dp1117
g62
(dp1118
sg71
g847
sg64
(lp1119
g57
(g78
g59
NtRp1120
(dp1121
g62
(dp1122
g82
g83
ssg71
g1116
sg64
(lp1123
S'http_cache_control'
p1124
asbag57
(g78
g59
NtRp1125
(dp1126
g62
(dp1127
g89
g90
ssg71
g1116
sg64
(lp1128
S':'
asbag57
(g78
g59
NtRp1129
(dp1130
g62
(dp1131
sg71
g1116
sg64
(lp1132
g57
(g58
g59
NtRp1133
(dp1134
g62
(dp1135
g70
I4
ssg71
g1129
sg64
(lp1136
S'max-age=0'
p1137
asbasbasbag57
(g73
g59
NtRp1138
(dp1139
g62
(dp1140
sg71
g847
sg64
(lp1141
g57
(g78
g59
NtRp1142
(dp1143
g62
(dp1144
g82
g83
ssg71
g1138
sg64
(lp1145
S'http_connection'
p1146
asbag57
(g78
g59
NtRp1147
(dp1148
g62
(dp1149
g89
g90
ssg71
g1138
sg64
(lp1150
S':'
asbag57
(g78
g59
NtRp1151
(dp1152
g62
(dp1153
sg71
g1138
sg64
(lp1154
g57
(g58
g59
NtRp1155
(dp1156
g62
(dp1157
g70
I4
ssg71
g1151
sg64
(lp1158
S'keep-alive'
p1159
asbasbasbag57
(g73
g59
NtRp1160
(dp1161
g62
(dp1162
sg71
g847
sg64
(lp1163
g57
(g78
g59
NtRp1164
(dp1165
g62
(dp1166
g82
g83
ssg71
g1160
sg64
(lp1167
S'http_content_length'
p1168
asbag57
(g78
g59
NtRp1169
(dp1170
g62
(dp1171
g89
g90
ssg71
g1160
sg64
(lp1172
S':'
asbag57
(g78
g59
NtRp1173
(dp1174
g62
(dp1175
sg71
g1160
sg64
(lp1176
g57
(g58
g59
NtRp1177
(dp1178
g62
(dp1179
g70
I4
ssg71
g1173
sg64
(lp1180
S'4'
asbasbasbag57
(g73
g59
NtRp1181
(dp1182
g62
(dp1183
sg71
g847
sg64
(lp1184
g57
(g78
g59
NtRp1185
(dp1186
g62
(dp1187
g82
g83
ssg71
g1181
sg64
(lp1188
S'http_content_type'
p1189
asbag57
(g78
g59
NtRp1190
(dp1191
g62
(dp1192
g89
g90
ssg71
g1181
sg64
(lp1193
S':'
asbag57
(g78
g59
NtRp1194
(dp1195
g62
(dp1196
sg71
g1181
sg64
(lp1197
g57
(g58
g59
NtRp1198
(dp1199
g62
(dp1200
g70
I4
ssg71
g1194
sg64
(lp1201
g984
asbasbasbag57
(g73
g59
NtRp1202
(dp1203
g62
(dp1204
sg71
g847
sg64
(lp1205
g57
(g78
g59
NtRp1206
(dp1207
g62
(dp1208
g82
g83
ssg71
g1202
sg64
(lp1209
S'http_cookie'
p1210
asbag57
(g78
g59
NtRp1211
(dp1212
g62
(dp1213
g89
g90
ssg71
g1202
sg64
(lp1214
S':'
asbag57
(g78
g59
NtRp1215
(dp1216
g62
(dp1217
sg71
g1202
sg64
(lp1218
g57
(g58
g59
NtRp1219
(dp1220
g62
(dp1221
g70
I4
ssg71
g1215
sg64
(lp1222
S'session_id_welcome=127.0.0.1-3c4c582f-5478-4324-9266-c453ce96a604; session_id_admin=127.0.0.1-42300d3b-177a-485b-80bb-8744966741ee; session_id_onlineexamination=127.0.0.1-890005ee-6292-472c-99ed-b32ea0089194'
p1223
asbasbasbag57
(g73
g59
NtRp1224
(dp1225
g62
(dp1226
sg71
g847
sg64
(lp1227
g57
(g78
g59
NtRp1228
(dp1229
g62
(dp1230
g82
g83
ssg71
g1224
sg64
(lp1231
S'http_host'
p1232
asbag57
(g78
g59
NtRp1233
(dp1234
g62
(dp1235
g89
g90
ssg71
g1224
sg64
(lp1236
S':'
asbag57
(g78
g59
NtRp1237
(dp1238
g62
(dp1239
sg71
g1224
sg64
(lp1240
g57
(g58
g59
NtRp1241
(dp1242
g62
(dp1243
g70
I4
ssg71
g1237
sg64
(lp1244
S'127.0.0.1:8000'
p1245
asbasbasbag57
(g73
g59
NtRp1246
(dp1247
g62
(dp1248
sg71
g847
sg64
(lp1249
g57
(g78
g59
NtRp1250
(dp1251
g62
(dp1252
g82
g83
ssg71
g1246
sg64
(lp1253
S'http_referer'
p1254
asbag57
(g78
g59
NtRp1255
(dp1256
g62
(dp1257
g89
g90
ssg71
g1246
sg64
(lp1258
S':'
asbag57
(g78
g59
NtRp1259
(dp1260
g62
(dp1261
sg71
g1246
sg64
(lp1262
g57
(g58
g59
NtRp1263
(dp1264
g62
(dp1265
g70
I4
ssg71
g1259
sg64
(lp1266
S'http://127.0.0.1:8000/OnlineExamination/default/F1'
p1267
asbasbasbag57
(g73
g59
NtRp1268
(dp1269
g62
(dp1270
sg71
g847
sg64
(lp1271
g57
(g78
g59
NtRp1272
(dp1273
g62
(dp1274
g82
g83
ssg71
g1268
sg64
(lp1275
S'http_user_agent'
p1276
asbag57
(g78
g59
NtRp1277
(dp1278
g62
(dp1279
g89
g90
ssg71
g1268
sg64
(lp1280
S':'
asbag57
(g78
g59
NtRp1281
(dp1282
g62
(dp1283
sg71
g1268
sg64
(lp1284
g57
(g58
g59
NtRp1285
(dp1286
g62
(dp1287
g70
I4
ssg71
g1281
sg64
(lp1288
S'Mozilla/5.0 (X11; Ubuntu; Linux i686; rv:16.0) Gecko/20100101 Firefox/16.0'
p1289
asbasbasbag57
(g73
g59
NtRp1290
(dp1291
g62
(dp1292
sg71
g847
sg64
(lp1293
g57
(g78
g59
NtRp1294
(dp1295
g62
(dp1296
g82
g83
ssg71
g1290
sg64
(lp1297
S'is_jython'
p1298
asbag57
(g78
g59
NtRp1299
(dp1300
g62
(dp1301
g89
g90
ssg71
g1290
sg64
(lp1302
S':'
asbag57
(g78
g59
NtRp1303
(dp1304
g62
(dp1305
sg71
g1290
sg64
(lp1306
g57
(g58
g59
NtRp1307
(dp1308
g62
(dp1309
g70
I4
ssg71
g1303
sg64
(lp1310
g100
asbasbasbag57
(g73
g59
NtRp1311
(dp1312
g62
(dp1313
sg71
g847
sg64
(lp1314
g57
(g78
g59
NtRp1315
(dp1316
g62
(dp1317
g82
g83
ssg71
g1311
sg64
(lp1318
S'is_pypy'
p1319
asbag57
(g78
g59
NtRp1320
(dp1321
g62
(dp1322
g89
g90
ssg71
g1311
sg64
(lp1323
S':'
asbag57
(g78
g59
NtRp1324
(dp1325
g62
(dp1326
sg71
g1311
sg64
(lp1327
g57
(g58
g59
NtRp1328
(dp1329
g62
(dp1330
g70
I4
ssg71
g1324
sg64
(lp1331
g100
asbasbasbag57
(g73
g59
NtRp1332
(dp1333
g62
(dp1334
sg71
g847
sg64
(lp1335
g57
(g78
g59
NtRp1336
(dp1337
g62
(dp1338
g82
g83
ssg71
g1332
sg64
(lp1339
S'local_hosts'
p1340
asbag57
(g78
g59
NtRp1341
(dp1342
g62
(dp1343
g89
g90
ssg71
g1332
sg64
(lp1344
S':'
asbag57
(g78
g59
NtRp1345
(dp1346
g62
(dp1347
sg71
g1332
sg64
(lp1348
g57
(g58
g59
NtRp1349
(dp1350
g62
(dp1351
g70
I4
ssg71
g1345
sg64
(lp1352
g57
(g66
g59
NtRp1353
(dp1354
g62
(dp1355
g70
I3
ssg71
Nsg64
(lp1356
g57
(g73
g59
NtRp1357
(dp1358
g62
(dp1359
sg71
g1353
sg64
(lp1360
g57
(g78
g59
NtRp1361
(dp1362
g62
(dp1363
sg71
g1357
sg64
(lp1364
g57
(g58
g59
NtRp1365
(dp1366
g62
(dp1367
g70
I3
ssg71
g1361
sg64
(lp1368
S'gaurav-Compaq-Presario-C700-Notebook-PC'
p1369
asbasbasbag57
(g73
g59
NtRp1370
(dp1371
g62
(dp1372
sg71
g1353
sg64
(lp1373
g57
(g78
g59
NtRp1374
(dp1375
g62
(dp1376
sg71
g1370
sg64
(lp1377
g57
(g58
g59
NtRp1378
(dp1379
g62
(dp1380
g70
I3
ssg71
g1374
sg64
(lp1381
S'::1'
p1382
asbasbasbag57
(g73
g59
NtRp1383
(dp1384
g62
(dp1385
sg71
g1353
sg64
(lp1386
g57
(g78
g59
NtRp1387
(dp1388
g62
(dp1389
sg71
g1383
sg64
(lp1390
g57
(g58
g59
NtRp1391
(dp1392
g62
(dp1393
g70
I3
ssg71
g1387
sg64
(lp1394
S'127.0.1.1'
p1395
asbasbasbag57
(g73
g59
NtRp1396
(dp1397
g62
(dp1398
sg71
g1353
sg64
(lp1399
g57
(g78
g59
NtRp1400
(dp1401
g62
(dp1402
sg71
g1396
sg64
(lp1403
g57
(g58
g59
NtRp1404
(dp1405
g62
(dp1406
g70
I3
ssg71
g1400
sg64
(lp1407
S'::ffff:127.0.0.1'
p1408
asbasbasbag57
(g73
g59
NtRp1409
(dp1410
g62
(dp1411
sg71
g1353
sg64
(lp1412
g57
(g78
g59
NtRp1413
(dp1414
g62
(dp1415
sg71
g1409
sg64
(lp1416
g57
(g58
g59
NtRp1417
(dp1418
g62
(dp1419
g70
I3
ssg71
g1413
sg64
(lp1420
S'127.0.0.1'
p1421
asbasbasbasbasbasbasbag57
(g73
g59
NtRp1422
(dp1423
g62
(dp1424
sg71
g847
sg64
(lp1425
g57
(g78
g59
NtRp1426
(dp1427
g62
(dp1428
g82
g83
ssg71
g1422
sg64
(lp1429
S'path_info'
p1430
asbag57
(g78
g59
NtRp1431
(dp1432
g62
(dp1433
g89
g90
ssg71
g1422
sg64
(lp1434
S':'
asbag57
(g78
g59
NtRp1435
(dp1436
g62
(dp1437
sg71
g1422
sg64
(lp1438
g57
(g58
g59
NtRp1439
(dp1440
g62
(dp1441
g70
I4
ssg71
g1435
sg64
(lp1442
S'/OnlineExamination/default/F2'
p1443
asbasbasbag57
(g73
g59
NtRp1444
(dp1445
g62
(dp1446
sg71
g847
sg64
(lp1447
g57
(g78
g59
NtRp1448
(dp1449
g62
(dp1450
g82
g83
ssg71
g1444
sg64
(lp1451
S'query_string'
p1452
asbag57
(g78
g59
NtRp1453
(dp1454
g62
(dp1455
g89
g90
ssg71
g1444
sg64
(lp1456
S':'
asbag57
(g78
g59
NtRp1457
(dp1458
g62
(dp1459
sg71
g1444
sg64
(lp1460
g57
(g58
g59
NtRp1461
(dp1462
g62
(dp1463
g70
I4
ssg71
g1457
sg64
(lp1464
S''
asbasbasbag57
(g73
g59
NtRp1465
(dp1466
g62
(dp1467
sg71
g847
sg64
(lp1468
g57
(g78
g59
NtRp1469
(dp1470
g62
(dp1471
g82
g83
ssg71
g1465
sg64
(lp1472
S'remote_addr'
p1473
asbag57
(g78
g59
NtRp1474
(dp1475
g62
(dp1476
g89
g90
ssg71
g1465
sg64
(lp1477
S':'
asbag57
(g78
g59
NtRp1478
(dp1479
g62
(dp1480
sg71
g1465
sg64
(lp1481
g57
(g58
g59
NtRp1482
(dp1483
g62
(dp1484
g70
I4
ssg71
g1478
sg64
(lp1485
g212
asbasbasbag57
(g73
g59
NtRp1486
(dp1487
g62
(dp1488
sg71
g847
sg64
(lp1489
g57
(g78
g59
NtRp1490
(dp1491
g62
(dp1492
g82
g83
ssg71
g1486
sg64
(lp1493
S'remote_port'
p1494
asbag57
(g78
g59
NtRp1495
(dp1496
g62
(dp1497
g89
g90
ssg71
g1486
sg64
(lp1498
S':'
asbag57
(g78
g59
NtRp1499
(dp1500
g62
(dp1501
sg71
g1486
sg64
(lp1502
g57
(g58
g59
NtRp1503
(dp1504
g62
(dp1505
g70
I4
ssg71
g1499
sg64
(lp1506
S'57403'
p1507
asbasbasbag57
(g73
g59
NtRp1508
(dp1509
g62
(dp1510
sg71
g847
sg64
(lp1511
g57
(g78
g59
NtRp1512
(dp1513
g62
(dp1514
g82
g83
ssg71
g1508
sg64
(lp1515
S'request_method'
p1516
asbag57
(g78
g59
NtRp1517
(dp1518
g62
(dp1519
g89
g90
ssg71
g1508
sg64
(lp1520
S':'
asbag57
(g78
g59
NtRp1521
(dp1522
g62
(dp1523
sg71
g1508
sg64
(lp1524
g57
(g58
g59
NtRp1525
(dp1526
g62
(dp1527
g70
I4
ssg71
g1521
sg64
(lp1528
S'POST'
p1529
asbasbasbag57
(g73
g59
NtRp1530
(dp1531
g62
(dp1532
sg71
g847
sg64
(lp1533
g57
(g78
g59
NtRp1534
(dp1535
g62
(dp1536
g82
g83
ssg71
g1530
sg64
(lp1537
S'request_uri'
p1538
asbag57
(g78
g59
NtRp1539
(dp1540
g62
(dp1541
g89
g90
ssg71
g1530
sg64
(lp1542
S':'
asbag57
(g78
g59
NtRp1543
(dp1544
g62
(dp1545
sg71
g1530
sg64
(lp1546
g57
(g58
g59
NtRp1547
(dp1548
g62
(dp1549
g70
I4
ssg71
g1543
sg64
(lp1550
g1443
asbasbasbag57
(g73
g59
NtRp1551
(dp1552
g62
(dp1553
sg71
g847
sg64
(lp1554
g57
(g78
g59
NtRp1555
(dp1556
g62
(dp1557
g82
g83
ssg71
g1551
sg64
(lp1558
S'script_name'
p1559
asbag57
(g78
g59
NtRp1560
(dp1561
g62
(dp1562
g89
g90
ssg71
g1551
sg64
(lp1563
S':'
asbag57
(g78
g59
NtRp1564
(dp1565
g62
(dp1566
sg71
g1551
sg64
(lp1567
g57
(g58
g59
NtRp1568
(dp1569
g62
(dp1570
g70
I4
ssg71
g1564
sg64
(lp1571
S''
asbasbasbag57
(g73
g59
NtRp1572
(dp1573
g62
(dp1574
sg71
g847
sg64
(lp1575
g57
(g78
g59
NtRp1576
(dp1577
g62
(dp1578
g82
g83
ssg71
g1572
sg64
(lp1579
S'server_name'
p1580
asbag57
(g78
g59
NtRp1581
(dp1582
g62
(dp1583
g89
g90
ssg71
g1572
sg64
(lp1584
S':'
asbag57
(g78
g59
NtRp1585
(dp1586
g62
(dp1587
sg71
g1572
sg64
(lp1588
g57
(g58
g59
NtRp1589
(dp1590
g62
(dp1591
g70
I4
ssg71
g1585
sg64
(lp1592
S'gaurav-Compaq-Presario-C700-Notebook-PC'
p1593
asbasbasbag57
(g73
g59
NtRp1594
(dp1595
g62
(dp1596
sg71
g847
sg64
(lp1597
g57
(g78
g59
NtRp1598
(dp1599
g62
(dp1600
g82
g83
ssg71
g1594
sg64
(lp1601
S'server_port'
p1602
asbag57
(g78
g59
NtRp1603
(dp1604
g62
(dp1605
g89
g90
ssg71
g1594
sg64
(lp1606
S':'
asbag57
(g78
g59
NtRp1607
(dp1608
g62
(dp1609
sg71
g1594
sg64
(lp1610
g57
(g58
g59
NtRp1611
(dp1612
g62
(dp1613
g70
I4
ssg71
g1607
sg64
(lp1614
S'8000'
p1615
asbasbasbag57
(g73
g59
NtRp1616
(dp1617
g62
(dp1618
sg71
g847
sg64
(lp1619
g57
(g78
g59
NtRp1620
(dp1621
g62
(dp1622
g82
g83
ssg71
g1616
sg64
(lp1623
S'server_protocol'
p1624
asbag57
(g78
g59
NtRp1625
(dp1626
g62
(dp1627
g89
g90
ssg71
g1616
sg64
(lp1628
S':'
asbag57
(g78
g59
NtRp1629
(dp1630
g62
(dp1631
sg71
g1616
sg64
(lp1632
g57
(g58
g59
NtRp1633
(dp1634
g62
(dp1635
g70
I4
ssg71
g1629
sg64
(lp1636
S'HTTP/1.1'
p1637
asbasbasbag57
(g73
g59
NtRp1638
(dp1639
g62
(dp1640
sg71
g847
sg64
(lp1641
g57
(g78
g59
NtRp1642
(dp1643
g62
(dp1644
g82
g83
ssg71
g1638
sg64
(lp1645
S'server_software'
p1646
asbag57
(g78
g59
NtRp1647
(dp1648
g62
(dp1649
g89
g90
ssg71
g1638
sg64
(lp1650
S':'
asbag57
(g78
g59
NtRp1651
(dp1652
g62
(dp1653
sg71
g1638
sg64
(lp1654
g57
(g58
g59
NtRp1655
(dp1656
g62
(dp1657
g70
I4
ssg71
g1651
sg64
(lp1658
S'Rocket 1.2.6'
p1659
asbasbasbag57
(g73
g59
NtRp1660
(dp1661
g62
(dp1662
sg71
g847
sg64
(lp1663
g57
(g78
g59
NtRp1664
(dp1665
g62
(dp1666
g82
g83
ssg71
g1660
sg64
(lp1667
S'web2py_path'
p1668
asbag57
(g78
g59
NtRp1669
(dp1670
g62
(dp1671
g89
g90
ssg71
g1660
sg64
(lp1672
S':'
asbag57
(g78
g59
NtRp1673
(dp1674
g62
(dp1675
sg71
g1660
sg64
(lp1676
g57
(g58
g59
NtRp1677
(dp1678
g62
(dp1679
g70
I4
ssg71
g1673
sg64
(lp1680
g894
asbasbasbag57
(g73
g59
NtRp1681
(dp1682
g62
(dp1683
sg71
g847
sg64
(lp1684
g57
(g78
g59
NtRp1685
(dp1686
g62
(dp1687
g82
g83
ssg71
g1681
sg64
(lp1688
S'web2py_version'
p1689
asbag57
(g78
g59
NtRp1690
(dp1691
g62
(dp1692
g89
g90
ssg71
g1681
sg64
(lp1693
S':'
asbag57
(g78
g59
NtRp1694
(dp1695
g62
(dp1696
sg71
g1681
sg64
(lp1697
g57
(g58
g59
NtRp1698
(dp1699
g62
(dp1700
g70
I4
ssg71
g1694
sg64
(lp1701
g57
(g66
g59
NtRp1702
(dp1703
g62
(dp1704
g70
I3
ssg71
Nsg64
(lp1705
g57
(g73
g59
NtRp1706
(dp1707
g62
(dp1708
sg71
g1702
sg64
(lp1709
g57
(g78
g59
NtRp1710
(dp1711
g62
(dp1712
sg71
g1706
sg64
(lp1713
g57
(g58
g59
NtRp1714
(dp1715
g62
(dp1716
g70
I3
ssg71
g1710
sg64
(lp1717
S'2'
asbasbasbag57
(g73
g59
NtRp1718
(dp1719
g62
(dp1720
sg71
g1702
sg64
(lp1721
g57
(g78
g59
NtRp1722
(dp1723
g62
(dp1724
sg71
g1718
sg64
(lp1725
g57
(g58
g59
NtRp1726
(dp1727
g62
(dp1728
g70
I3
ssg71
g1722
sg64
(lp1729
S'3'
asbasbasbag57
(g73
g59
NtRp1730
(dp1731
g62
(dp1732
sg71
g1702
sg64
(lp1733
g57
(g78
g59
NtRp1734
(dp1735
g62
(dp1736
sg71
g1730
sg64
(lp1737
g57
(g58
g59
NtRp1738
(dp1739
g62
(dp1740
g70
I3
ssg71
g1734
sg64
(lp1741
S'2'
asbasbasbag57
(g73
g59
NtRp1742
(dp1743
g62
(dp1744
sg71
g1702
sg64
(lp1745
g57
(g78
g59
NtRp1746
(dp1747
g62
(dp1748
sg71
g1742
sg64
(lp1749
g57
(g58
g59
NtRp1750
(dp1751
g62
(dp1752
g70
I3
ssg71
g1746
sg64
(lp1753
S'datetime.datetime(2012, 12, 17, 15, 3, 30)'
p1754
asbasbasbag57
(g73
g59
NtRp1755
(dp1756
g62
(dp1757
sg71
g1702
sg64
(lp1758
g57
(g78
g59
NtRp1759
(dp1760
g62
(dp1761
sg71
g1755
sg64
(lp1762
g57
(g58
g59
NtRp1763
(dp1764
g62
(dp1765
g70
I3
ssg71
g1759
sg64
(lp1766
S'stable'
p1767
asbasbasbasbasbasbasbag57
(g73
g59
NtRp1768
(dp1769
g62
(dp1770
sg71
g847
sg64
(lp1771
g57
(g78
g59
NtRp1772
(dp1773
g62
(dp1774
g82
g83
ssg71
g1768
sg64
(lp1775
S'wsgi_errors'
p1776
asbag57
(g78
g59
NtRp1777
(dp1778
g62
(dp1779
g89
g90
ssg71
g1768
sg64
(lp1780
S':'
asbag57
(g78
g59
NtRp1781
(dp1782
g62
(dp1783
sg71
g1768
sg64
(lp1784
g57
(g58
g59
NtRp1785
(dp1786
g62
(dp1787
g70
I4
ssg71
g1781
sg64
(lp1788
S"<open file '<stderr>', mode 'w' at 0xb75540d0>"
p1789
asbasbasbag57
(g73
g59
NtRp1790
(dp1791
g62
(dp1792
sg71
g847
sg64
(lp1793
g57
(g78
g59
NtRp1794
(dp1795
g62
(dp1796
g82
g83
ssg71
g1790
sg64
(lp1797
S'wsgi_file_wrapper'
p1798
asbag57
(g78
g59
NtRp1799
(dp1800
g62
(dp1801
g89
g90
ssg71
g1790
sg64
(lp1802
S':'
asbag57
(g78
g59
NtRp1803
(dp1804
g62
(dp1805
sg71
g1790
sg64
(lp1806
g57
(g58
g59
NtRp1807
(dp1808
g62
(dp1809
g70
I4
ssg71
g1803
sg64
(lp1810
S'<class wsgiref.util.FileWrapper at 0xa5b8ecc>'
p1811
asbasbasbag57
(g73
g59
NtRp1812
(dp1813
g62
(dp1814
sg71
g847
sg64
(lp1815
g57
(g78
g59
NtRp1816
(dp1817
g62
(dp1818
g82
g83
ssg71
g1812
sg64
(lp1819
S'wsgi_input'
p1820
asbag57
(g78
g59
NtRp1821
(dp1822
g62
(dp1823
g89
g90
ssg71
g1812
sg64
(lp1824
S':'
asbag57
(g78
g59
NtRp1825
(dp1826
g62
(dp1827
sg71
g1812
sg64
(lp1828
g57
(g58
g59
NtRp1829
(dp1830
g62
(dp1831
g70
I4
ssg71
g1825
sg64
(lp1832
S'<socket._fileobject object at 0xac26cac>'
p1833
asbasbasbag57
(g73
g59
NtRp1834
(dp1835
g62
(dp1836
sg71
g847
sg64
(lp1837
g57
(g78
g59
NtRp1838
(dp1839
g62
(dp1840
g82
g83
ssg71
g1834
sg64
(lp1841
S'wsgi_multiprocess'
p1842
asbag57
(g78
g59
NtRp1843
(dp1844
g62
(dp1845
g89
g90
ssg71
g1834
sg64
(lp1846
S':'
asbag57
(g78
g59
NtRp1847
(dp1848
g62
(dp1849
sg71
g1834
sg64
(lp1850
g57
(g58
g59
NtRp1851
(dp1852
g62
(dp1853
g70
I4
ssg71
g1847
sg64
(lp1854
g100
asbasbasbag57
(g73
g59
NtRp1855
(dp1856
g62
(dp1857
sg71
g847
sg64
(lp1858
g57
(g78
g59
NtRp1859
(dp1860
g62
(dp1861
g82
g83
ssg71
g1855
sg64
(lp1862
S'wsgi_multithread'
p1863
asbag57
(g78
g59
NtRp1864
(dp1865
g62
(dp1866
g89
g90
ssg71
g1855
sg64
(lp1867
S':'
asbag57
(g78
g59
NtRp1868
(dp1869
g62
(dp1870
sg71
g1855
sg64
(lp1871
g57
(g58
g59
NtRp1872
(dp1873
g62
(dp1874
g70
I4
ssg71
g1868
sg64
(lp1875
S'True'
p1876
asbasbasbag57
(g73
g59
NtRp1877
(dp1878
g62
(dp1879
sg71
g847
sg64
(lp1880
g57
(g78
g59
NtRp1881
(dp1882
g62
(dp1883
g82
g83
ssg71
g1877
sg64
(lp1884
S'wsgi_run_once'
p1885
asbag57
(g78
g59
NtRp1886
(dp1887
g62
(dp1888
g89
g90
ssg71
g1877
sg64
(lp1889
S':'
asbag57
(g78
g59
NtRp1890
(dp1891
g62
(dp1892
sg71
g1877
sg64
(lp1893
g57
(g58
g59
NtRp1894
(dp1895
g62
(dp1896
g70
I4
ssg71
g1890
sg64
(lp1897
g100
asbasbasbag57
(g73
g59
NtRp1898
(dp1899
g62
(dp1900
sg71
g847
sg64
(lp1901
g57
(g78
g59
NtRp1902
(dp1903
g62
(dp1904
g82
g83
ssg71
g1898
sg64
(lp1905
S'wsgi_url_scheme'
p1906
asbag57
(g78
g59
NtRp1907
(dp1908
g62
(dp1909
g89
g90
ssg71
g1898
sg64
(lp1910
S':'
asbag57
(g78
g59
NtRp1911
(dp1912
g62
(dp1913
sg71
g1898
sg64
(lp1914
g57
(g58
g59
NtRp1915
(dp1916
g62
(dp1917
g70
I4
ssg71
g1911
sg64
(lp1918
S'http'
p1919
asbasbasbag57
(g73
g59
NtRp1920
(dp1921
g62
(dp1922
sg71
g847
sg64
(lp1923
g57
(g78
g59
NtRp1924
(dp1925
g62
(dp1926
g82
g83
ssg71
g1920
sg64
(lp1927
S'wsgi_version'
p1928
asbag57
(g78
g59
NtRp1929
(dp1930
g62
(dp1931
g89
g90
ssg71
g1920
sg64
(lp1932
S':'
asbag57
(g78
g59
NtRp1933
(dp1934
g62
(dp1935
sg71
g1920
sg64
(lp1936
g57
(g58
g59
NtRp1937
(dp1938
g62
(dp1939
g70
I4
ssg71
g1933
sg64
(lp1940
g57
(g66
g59
NtRp1941
(dp1942
g62
(dp1943
g70
I3
ssg71
Nsg64
(lp1944
g57
(g73
g59
NtRp1945
(dp1946
g62
(dp1947
sg71
g1941
sg64
(lp1948
g57
(g78
g59
NtRp1949
(dp1950
g62
(dp1951
sg71
g1945
sg64
(lp1952
g57
(g58
g59
NtRp1953
(dp1954
g62
(dp1955
g70
I3
ssg71
g1949
sg64
(lp1956
S'1'
asbasbasbag57
(g73
g59
NtRp1957
(dp1958
g62
(dp1959
sg71
g1941
sg64
(lp1960
g57
(g78
g59
NtRp1961
(dp1962
g62
(dp1963
sg71
g1957
sg64
(lp1964
g57
(g58
g59
NtRp1965
(dp1966
g62
(dp1967
g70
I3
ssg71
g1961
sg64
(lp1968
S'0'
asbasbasbasbasbasbasbasbasbasbasbag57
(g73
g59
NtRp1969
(dp1970
g62
(dp1971
sg71
g67
sg64
(lp1972
g57
(g78
g59
NtRp1973
(dp1974
g62
(dp1975
g82
g83
ssg71
g1969
sg64
(lp1976
S'extension'
p1977
asbag57
(g78
g59
NtRp1978
(dp1979
g62
(dp1980
g89
g90
ssg71
g1969
sg64
(lp1981
S':'
asbag57
(g78
g59
NtRp1982
(dp1983
g62
(dp1984
sg71
g1969
sg64
(lp1985
g57
(g58
g59
NtRp1986
(dp1987
g62
(dp1988
g70
I5
ssg71
g1982
sg64
(lp1989
S'html'
p1990
asbasbasbag57
(g73
g59
NtRp1991
(dp1992
g62
(dp1993
sg71
g67
sg64
(lp1994
g57
(g78
g59
NtRp1995
(dp1996
g62
(dp1997
g82
g83
ssg71
g1991
sg64
(lp1998
S'folder'
p1999
asbag57
(g78
g59
NtRp2000
(dp2001
g62
(dp2002
g89
g90
ssg71
g1991
sg64
(lp2003
S':'
asbag57
(g78
g59
NtRp2004
(dp2005
g62
(dp2006
sg71
g1991
sg64
(lp2007
g57
(g58
g59
NtRp2008
(dp2009
g62
(dp2010
g70
I5
ssg71
g2004
sg64
(lp2011
S'/home/gaurav/classwork/WEB_PROGRAMMING/web2py/applications/OnlineExamination/'
p2012
asbasbasbag57
(g73
g59
NtRp2013
(dp2014
g62
(dp2015
sg71
g67
sg64
(lp2016
g57
(g78
g59
NtRp2017
(dp2018
g62
(dp2019
g82
g83
ssg71
g2013
sg64
(lp2020
S'function'
p2021
asbag57
(g78
g59
NtRp2022
(dp2023
g62
(dp2024
g89
g90
ssg71
g2013
sg64
(lp2025
S':'
asbag57
(g78
g59
NtRp2026
(dp2027
g62
(dp2028
sg71
g2013
sg64
(lp2029
g57
(g58
g59
NtRp2030
(dp2031
g62
(dp2032
g70
I5
ssg71
g2026
sg64
(lp2033
S'F2'
p2034
asbasbasbag57
(g73
g59
NtRp2035
(dp2036
g62
(dp2037
sg71
g67
sg64
(lp2038
g57
(g78
g59
NtRp2039
(dp2040
g62
(dp2041
g82
g83
ssg71
g2035
sg64
(lp2042
S'get_vars'
p2043
asbag57
(g78
g59
NtRp2044
(dp2045
g62
(dp2046
g89
g90
ssg71
g2035
sg64
(lp2047
S':'
asbag57
(g78
g59
NtRp2048
(dp2049
g62
(dp2050
sg71
g2035
sg64
(lp2051
g57
(g58
g59
NtRp2052
(dp2053
g62
(dp2054
g70
I5
ssg71
g2048
sg64
(lp2055
g57
(g66
g59
NtRp2056
(dp2057
g62
(dp2058
g70
I4
ssg71
Nsg64
(lp2059
sbasbasbasbag57
(g73
g59
NtRp2060
(dp2061
g62
(dp2062
sg71
g67
sg64
(lp2063
g57
(g78
g59
NtRp2064
(dp2065
g62
(dp2066
g82
g83
ssg71
g2060
sg64
(lp2067
S'global_settings'
p2068
asbag57
(g78
g59
NtRp2069
(dp2070
g62
(dp2071
g89
g90
ssg71
g2060
sg64
(lp2072
S':'
asbag57
(g78
g59
NtRp2073
(dp2074
g62
(dp2075
sg71
g2060
sg64
(lp2076
g57
(g58
g59
NtRp2077
(dp2078
g62
(dp2079
g70
I5
ssg71
g2073
sg64
(lp2080
g57
(g66
g59
NtRp2081
(dp2082
g62
(dp2083
g70
I4
ssg71
Nsg64
(lp2084
g57
(g73
g59
NtRp2085
(dp2086
g62
(dp2087
sg71
g2081
sg64
(lp2088
g57
(g78
g59
NtRp2089
(dp2090
g62
(dp2091
g82
g83
ssg71
g2085
sg64
(lp2092
g859
asbag57
(g78
g59
NtRp2093
(dp2094
g62
(dp2095
g89
g90
ssg71
g2085
sg64
(lp2096
S':'
asbag57
(g78
g59
NtRp2097
(dp2098
g62
(dp2099
sg71
g2085
sg64
(lp2100
g57
(g58
g59
NtRp2101
(dp2102
g62
(dp2103
g70
I4
ssg71
g2097
sg64
(lp2104
S"set(['/home/gaurav/classwork/WEB_PROGRAMMING/web2py/applications/OnlineExamination/', '/home/gaurav/classwork/WEB_PROGRAMMING/web2py/applications/admin/', '/home/gaurav/classwork/WEB_PROGRAMMING/web2py/applications/welcome/'])"
p2105
asbasbasbag57
(g73
g59
NtRp2106
(dp2107
g62
(dp2108
sg71
g2081
sg64
(lp2109
g57
(g78
g59
NtRp2110
(dp2111
g62
(dp2112
g82
g83
ssg71
g2106
sg64
(lp2113
g881
asbag57
(g78
g59
NtRp2114
(dp2115
g62
(dp2116
g89
g90
ssg71
g2106
sg64
(lp2117
S':'
asbag57
(g78
g59
NtRp2118
(dp2119
g62
(dp2120
sg71
g2106
sg64
(lp2121
g57
(g58
g59
NtRp2122
(dp2123
g62
(dp2124
g70
I4
ssg71
g2118
sg64
(lp2125
g894
asbasbasbag57
(g73
g59
NtRp2126
(dp2127
g62
(dp2128
sg71
g2081
sg64
(lp2129
g57
(g78
g59
NtRp2130
(dp2131
g62
(dp2132
g82
g83
ssg71
g2126
sg64
(lp2133
g903
asbag57
(g78
g59
NtRp2134
(dp2135
g62
(dp2136
g89
g90
ssg71
g2126
sg64
(lp2137
S':'
asbag57
(g78
g59
NtRp2138
(dp2139
g62
(dp2140
sg71
g2126
sg64
(lp2141
g57
(g58
g59
NtRp2142
(dp2143
g62
(dp2144
g70
I4
ssg71
g2138
sg64
(lp2145
g57
(g66
g59
NtRp2146
(dp2147
g62
(dp2148
g70
I3
ssg71
Nsg64
(lp2149
sbasbasbasbag57
(g73
g59
NtRp2150
(dp2151
g62
(dp2152
sg71
g2081
sg64
(lp2153
g57
(g78
g59
NtRp2154
(dp2155
g62
(dp2156
g82
g83
ssg71
g2150
sg64
(lp2157
g928
asbag57
(g78
g59
NtRp2158
(dp2159
g62
(dp2160
g89
g90
ssg71
g2150
sg64
(lp2161
S':'
asbag57
(g78
g59
NtRp2162
(dp2163
g62
(dp2164
sg71
g2150
sg64
(lp2165
g57
(g58
g59
NtRp2166
(dp2167
g62
(dp2168
g70
I4
ssg71
g2162
sg64
(lp2169
S"<Values at 0xa6066ec: {'verbose': False, 'ip': '127.0.0.1', 'with_scheduler': False, 'ips': [], 'shutdown_timeout': 5, 'taskbar': False, 'port': 8000, 'maxthreads': None, 'softcron': False, 'server_name': 'gaurav-Compaq-Presario-C700-Notebook-PC', 'bpython': False, 'nogui': False, 'pid_filename': 'httpserver.pid', 'extcron': False, 'runcron': False, 'run_system_tests': False, 'test': None, 'folder': '/home/gaurav/classwork/WEB_PROGRAMMING/web2py', 'config': '', 'import_models': False, 'winservice': '', 'shell': None, 'run': '', 'log_filename': 'httpserver.log', 'debuglevel': 30, 'args': [''], 'socket_timeout': 5, 'ssl_ca_certificate': None, 'scheduler': None, 'profiler_filename': None, 'ssl_private_key': '', 'scheduler_groups': None, 'password': '<ask>', 'request_queue_size': 5, 'ssl_certificate': '', 'cronjob': False, 'numthreads': None, 'quiet': False, 'interfaces': None, 'minthreads': None, 'timeout': 10, 'plain': False, 'nobanner': False}>"
p2170
asbasbasbag57
(g73
g59
NtRp2171
(dp2172
g62
(dp2173
sg71
g2081
sg64
(lp2174
g57
(g78
g59
NtRp2175
(dp2176
g62
(dp2177
g82
g83
ssg71
g2171
sg64
(lp2178
g993
asbag57
(g78
g59
NtRp2179
(dp2180
g62
(dp2181
g89
g90
ssg71
g2171
sg64
(lp2182
S':'
asbag57
(g78
g59
NtRp2183
(dp2184
g62
(dp2185
sg71
g2171
sg64
(lp2186
g57
(g58
g59
NtRp2187
(dp2188
g62
(dp2189
g70
I4
ssg71
g2183
sg64
(lp2190
S'set([])'
p2191
asbasbasbag57
(g73
g59
NtRp2192
(dp2193
g62
(dp2194
sg71
g2081
sg64
(lp2195
g57
(g78
g59
NtRp2196
(dp2197
g62
(dp2198
g82
g83
ssg71
g2192
sg64
(lp2199
g1015
asbag57
(g78
g59
NtRp2200
(dp2201
g62
(dp2202
g89
g90
ssg71
g2192
sg64
(lp2203
S':'
asbag57
(g78
g59
NtRp2204
(dp2205
g62
(dp2206
sg71
g2192
sg64
(lp2207
g57
(g58
g59
NtRp2208
(dp2209
g62
(dp2210
g70
I4
ssg71
g2204
sg64
(lp2211
g100
asbasbasbag57
(g73
g59
NtRp2212
(dp2213
g62
(dp2214
sg71
g2081
sg64
(lp2215
g57
(g78
g59
NtRp2216
(dp2217
g62
(dp2218
g82
g83
ssg71
g2212
sg64
(lp2219
g1036
asbag57
(g78
g59
NtRp2220
(dp2221
g62
(dp2222
g89
g90
ssg71
g2212
sg64
(lp2223
S':'
asbag57
(g78
g59
NtRp2224
(dp2225
g62
(dp2226
sg71
g2212
sg64
(lp2227
g57
(g58
g59
NtRp2228
(dp2229
g62
(dp2230
g70
I4
ssg71
g2224
sg64
(lp2231
g1049
asbasbasbag57
(g73
g59
NtRp2232
(dp2233
g62
(dp2234
sg71
g2081
sg64
(lp2235
g57
(g78
g59
NtRp2236
(dp2237
g62
(dp2238
g82
g83
ssg71
g2232
sg64
(lp2239
g1298
asbag57
(g78
g59
NtRp2240
(dp2241
g62
(dp2242
g89
g90
ssg71
g2232
sg64
(lp2243
S':'
asbag57
(g78
g59
NtRp2244
(dp2245
g62
(dp2246
sg71
g2232
sg64
(lp2247
g57
(g58
g59
NtRp2248
(dp2249
g62
(dp2250
g70
I4
ssg71
g2244
sg64
(lp2251
g100
asbasbasbag57
(g73
g59
NtRp2252
(dp2253
g62
(dp2254
sg71
g2081
sg64
(lp2255
g57
(g78
g59
NtRp2256
(dp2257
g62
(dp2258
g82
g83
ssg71
g2252
sg64
(lp2259
g1319
asbag57
(g78
g59
NtRp2260
(dp2261
g62
(dp2262
g89
g90
ssg71
g2252
sg64
(lp2263
S':'
asbag57
(g78
g59
NtRp2264
(dp2265
g62
(dp2266
sg71
g2252
sg64
(lp2267
g57
(g58
g59
NtRp2268
(dp2269
g62
(dp2270
g70
I4
ssg71
g2264
sg64
(lp2271
g100
asbasbasbag57
(g73
g59
NtRp2272
(dp2273
g62
(dp2274
sg71
g2081
sg64
(lp2275
g57
(g78
g59
NtRp2276
(dp2277
g62
(dp2278
g82
g83
ssg71
g2272
sg64
(lp2279
g1340
asbag57
(g78
g59
NtRp2280
(dp2281
g62
(dp2282
g89
g90
ssg71
g2272
sg64
(lp2283
S':'
asbag57
(g78
g59
NtRp2284
(dp2285
g62
(dp2286
sg71
g2272
sg64
(lp2287
g57
(g58
g59
NtRp2288
(dp2289
g62
(dp2290
g70
I4
ssg71
g2284
sg64
(lp2291
g57
(g66
g59
NtRp2292
(dp2293
g62
(dp2294
g70
I3
ssg71
Nsg64
(lp2295
g57
(g73
g59
NtRp2296
(dp2297
g62
(dp2298
sg71
g2292
sg64
(lp2299
g57
(g78
g59
NtRp2300
(dp2301
g62
(dp2302
sg71
g2296
sg64
(lp2303
g57
(g58
g59
NtRp2304
(dp2305
g62
(dp2306
g70
I3
ssg71
g2300
sg64
(lp2307
g1369
asbasbasbag57
(g73
g59
NtRp2308
(dp2309
g62
(dp2310
sg71
g2292
sg64
(lp2311
g57
(g78
g59
NtRp2312
(dp2313
g62
(dp2314
sg71
g2308
sg64
(lp2315
g57
(g58
g59
NtRp2316
(dp2317
g62
(dp2318
g70
I3
ssg71
g2312
sg64
(lp2319
g1382
asbasbasbag57
(g73
g59
NtRp2320
(dp2321
g62
(dp2322
sg71
g2292
sg64
(lp2323
g57
(g78
g59
NtRp2324
(dp2325
g62
(dp2326
sg71
g2320
sg64
(lp2327
g57
(g58
g59
NtRp2328
(dp2329
g62
(dp2330
g70
I3
ssg71
g2324
sg64
(lp2331
g1395
asbasbasbag57
(g73
g59
NtRp2332
(dp2333
g62
(dp2334
sg71
g2292
sg64
(lp2335
g57
(g78
g59
NtRp2336
(dp2337
g62
(dp2338
sg71
g2332
sg64
(lp2339
g57
(g58
g59
NtRp2340
(dp2341
g62
(dp2342
g70
I3
ssg71
g2336
sg64
(lp2343
g1408
asbasbasbag57
(g73
g59
NtRp2344
(dp2345
g62
(dp2346
sg71
g2292
sg64
(lp2347
g57
(g78
g59
NtRp2348
(dp2349
g62
(dp2350
sg71
g2344
sg64
(lp2351
g57
(g58
g59
NtRp2352
(dp2353
g62
(dp2354
g70
I3
ssg71
g2348
sg64
(lp2355
g1421
asbasbasbasbasbasbasbag57
(g73
g59
NtRp2356
(dp2357
g62
(dp2358
sg71
g2081
sg64
(lp2359
g57
(g78
g59
NtRp2360
(dp2361
g62
(dp2362
g82
g83
ssg71
g2356
sg64
(lp2363
g1689
asbag57
(g78
g59
NtRp2364
(dp2365
g62
(dp2366
g89
g90
ssg71
g2356
sg64
(lp2367
S':'
asbag57
(g78
g59
NtRp2368
(dp2369
g62
(dp2370
sg71
g2356
sg64
(lp2371
g57
(g58
g59
NtRp2372
(dp2373
g62
(dp2374
g70
I4
ssg71
g2368
sg64
(lp2375
g57
(g66
g59
NtRp2376
(dp2377
g62
(dp2378
g70
I3
ssg71
Nsg64
(lp2379
g57
(g73
g59
NtRp2380
(dp2381
g62
(dp2382
sg71
g2376
sg64
(lp2383
g57
(g78
g59
NtRp2384
(dp2385
g62
(dp2386
sg71
g2380
sg64
(lp2387
g57
(g58
g59
NtRp2388
(dp2389
g62
(dp2390
g70
I3
ssg71
g2384
sg64
(lp2391
S'2'
asbasbasbag57
(g73
g59
NtRp2392
(dp2393
g62
(dp2394
sg71
g2376
sg64
(lp2395
g57
(g78
g59
NtRp2396
(dp2397
g62
(dp2398
sg71
g2392
sg64
(lp2399
g57
(g58
g59
NtRp2400
(dp2401
g62
(dp2402
g70
I3
ssg71
g2396
sg64
(lp2403
S'3'
asbasbasbag57
(g73
g59
NtRp2404
(dp2405
g62
(dp2406
sg71
g2376
sg64
(lp2407
g57
(g78
g59
NtRp2408
(dp2409
g62
(dp2410
sg71
g2404
sg64
(lp2411
g57
(g58
g59
NtRp2412
(dp2413
g62
(dp2414
g70
I3
ssg71
g2408
sg64
(lp2415
S'2'
asbasbasbag57
(g73
g59
NtRp2416
(dp2417
g62
(dp2418
sg71
g2376
sg64
(lp2419
g57
(g78
g59
NtRp2420
(dp2421
g62
(dp2422
sg71
g2416
sg64
(lp2423
g57
(g58
g59
NtRp2424
(dp2425
g62
(dp2426
g70
I3
ssg71
g2420
sg64
(lp2427
S'datetime.datetime(2012, 12, 17, 15, 3, 30)'
p2428
asbasbasbag57
(g73
g59
NtRp2429
(dp2430
g62
(dp2431
sg71
g2376
sg64
(lp2432
g57
(g78
g59
NtRp2433
(dp2434
g62
(dp2435
sg71
g2429
sg64
(lp2436
g57
(g58
g59
NtRp2437
(dp2438
g62
(dp2439
g70
I3
ssg71
g2433
sg64
(lp2440
g1767
asbasbasbasbasbasbasbasbasbasbasbag57
(g73
g59
NtRp2441
(dp2442
g62
(dp2443
sg71
g67
sg64
(lp2444
g57
(g78
g59
NtRp2445
(dp2446
g62
(dp2447
g82
g83
ssg71
g2441
sg64
(lp2448
S'is_https'
p2449
asbag57
(g78
g59
NtRp2450
(dp2451
g62
(dp2452
g89
g90
ssg71
g2441
sg64
(lp2453
S':'
asbag57
(g78
g59
NtRp2454
(dp2455
g62
(dp2456
sg71
g2441
sg64
(lp2457
g57
(g58
g59
NtRp2458
(dp2459
g62
(dp2460
g70
I5
ssg71
g2454
sg64
(lp2461
g100
asbasbasbag57
(g73
g59
NtRp2462
(dp2463
g62
(dp2464
sg71
g67
sg64
(lp2465
g57
(g78
g59
NtRp2466
(dp2467
g62
(dp2468
g82
g83
ssg71
g2462
sg64
(lp2469
S'is_local'
p2470
asbag57
(g78
g59
NtRp2471
(dp2472
g62
(dp2473
g89
g90
ssg71
g2462
sg64
(lp2474
S':'
asbag57
(g78
g59
NtRp2475
(dp2476
g62
(dp2477
sg71
g2462
sg64
(lp2478
g57
(g58
g59
NtRp2479
(dp2480
g62
(dp2481
g70
I5
ssg71
g2475
sg64
(lp2482
g1876
asbasbasbag57
(g73
g59
NtRp2483
(dp2484
g62
(dp2485
sg71
g67
sg64
(lp2486
g57
(g78
g59
NtRp2487
(dp2488
g62
(dp2489
g82
g83
ssg71
g2483
sg64
(lp2490
S'is_restful'
p2491
asbag57
(g78
g59
NtRp2492
(dp2493
g62
(dp2494
g89
g90
ssg71
g2483
sg64
(lp2495
S':'
asbag57
(g78
g59
NtRp2496
(dp2497
g62
(dp2498
sg71
g2483
sg64
(lp2499
g57
(g58
g59
NtRp2500
(dp2501
g62
(dp2502
g70
I5
ssg71
g2496
sg64
(lp2503
g100
asbasbasbag57
(g73
g59
NtRp2504
(dp2505
g62
(dp2506
sg71
g67
sg64
(lp2507
g57
(g78
g59
NtRp2508
(dp2509
g62
(dp2510
g82
g83
ssg71
g2504
sg64
(lp2511
S'now'
p2512
asbag57
(g78
g59
NtRp2513
(dp2514
g62
(dp2515
g89
g90
ssg71
g2504
sg64
(lp2516
S':'
asbag57
(g78
g59
NtRp2517
(dp2518
g62
(dp2519
sg71
g2504
sg64
(lp2520
g57
(g58
g59
NtRp2521
(dp2522
g62
(dp2523
g70
I5
ssg71
g2517
sg64
(lp2524
S'datetime.datetime(2013, 4, 6, 21, 20, 22, 602482)'
p2525
asbasbasbag57
(g73
g59
NtRp2526
(dp2527
g62
(dp2528
sg71
g67
sg64
(lp2529
g57
(g78
g59
NtRp2530
(dp2531
g62
(dp2532
g82
g83
ssg71
g2526
sg64
(lp2533
S'post_vars'
p2534
asbag57
(g78
g59
NtRp2535
(dp2536
g62
(dp2537
g89
g90
ssg71
g2526
sg64
(lp2538
S':'
asbag57
(g78
g59
NtRp2539
(dp2540
g62
(dp2541
sg71
g2526
sg64
(lp2542
g57
(g58
g59
NtRp2543
(dp2544
g62
(dp2545
g70
I5
ssg71
g2539
sg64
(lp2546
g57
(g66
g59
NtRp2547
(dp2548
g62
(dp2549
g70
I4
ssg71
Nsg64
(lp2550
g57
(g73
g59
NtRp2551
(dp2552
g62
(dp2553
sg71
g2547
sg64
(lp2554
g57
(g78
g59
NtRp2555
(dp2556
g62
(dp2557
g82
g83
ssg71
g2551
sg64
(lp2558
S'id'
p2559
asbag57
(g78
g59
NtRp2560
(dp2561
g62
(dp2562
g89
g90
ssg71
g2551
sg64
(lp2563
S':'
asbag57
(g78
g59
NtRp2564
(dp2565
g62
(dp2566
sg71
g2551
sg64
(lp2567
g57
(g58
g59
NtRp2568
(dp2569
g62
(dp2570
g70
I4
ssg71
g2564
sg64
(lp2571
S'2'
asbasbasbasbasbasbasbag57
(g73
g59
NtRp2572
(dp2573
g62
(dp2574
sg71
g67
sg64
(lp2575
g57
(g78
g59
NtRp2576
(dp2577
g62
(dp2578
g82
g83
ssg71
g2572
sg64
(lp2579
S'raw_args'
p2580
asbag57
(g78
g59
NtRp2581
(dp2582
g62
(dp2583
g89
g90
ssg71
g2572
sg64
(lp2584
S':'
asbag57
(g78
g59
NtRp2585
(dp2586
g62
(dp2587
sg71
g2572
sg64
(lp2588
g57
(g58
g59
NtRp2589
(dp2590
g62
(dp2591
g70
I5
ssg71
g2585
sg64
(lp2592
S''
asbasbasbag57
(g73
g59
NtRp2593
(dp2594
g62
(dp2595
sg71
g67
sg64
(lp2596
g57
(g78
g59
NtRp2597
(dp2598
g62
(dp2599
g82
g83
ssg71
g2593
sg64
(lp2600
S'raw_extension'
p2601
asbag57
(g78
g59
NtRp2602
(dp2603
g62
(dp2604
g89
g90
ssg71
g2593
sg64
(lp2605
S':'
asbag57
(g78
g59
NtRp2606
(dp2607
g62
(dp2608
sg71
g2593
sg64
(lp2609
g57
(g58
g59
NtRp2610
(dp2611
g62
(dp2612
g70
I5
ssg71
g2606
sg64
(lp2613
S'None'
p2614
asbasbasbag57
(g73
g59
NtRp2615
(dp2616
g62
(dp2617
sg71
g67
sg64
(lp2618
g57
(g78
g59
NtRp2619
(dp2620
g62
(dp2621
g82
g83
ssg71
g2615
sg64
(lp2622
S'url'
p2623
asbag57
(g78
g59
NtRp2624
(dp2625
g62
(dp2626
g89
g90
ssg71
g2615
sg64
(lp2627
S':'
asbag57
(g78
g59
NtRp2628
(dp2629
g62
(dp2630
sg71
g2615
sg64
(lp2631
g57
(g58
g59
NtRp2632
(dp2633
g62
(dp2634
g70
I5
ssg71
g2628
sg64
(lp2635
g1443
asbasbasbag57
(g73
g59
NtRp2636
(dp2637
g62
(dp2638
sg71
g67
sg64
(lp2639
g57
(g78
g59
NtRp2640
(dp2641
g62
(dp2642
g82
g83
ssg71
g2636
sg64
(lp2643
S'utcnow'
p2644
asbag57
(g78
g59
NtRp2645
(dp2646
g62
(dp2647
g89
g90
ssg71
g2636
sg64
(lp2648
S':'
asbag57
(g78
g59
NtRp2649
(dp2650
g62
(dp2651
sg71
g2636
sg64
(lp2652
g57
(g58
g59
NtRp2653
(dp2654
g62
(dp2655
g70
I5
ssg71
g2649
sg64
(lp2656
S'datetime.datetime(2013, 4, 6, 15, 50, 22, 602534)'
p2657
asbasbasbag57
(g73
g59
NtRp2658
(dp2659
g62
(dp2660
sg71
g67
sg64
(lp2661
g57
(g78
g59
NtRp2662
(dp2663
g62
(dp2664
g82
g83
ssg71
g2658
sg64
(lp2665
S'uuid'
p2666
asbag57
(g78
g59
NtRp2667
(dp2668
g62
(dp2669
g89
g90
ssg71
g2658
sg64
(lp2670
S':'
asbag57
(g78
g59
NtRp2671
(dp2672
g62
(dp2673
sg71
g2658
sg64
(lp2674
g57
(g58
g59
NtRp2675
(dp2676
g62
(dp2677
g70
I5
ssg71
g2671
sg64
(lp2678
S'OnlineExamination/127.0.0.1.2013-04-06.21-20-22.daf226bc-f8d7-4842-8871-cca1d1348c6b'
p2679
asbasbasbag57
(g73
g59
NtRp2680
(dp2681
g62
(dp2682
sg71
g67
sg64
(lp2683
g57
(g78
g59
NtRp2684
(dp2685
g62
(dp2686
g82
g83
ssg71
g2680
sg64
(lp2687
S'vars'
p2688
asbag57
(g78
g59
NtRp2689
(dp2690
g62
(dp2691
g89
g90
ssg71
g2680
sg64
(lp2692
S':'
asbag57
(g78
g59
NtRp2693
(dp2694
g62
(dp2695
sg71
g2680
sg64
(lp2696
g57
(g58
g59
NtRp2697
(dp2698
g62
(dp2699
g70
I5
ssg71
g2693
sg64
(lp2700
g57
(g66
g59
NtRp2701
(dp2702
g62
(dp2703
g70
I4
ssg71
Nsg64
(lp2704
g57
(g73
g59
NtRp2705
(dp2706
g62
(dp2707
sg71
g2701
sg64
(lp2708
g57
(g78
g59
NtRp2709
(dp2710
g62
(dp2711
g82
g83
ssg71
g2705
sg64
(lp2712
g2559
asbag57
(g78
g59
NtRp2713
(dp2714
g62
(dp2715
g89
g90
ssg71
g2705
sg64
(lp2716
S':'
asbag57
(g78
g59
NtRp2717
(dp2718
g62
(dp2719
sg71
g2705
sg64
(lp2720
g57
(g58
g59
NtRp2721
(dp2722
g62
(dp2723
g70
I4
ssg71
g2717
sg64
(lp2724
S'2'
asbasbasbasbasbasbasbag57
(g73
g59
NtRp2725
(dp2726
g62
(dp2727
sg71
g67
sg64
(lp2728
g57
(g78
g59
NtRp2729
(dp2730
g62
(dp2731
g82
g83
ssg71
g2725
sg64
(lp2732
S'wsgi'
p2733
asbag57
(g78
g59
NtRp2734
(dp2735
g62
(dp2736
g89
g90
ssg71
g2725
sg64
(lp2737
S':'
asbag57
(g78
g59
NtRp2738
(dp2739
g62
(dp2740
sg71
g2725
sg64
(lp2741
g57
(g58
g59
NtRp2742
(dp2743
g62
(dp2744
g70
I5
ssg71
g2738
sg64
(lp2745
g57
(g66
g59
NtRp2746
(dp2747
g62
(dp2748
g70
I4
ssg71
Nsg64
(lp2749
g57
(g73
g59
NtRp2750
(dp2751
g62
(dp2752
sg71
g2746
sg64
(lp2753
g57
(g78
g59
NtRp2754
(dp2755
g62
(dp2756
g82
g83
ssg71
g2750
sg64
(lp2757
S'environ'
p2758
asbag57
(g78
g59
NtRp2759
(dp2760
g62
(dp2761
g89
g90
ssg71
g2750
sg64
(lp2762
S':'
asbag57
(g78
g59
NtRp2763
(dp2764
g62
(dp2765
sg71
g2750
sg64
(lp2766
g57
(g58
g59
NtRp2767
(dp2768
g62
(dp2769
g70
I4
ssg71
g2763
sg64
(lp2770
g57
(g66
g59
NtRp2771
(dp2772
g62
(dp2773
g70
I3
ssg71
Nsg64
(lp2774
g57
(g73
g59
NtRp2775
(dp2776
g62
(dp2777
sg71
g2771
sg64
(lp2778
g57
(g78
g59
NtRp2779
(dp2780
g62
(dp2781
g82
g83
ssg71
g2775
sg64
(lp2782
S'CONTENT_LENGTH'
p2783
asbag57
(g78
g59
NtRp2784
(dp2785
g62
(dp2786
g89
g90
ssg71
g2775
sg64
(lp2787
S':'
asbag57
(g78
g59
NtRp2788
(dp2789
g62
(dp2790
sg71
g2775
sg64
(lp2791
g57
(g58
g59
NtRp2792
(dp2793
g62
(dp2794
g70
I3
ssg71
g2788
sg64
(lp2795
S'4'
asbasbasbag57
(g73
g59
NtRp2796
(dp2797
g62
(dp2798
sg71
g2771
sg64
(lp2799
g57
(g78
g59
NtRp2800
(dp2801
g62
(dp2802
g82
g83
ssg71
g2796
sg64
(lp2803
S'CONTENT_TYPE'
p2804
asbag57
(g78
g59
NtRp2805
(dp2806
g62
(dp2807
g89
g90
ssg71
g2796
sg64
(lp2808
S':'
asbag57
(g78
g59
NtRp2809
(dp2810
g62
(dp2811
sg71
g2796
sg64
(lp2812
g57
(g58
g59
NtRp2813
(dp2814
g62
(dp2815
g70
I3
ssg71
g2809
sg64
(lp2816
g984
asbasbasbag57
(g73
g59
NtRp2817
(dp2818
g62
(dp2819
sg71
g2771
sg64
(lp2820
g57
(g78
g59
NtRp2821
(dp2822
g62
(dp2823
g82
g83
ssg71
g2817
sg64
(lp2824
S'HTTP_ACCEPT'
p2825
asbag57
(g78
g59
NtRp2826
(dp2827
g62
(dp2828
g89
g90
ssg71
g2817
sg64
(lp2829
S':'
asbag57
(g78
g59
NtRp2830
(dp2831
g62
(dp2832
sg71
g2817
sg64
(lp2833
g57
(g58
g59
NtRp2834
(dp2835
g62
(dp2836
g70
I3
ssg71
g2830
sg64
(lp2837
g1071
asbasbasbag57
(g73
g59
NtRp2838
(dp2839
g62
(dp2840
sg71
g2771
sg64
(lp2841
g57
(g78
g59
NtRp2842
(dp2843
g62
(dp2844
g82
g83
ssg71
g2838
sg64
(lp2845
S'HTTP_ACCEPT_ENCODING'
p2846
asbag57
(g78
g59
NtRp2847
(dp2848
g62
(dp2849
g89
g90
ssg71
g2838
sg64
(lp2850
S':'
asbag57
(g78
g59
NtRp2851
(dp2852
g62
(dp2853
sg71
g2838
sg64
(lp2854
g57
(g58
g59
NtRp2855
(dp2856
g62
(dp2857
g70
I3
ssg71
g2851
sg64
(lp2858
g1093
asbasbasbag57
(g73
g59
NtRp2859
(dp2860
g62
(dp2861
sg71
g2771
sg64
(lp2862
g57
(g78
g59
NtRp2863
(dp2864
g62
(dp2865
g82
g83
ssg71
g2859
sg64
(lp2866
S'HTTP_ACCEPT_LANGUAGE'
p2867
asbag57
(g78
g59
NtRp2868
(dp2869
g62
(dp2870
g89
g90
ssg71
g2859
sg64
(lp2871
S':'
asbag57
(g78
g59
NtRp2872
(dp2873
g62
(dp2874
sg71
g2859
sg64
(lp2875
g57
(g58
g59
NtRp2876
(dp2877
g62
(dp2878
g70
I3
ssg71
g2872
sg64
(lp2879
g1115
asbasbasbag57
(g73
g59
NtRp2880
(dp2881
g62
(dp2882
sg71
g2771
sg64
(lp2883
g57
(g78
g59
NtRp2884
(dp2885
g62
(dp2886
g82
g83
ssg71
g2880
sg64
(lp2887
S'HTTP_CACHE_CONTROL'
p2888
asbag57
(g78
g59
NtRp2889
(dp2890
g62
(dp2891
g89
g90
ssg71
g2880
sg64
(lp2892
S':'
asbag57
(g78
g59
NtRp2893
(dp2894
g62
(dp2895
sg71
g2880
sg64
(lp2896
g57
(g58
g59
NtRp2897
(dp2898
g62
(dp2899
g70
I3
ssg71
g2893
sg64
(lp2900
g1137
asbasbasbag57
(g73
g59
NtRp2901
(dp2902
g62
(dp2903
sg71
g2771
sg64
(lp2904
g57
(g78
g59
NtRp2905
(dp2906
g62
(dp2907
g82
g83
ssg71
g2901
sg64
(lp2908
S'HTTP_CONNECTION'
p2909
asbag57
(g78
g59
NtRp2910
(dp2911
g62
(dp2912
g89
g90
ssg71
g2901
sg64
(lp2913
S':'
asbag57
(g78
g59
NtRp2914
(dp2915
g62
(dp2916
sg71
g2901
sg64
(lp2917
g57
(g58
g59
NtRp2918
(dp2919
g62
(dp2920
g70
I3
ssg71
g2914
sg64
(lp2921
g1159
asbasbasbag57
(g73
g59
NtRp2922
(dp2923
g62
(dp2924
sg71
g2771
sg64
(lp2925
g57
(g78
g59
NtRp2926
(dp2927
g62
(dp2928
g82
g83
ssg71
g2922
sg64
(lp2929
S'HTTP_CONTENT_LENGTH'
p2930
asbag57
(g78
g59
NtRp2931
(dp2932
g62
(dp2933
g89
g90
ssg71
g2922
sg64
(lp2934
S':'
asbag57
(g78
g59
NtRp2935
(dp2936
g62
(dp2937
sg71
g2922
sg64
(lp2938
g57
(g58
g59
NtRp2939
(dp2940
g62
(dp2941
g70
I3
ssg71
g2935
sg64
(lp2942
S'4'
asbasbasbag57
(g73
g59
NtRp2943
(dp2944
g62
(dp2945
sg71
g2771
sg64
(lp2946
g57
(g78
g59
NtRp2947
(dp2948
g62
(dp2949
g82
g83
ssg71
g2943
sg64
(lp2950
S'HTTP_CONTENT_TYPE'
p2951
asbag57
(g78
g59
NtRp2952
(dp2953
g62
(dp2954
g89
g90
ssg71
g2943
sg64
(lp2955
S':'
asbag57
(g78
g59
NtRp2956
(dp2957
g62
(dp2958
sg71
g2943
sg64
(lp2959
g57
(g58
g59
NtRp2960
(dp2961
g62
(dp2962
g70
I3
ssg71
g2956
sg64
(lp2963
g984
asbasbasbag57
(g73
g59
NtRp2964
(dp2965
g62
(dp2966
sg71
g2771
sg64
(lp2967
g57
(g78
g59
NtRp2968
(dp2969
g62
(dp2970
g82
g83
ssg71
g2964
sg64
(lp2971
S'HTTP_COOKIE'
p2972
asbag57
(g78
g59
NtRp2973
(dp2974
g62
(dp2975
g89
g90
ssg71
g2964
sg64
(lp2976
S':'
asbag57
(g78
g59
NtRp2977
(dp2978
g62
(dp2979
sg71
g2964
sg64
(lp2980
g57
(g58
g59
NtRp2981
(dp2982
g62
(dp2983
g70
I3
ssg71
g2977
sg64
(lp2984
g1223
asbasbasbag57
(g73
g59
NtRp2985
(dp2986
g62
(dp2987
sg71
g2771
sg64
(lp2988
g57
(g78
g59
NtRp2989
(dp2990
g62
(dp2991
g82
g83
ssg71
g2985
sg64
(lp2992
S'HTTP_HOST'
p2993
asbag57
(g78
g59
NtRp2994
(dp2995
g62
(dp2996
g89
g90
ssg71
g2985
sg64
(lp2997
S':'
asbag57
(g78
g59
NtRp2998
(dp2999
g62
(dp3000
sg71
g2985
sg64
(lp3001
g57
(g58
g59
NtRp3002
(dp3003
g62
(dp3004
g70
I3
ssg71
g2998
sg64
(lp3005
g1245
asbasbasbag57
(g73
g59
NtRp3006
(dp3007
g62
(dp3008
sg71
g2771
sg64
(lp3009
g57
(g78
g59
NtRp3010
(dp3011
g62
(dp3012
g82
g83
ssg71
g3006
sg64
(lp3013
S'HTTP_REFERER'
p3014
asbag57
(g78
g59
NtRp3015
(dp3016
g62
(dp3017
g89
g90
ssg71
g3006
sg64
(lp3018
S':'
asbag57
(g78
g59
NtRp3019
(dp3020
g62
(dp3021
sg71
g3006
sg64
(lp3022
g57
(g58
g59
NtRp3023
(dp3024
g62
(dp3025
g70
I3
ssg71
g3019
sg64
(lp3026
g1267
asbasbasbag57
(g73
g59
NtRp3027
(dp3028
g62
(dp3029
sg71
g2771
sg64
(lp3030
g57
(g78
g59
NtRp3031
(dp3032
g62
(dp3033
g82
g83
ssg71
g3027
sg64
(lp3034
S'HTTP_USER_AGENT'
p3035
asbag57
(g78
g59
NtRp3036
(dp3037
g62
(dp3038
g89
g90
ssg71
g3027
sg64
(lp3039
S':'
asbag57
(g78
g59
NtRp3040
(dp3041
g62
(dp3042
sg71
g3027
sg64
(lp3043
g57
(g58
g59
NtRp3044
(dp3045
g62
(dp3046
g70
I3
ssg71
g3040
sg64
(lp3047
g1289
asbasbasbag57
(g73
g59
NtRp3048
(dp3049
g62
(dp3050
sg71
g2771
sg64
(lp3051
g57
(g78
g59
NtRp3052
(dp3053
g62
(dp3054
g82
g83
ssg71
g3048
sg64
(lp3055
S'PATH_INFO'
p3056
asbag57
(g78
g59
NtRp3057
(dp3058
g62
(dp3059
g89
g90
ssg71
g3048
sg64
(lp3060
S':'
asbag57
(g78
g59
NtRp3061
(dp3062
g62
(dp3063
sg71
g3048
sg64
(lp3064
g57
(g58
g59
NtRp3065
(dp3066
g62
(dp3067
g70
I3
ssg71
g3061
sg64
(lp3068
g1443
asbasbasbag57
(g73
g59
NtRp3069
(dp3070
g62
(dp3071
sg71
g2771
sg64
(lp3072
g57
(g78
g59
NtRp3073
(dp3074
g62
(dp3075
g82
g83
ssg71
g3069
sg64
(lp3076
S'QUERY_STRING'
p3077
asbag57
(g78
g59
NtRp3078
(dp3079
g62
(dp3080
g89
g90
ssg71
g3069
sg64
(lp3081
S':'
asbag57
(g78
g59
NtRp3082
(dp3083
g62
(dp3084
sg71
g3069
sg64
(lp3085
g57
(g58
g59
NtRp3086
(dp3087
g62
(dp3088
g70
I3
ssg71
g3082
sg64
(lp3089
S''
asbasbasbag57
(g73
g59
NtRp3090
(dp3091
g62
(dp3092
sg71
g2771
sg64
(lp3093
g57
(g78
g59
NtRp3094
(dp3095
g62
(dp3096
g82
g83
ssg71
g3090
sg64
(lp3097
S'REMOTE_ADDR'
p3098
asbag57
(g78
g59
NtRp3099
(dp3100
g62
(dp3101
g89
g90
ssg71
g3090
sg64
(lp3102
S':'
asbag57
(g78
g59
NtRp3103
(dp3104
g62
(dp3105
sg71
g3090
sg64
(lp3106
g57
(g58
g59
NtRp3107
(dp3108
g62
(dp3109
g70
I3
ssg71
g3103
sg64
(lp3110
g212
asbasbasbag57
(g73
g59
NtRp3111
(dp3112
g62
(dp3113
sg71
g2771
sg64
(lp3114
g57
(g78
g59
NtRp3115
(dp3116
g62
(dp3117
g82
g83
ssg71
g3111
sg64
(lp3118
S'REMOTE_PORT'
p3119
asbag57
(g78
g59
NtRp3120
(dp3121
g62
(dp3122
g89
g90
ssg71
g3111
sg64
(lp3123
S':'
asbag57
(g78
g59
NtRp3124
(dp3125
g62
(dp3126
sg71
g3111
sg64
(lp3127
g57
(g58
g59
NtRp3128
(dp3129
g62
(dp3130
g70
I3
ssg71
g3124
sg64
(lp3131
g1507
asbasbasbag57
(g73
g59
NtRp3132
(dp3133
g62
(dp3134
sg71
g2771
sg64
(lp3135
g57
(g78
g59
NtRp3136
(dp3137
g62
(dp3138
g82
g83
ssg71
g3132
sg64
(lp3139
S'REQUEST_METHOD'
p3140
asbag57
(g78
g59
NtRp3141
(dp3142
g62
(dp3143
g89
g90
ssg71
g3132
sg64
(lp3144
S':'
asbag57
(g78
g59
NtRp3145
(dp3146
g62
(dp3147
sg71
g3132
sg64
(lp3148
g57
(g58
g59
NtRp3149
(dp3150
g62
(dp3151
g70
I3
ssg71
g3145
sg64
(lp3152
g1529
asbasbasbag57
(g73
g59
NtRp3153
(dp3154
g62
(dp3155
sg71
g2771
sg64
(lp3156
g57
(g78
g59
NtRp3157
(dp3158
g62
(dp3159
g82
g83
ssg71
g3153
sg64
(lp3160
S'REQUEST_URI'
p3161
asbag57
(g78
g59
NtRp3162
(dp3163
g62
(dp3164
g89
g90
ssg71
g3153
sg64
(lp3165
S':'
asbag57
(g78
g59
NtRp3166
(dp3167
g62
(dp3168
sg71
g3153
sg64
(lp3169
g57
(g58
g59
NtRp3170
(dp3171
g62
(dp3172
g70
I3
ssg71
g3166
sg64
(lp3173
g1443
asbasbasbag57
(g73
g59
NtRp3174
(dp3175
g62
(dp3176
sg71
g2771
sg64
(lp3177
g57
(g78
g59
NtRp3178
(dp3179
g62
(dp3180
g82
g83
ssg71
g3174
sg64
(lp3181
S'SCRIPT_NAME'
p3182
asbag57
(g78
g59
NtRp3183
(dp3184
g62
(dp3185
g89
g90
ssg71
g3174
sg64
(lp3186
S':'
asbag57
(g78
g59
NtRp3187
(dp3188
g62
(dp3189
sg71
g3174
sg64
(lp3190
g57
(g58
g59
NtRp3191
(dp3192
g62
(dp3193
g70
I3
ssg71
g3187
sg64
(lp3194
S''
asbasbasbag57
(g73
g59
NtRp3195
(dp3196
g62
(dp3197
sg71
g2771
sg64
(lp3198
g57
(g78
g59
NtRp3199
(dp3200
g62
(dp3201
g82
g83
ssg71
g3195
sg64
(lp3202
S'SERVER_NAME'
p3203
asbag57
(g78
g59
NtRp3204
(dp3205
g62
(dp3206
g89
g90
ssg71
g3195
sg64
(lp3207
S':'
asbag57
(g78
g59
NtRp3208
(dp3209
g62
(dp3210
sg71
g3195
sg64
(lp3211
g57
(g58
g59
NtRp3212
(dp3213
g62
(dp3214
g70
I3
ssg71
g3208
sg64
(lp3215
g1593
asbasbasbag57
(g73
g59
NtRp3216
(dp3217
g62
(dp3218
sg71
g2771
sg64
(lp3219
g57
(g78
g59
NtRp3220
(dp3221
g62
(dp3222
g82
g83
ssg71
g3216
sg64
(lp3223
S'SERVER_PORT'
p3224
asbag57
(g78
g59
NtRp3225
(dp3226
g62
(dp3227
g89
g90
ssg71
g3216
sg64
(lp3228
S':'
asbag57
(g78
g59
NtRp3229
(dp3230
g62
(dp3231
sg71
g3216
sg64
(lp3232
g57
(g58
g59
NtRp3233
(dp3234
g62
(dp3235
g70
I3
ssg71
g3229
sg64
(lp3236
g1615
asbasbasbag57
(g73
g59
NtRp3237
(dp3238
g62
(dp3239
sg71
g2771
sg64
(lp3240
g57
(g78
g59
NtRp3241
(dp3242
g62
(dp3243
g82
g83
ssg71
g3237
sg64
(lp3244
S'SERVER_PROTOCOL'
p3245
asbag57
(g78
g59
NtRp3246
(dp3247
g62
(dp3248
g89
g90
ssg71
g3237
sg64
(lp3249
S':'
asbag57
(g78
g59
NtRp3250
(dp3251
g62
(dp3252
sg71
g3237
sg64
(lp3253
g57
(g58
g59
NtRp3254
(dp3255
g62
(dp3256
g70
I3
ssg71
g3250
sg64
(lp3257
g1637
asbasbasbag57
(g73
g59
NtRp3258
(dp3259
g62
(dp3260
sg71
g2771
sg64
(lp3261
g57
(g78
g59
NtRp3262
(dp3263
g62
(dp3264
g82
g83
ssg71
g3258
sg64
(lp3265
S'SERVER_SOFTWARE'
p3266
asbag57
(g78
g59
NtRp3267
(dp3268
g62
(dp3269
g89
g90
ssg71
g3258
sg64
(lp3270
S':'
asbag57
(g78
g59
NtRp3271
(dp3272
g62
(dp3273
sg71
g3258
sg64
(lp3274
g57
(g58
g59
NtRp3275
(dp3276
g62
(dp3277
g70
I3
ssg71
g3271
sg64
(lp3278
g1659
asbasbasbag57
(g73
g59
NtRp3279
(dp3280
g62
(dp3281
sg71
g2771
sg64
(lp3282
g57
(g78
g59
NtRp3283
(dp3284
g62
(dp3285
g82
g83
ssg71
g3279
sg64
(lp3286
S'wsgi.errors'
p3287
asbag57
(g78
g59
NtRp3288
(dp3289
g62
(dp3290
g89
g90
ssg71
g3279
sg64
(lp3291
S':'
asbag57
(g78
g59
NtRp3292
(dp3293
g62
(dp3294
sg71
g3279
sg64
(lp3295
g57
(g58
g59
NtRp3296
(dp3297
g62
(dp3298
g70
I3
ssg71
g3292
sg64
(lp3299
S"<open file '<stderr>', mode 'w' at 0xb75540d0>"
p3300
asbasbasbag57
(g73
g59
NtRp3301
(dp3302
g62
(dp3303
sg71
g2771
sg64
(lp3304
g57
(g78
g59
NtRp3305
(dp3306
g62
(dp3307
g82
g83
ssg71
g3301
sg64
(lp3308
S'wsgi.file_wrapper'
p3309
asbag57
(g78
g59
NtRp3310
(dp3311
g62
(dp3312
g89
g90
ssg71
g3301
sg64
(lp3313
S':'
asbag57
(g78
g59
NtRp3314
(dp3315
g62
(dp3316
sg71
g3301
sg64
(lp3317
g57
(g58
g59
NtRp3318
(dp3319
g62
(dp3320
g70
I3
ssg71
g3314
sg64
(lp3321
S'<class wsgiref.util.FileWrapper at 0xa5b8ecc>'
p3322
asbasbasbag57
(g73
g59
NtRp3323
(dp3324
g62
(dp3325
sg71
g2771
sg64
(lp3326
g57
(g78
g59
NtRp3327
(dp3328
g62
(dp3329
g82
g83
ssg71
g3323
sg64
(lp3330
S'wsgi.input'
p3331
asbag57
(g78
g59
NtRp3332
(dp3333
g62
(dp3334
g89
g90
ssg71
g3323
sg64
(lp3335
S':'
asbag57
(g78
g59
NtRp3336
(dp3337
g62
(dp3338
sg71
g3323
sg64
(lp3339
g57
(g58
g59
NtRp3340
(dp3341
g62
(dp3342
g70
I3
ssg71
g3336
sg64
(lp3343
S"<open file '<fdopen>', mode 'w+b' at 0xae242c28>"
p3344
asbasbasbag57
(g73
g59
NtRp3345
(dp3346
g62
(dp3347
sg71
g2771
sg64
(lp3348
g57
(g78
g59
NtRp3349
(dp3350
g62
(dp3351
g82
g83
ssg71
g3345
sg64
(lp3352
S'wsgi.multiprocess'
p3353
asbag57
(g78
g59
NtRp3354
(dp3355
g62
(dp3356
g89
g90
ssg71
g3345
sg64
(lp3357
S':'
asbag57
(g78
g59
NtRp3358
(dp3359
g62
(dp3360
sg71
g3345
sg64
(lp3361
g57
(g58
g59
NtRp3362
(dp3363
g62
(dp3364
g70
I3
ssg71
g3358
sg64
(lp3365
g100
asbasbasbag57
(g73
g59
NtRp3366
(dp3367
g62
(dp3368
sg71
g2771
sg64
(lp3369
g57
(g78
g59
NtRp3370
(dp3371
g62
(dp3372
g82
g83
ssg71
g3366
sg64
(lp3373
S'wsgi.multithread'
p3374
asbag57
(g78
g59
NtRp3375
(dp3376
g62
(dp3377
g89
g90
ssg71
g3366
sg64
(lp3378
S':'
asbag57
(g78
g59
NtRp3379
(dp3380
g62
(dp3381
sg71
g3366
sg64
(lp3382
g57
(g58
g59
NtRp3383
(dp3384
g62
(dp3385
g70
I3
ssg71
g3379
sg64
(lp3386
g1876
asbasbasbag57
(g73
g59
NtRp3387
(dp3388
g62
(dp3389
sg71
g2771
sg64
(lp3390
g57
(g78
g59
NtRp3391
(dp3392
g62
(dp3393
g82
g83
ssg71
g3387
sg64
(lp3394
S'wsgi.run_once'
p3395
asbag57
(g78
g59
NtRp3396
(dp3397
g62
(dp3398
g89
g90
ssg71
g3387
sg64
(lp3399
S':'
asbag57
(g78
g59
NtRp3400
(dp3401
g62
(dp3402
sg71
g3387
sg64
(lp3403
g57
(g58
g59
NtRp3404
(dp3405
g62
(dp3406
g70
I3
ssg71
g3400
sg64
(lp3407
g100
asbasbasbag57
(g73
g59
NtRp3408
(dp3409
g62
(dp3410
sg71
g2771
sg64
(lp3411
g57
(g78
g59
NtRp3412
(dp3413
g62
(dp3414
g82
g83
ssg71
g3408
sg64
(lp3415
S'wsgi.url_scheme'
p3416
asbag57
(g78
g59
NtRp3417
(dp3418
g62
(dp3419
g89
g90
ssg71
g3408
sg64
(lp3420
S':'
asbag57
(g78
g59
NtRp3421
(dp3422
g62
(dp3423
sg71
g3408
sg64
(lp3424
g57
(g58
g59
NtRp3425
(dp3426
g62
(dp3427
g70
I3
ssg71
g3421
sg64
(lp3428
g1919
asbasbasbag57
(g73
g59
NtRp3429
(dp3430
g62
(dp3431
sg71
g2771
sg64
(lp3432
g57
(g78
g59
NtRp3433
(dp3434
g62
(dp3435
g82
g83
ssg71
g3429
sg64
(lp3436
S'wsgi.version'
p3437
asbag57
(g78
g59
NtRp3438
(dp3439
g62
(dp3440
g89
g90
ssg71
g3429
sg64
(lp3441
S':'
asbag57
(g78
g59
NtRp3442
(dp3443
g62
(dp3444
sg71
g3429
sg64
(lp3445
g57
(g58
g59
NtRp3446
(dp3447
g62
(dp3448
g70
I3
ssg71
g3442
sg64
(lp3449
S'1'
asbasbasbasbasbasbasbasbasbasbasbasbasbsS'frames'
p3450
(lp3451
(dp3452
S'file'
p3453
S'/home/gaurav/classwork/WEB_PROGRAMMING/web2py/gluon/restricted.py'
p3454
sS'dump'
p3455
(dp3456
S'environment'
p3457
S"{'A': <class 'gluon.html.A'>, 'Auth': <class 'gluon.tools.Auth'>, 'B': <class 'gluon.html.B'>, 'BEAUTIFY': <class 'gluon.html.BEAUTIFY'>, 'BODY': <class 'gluon.html.BODY'>, 'BR': <class 'gluon.html.BR'>, 'BUTTON': <class 'gluon.html.BUTTON'>, 'CAT': <class 'gluon.html.CAT'>, 'CENTER': <class 'gluon.html.CENTER'>, 'CLEANUP': <class 'gluon.validators.CLEANUP'>, ...}"
p3458
sS'ccode'
p3459
S'<code object <module> at 0xa9434e8, file "/home/...lineExamination/controllers/default.py", line 13>'
p3460
ssS'lnum'
p3461
I212
sS'lines'
p3462
(dp3463
I207
S'    try:'
p3464
sI208
S'        if isinstance(code, types.CodeType):'
p3465
sI209
S'            ccode = code'
p3466
sI210
S'        else:'
p3467
sI211
S'            ccode = compile2(code, layer)'
p3468
sI212
S'        exec ccode in environment'
p3469
sI213
S'    except HTTP:'
p3470
sI214
S'        raise'
p3471
sI215
S'    except RestrictedError:'
p3472
sI216
S'        # do not encapsulate (obfuscate) the original RestrictedError'
p3473
ssS'call'
p3474
S"(code='# -*- coding: utf-8 -*-\\n# this file is released ...(form=form)\\n\\nresponse._vars=response._caller(F2)\\n', environment={'A': <class 'gluon.html.A'>, 'Auth': <class 'gluon.tools.Auth'>, 'B': <class 'gluon.html.B'>, 'BEAUTIFY': <class 'gluon.html.BEAUTIFY'>, 'BODY': <class 'gluon.html.BODY'>, 'BR': <class 'gluon.html.BR'>, 'BUTTON': <class 'gluon.html.BUTTON'>, 'CAT': <class 'gluon.html.CAT'>, 'CENTER': <class 'gluon.html.CENTER'>, 'CLEANUP': <class 'gluon.validators.CLEANUP'>, ...}, layer='/home/gaurav/classwork/WEB_PROGRAMMING/web2py/applications/OnlineExamination/controllers/default.py')"
p3475
sS'func'
p3476
S'restricted'
p3477
sa(dp3478
g3453
S'/home/gaurav/classwork/WEB_PROGRAMMING/web2py/applications/OnlineExamination/controllers/default.py'
p3479
sg3455
(dp3480
sg3461
I296
sg3462
(dp3481
I288
S'@auth.requires_login()'
p3482
sI289
S"@auth.requires_membership('IIIT_FACULTY_DEPARTMENT')"
p3483
sI290
S'def set_time():'
p3484
sI291
S'     form=SQLFORM(db.times)'
p3485
sI292
S'     if (form.accepts(request,session)):'
p3486
sI293
S'\t  response.flash="Time Setted"'
p3487
sI294
S'     return dict(form=form)'
p3488
sI285
S'     return locals()'
p3489
sI286
S''
sI287
S''
ssg3474
S'()'
p3490
sg3476
S'<module>'
p3491
sa(dp3492
g3453
S'/home/gaurav/classwork/WEB_PROGRAMMING/web2py/gluon/globals.py'
p3493
sg3455
(dp3494
S'self'
p3495
S'undefined'
p3496
sS'f'
S'<function F2>'
p3497
ssg3461
I193
sg3462
(dp3498
I192
S'        self._vars = None'
p3499
sI193
S'        self._caller = lambda f: f()'
p3500
sI194
S'        self._view_environment = None'
p3501
sI195
S'        self._custom_commit = None'
p3502
sI196
S'        self._custom_rollback = None'
p3503
sI197
S''
sI188
S'        self.menu = []             # used by the default view layout'
p3504
sI189
S'        self.files = []            # used by web2py_ajax.html'
p3505
sI190
S'        self.generic_patterns = []  # patterns to allow generic views'
p3506
sI191
S"        self.delimiters = ('{{', '}}')"
p3507
ssg3474
S'(f=<function F2>)'
p3508
sg3476
S'<lambda>'
p3509
sa(dp3510
g3453
S'/home/gaurav/classwork/WEB_PROGRAMMING/web2py/gluon/tools.py'
p3511
sg3455
(dp3512
S'action'
p3513
S'<function F2>'
p3514
sS'a'
S'()'
p3515
sS'b'
g45
ssg3461
I2929
sg3462
(dp3516
I2924
S'                    flag = condition'
p3517
sI2925
S'                if not flag:'
p3518
sI2926
S'                    current.session.flash = self.messages.access_denied'
p3519
sI2927
S'                    return call_or_redirect('
p3520
sI2928
S'                        self.settings.on_failed_authorization)'
p3521
sI2929
S'                return action(*a, **b)'
p3522
sI2930
S'            f.__doc__ = action.__doc__'
p3523
sI2931
S'            f.__name__ = action.__name__'
p3524
sI2932
S'            f.__dict__.update(action.__dict__)'
p3525
sI2933
S'            return f'
p3526
ssg3474
S'(*a=(), **b={})'
p3527
sg3476
S'f'
sa(dp3528
g3453
S'/home/gaurav/classwork/WEB_PROGRAMMING/web2py/applications/OnlineExamination/controllers/default.py'
p3529
sg3455
(dp3530
S'global response'
p3531
S"<Storage {'body': <cStringIO.StringO object at 0...mbda> at 0xae38ce9c>, 'view': 'default/F2.html'}>"
p3532
sS'response.flash'
p3533
S"''"
p3534
ssg3461
I283
sg3462
(dp3535
I278
S'     if t:'
p3536
sI279
S'\t  ans=db((auth.user.email==db.answer.stid) & (db.answer.course==x)).select(db.answer.que_num,db.answer.op)'
p3537
sI280
S'\t  ques=db(x==db.questions.course).select(db.questions.ALL)'
p3538
sI281
S'\t  return dict(ans=ans,ques=ques)'
p3539
sI282
S'     else:'
p3540
sI283
S"\t  response.flash('jhkjh')"
p3541
sI284
S"\t  redirect(URL('index'))"
p3542
sI285
S'     return locals()'
p3543
sI286
S''
sI287
S''
ssg3474
S'()'
p3544
sg3476
S'F2'
p3545
sasS'pyver'
p3546
S'Python 2.7.3: /usr/bin/python'
p3547
sS'session'
p3548
g57
(g58
g59
NtRp3549
(dp3550
g62
(dp3551
sg64
(lp3552
g57
(g66
g59
NtRp3553
(dp3554
g62
(dp3555
g70
I5
ssg71
Nsg64
(lp3556
g57
(g73
g59
NtRp3557
(dp3558
g62
(dp3559
sg71
g3553
sg64
(lp3560
g57
(g78
g59
NtRp3561
(dp3562
g62
(dp3563
g82
g83
ssg71
g3557
sg64
(lp3564
S'auth'
p3565
asbag57
(g78
g59
NtRp3566
(dp3567
g62
(dp3568
g89
g90
ssg71
g3557
sg64
(lp3569
S':'
asbag57
(g78
g59
NtRp3570
(dp3571
g62
(dp3572
sg71
g3557
sg64
(lp3573
g57
(g58
g59
NtRp3574
(dp3575
g62
(dp3576
g70
I5
ssg71
g3570
sg64
(lp3577
g57
(g66
g59
NtRp3578
(dp3579
g62
(dp3580
g70
I4
ssg71
Nsg64
(lp3581
g57
(g73
g59
NtRp3582
(dp3583
g62
(dp3584
sg71
g3578
sg64
(lp3585
g57
(g78
g59
NtRp3586
(dp3587
g62
(dp3588
g82
g83
ssg71
g3582
sg64
(lp3589
S'expiration'
p3590
asbag57
(g78
g59
NtRp3591
(dp3592
g62
(dp3593
g89
g90
ssg71
g3582
sg64
(lp3594
S':'
asbag57
(g78
g59
NtRp3595
(dp3596
g62
(dp3597
sg71
g3582
sg64
(lp3598
g57
(g58
g59
NtRp3599
(dp3600
g62
(dp3601
g70
I4
ssg71
g3595
sg64
(lp3602
S'3600'
p3603
asbasbasbag57
(g73
g59
NtRp3604
(dp3605
g62
(dp3606
sg71
g3578
sg64
(lp3607
g57
(g78
g59
NtRp3608
(dp3609
g62
(dp3610
g82
g83
ssg71
g3604
sg64
(lp3611
S'hmac_key'
p3612
asbag57
(g78
g59
NtRp3613
(dp3614
g62
(dp3615
g89
g90
ssg71
g3604
sg64
(lp3616
S':'
asbag57
(g78
g59
NtRp3617
(dp3618
g62
(dp3619
sg71
g3604
sg64
(lp3620
g57
(g58
g59
NtRp3621
(dp3622
g62
(dp3623
g70
I4
ssg71
g3617
sg64
(lp3624
S'cefd4cb9-d2c8-4448-9a57-793afa221f9a'
p3625
asbasbasbag57
(g73
g59
NtRp3626
(dp3627
g62
(dp3628
sg71
g3578
sg64
(lp3629
g57
(g78
g59
NtRp3630
(dp3631
g62
(dp3632
g82
g83
ssg71
g3626
sg64
(lp3633
S'last_visit'
p3634
asbag57
(g78
g59
NtRp3635
(dp3636
g62
(dp3637
g89
g90
ssg71
g3626
sg64
(lp3638
S':'
asbag57
(g78
g59
NtRp3639
(dp3640
g62
(dp3641
sg71
g3626
sg64
(lp3642
g57
(g58
g59
NtRp3643
(dp3644
g62
(dp3645
g70
I4
ssg71
g3639
sg64
(lp3646
S'datetime.datetime(2013, 4, 6, 21, 16, 29, 674487)'
p3647
asbasbasbag57
(g73
g59
NtRp3648
(dp3649
g62
(dp3650
sg71
g3578
sg64
(lp3651
g57
(g78
g59
NtRp3652
(dp3653
g62
(dp3654
g82
g83
ssg71
g3648
sg64
(lp3655
S'remember'
p3656
asbag57
(g78
g59
NtRp3657
(dp3658
g62
(dp3659
g89
g90
ssg71
g3648
sg64
(lp3660
S':'
asbag57
(g78
g59
NtRp3661
(dp3662
g62
(dp3663
sg71
g3648
sg64
(lp3664
g57
(g58
g59
NtRp3665
(dp3666
g62
(dp3667
g70
I4
ssg71
g3661
sg64
(lp3668
g100
asbasbasbag57
(g73
g59
NtRp3669
(dp3670
g62
(dp3671
sg71
g3578
sg64
(lp3672
g57
(g78
g59
NtRp3673
(dp3674
g62
(dp3675
g82
g83
ssg71
g3669
sg64
(lp3676
S'user'
p3677
asbag57
(g78
g59
NtRp3678
(dp3679
g62
(dp3680
g89
g90
ssg71
g3669
sg64
(lp3681
S':'
asbag57
(g78
g59
NtRp3682
(dp3683
g62
(dp3684
sg71
g3669
sg64
(lp3685
g57
(g58
g59
NtRp3686
(dp3687
g62
(dp3688
g70
I4
ssg71
g3682
sg64
(lp3689
g57
(g66
g59
NtRp3690
(dp3691
g62
(dp3692
g70
I3
ssg71
Nsg64
(lp3693
g57
(g73
g59
NtRp3694
(dp3695
g62
(dp3696
sg71
g3690
sg64
(lp3697
g57
(g78
g59
NtRp3698
(dp3699
g62
(dp3700
g82
g83
ssg71
g3694
sg64
(lp3701
S'email'
p3702
asbag57
(g78
g59
NtRp3703
(dp3704
g62
(dp3705
g89
g90
ssg71
g3694
sg64
(lp3706
S':'
asbag57
(g78
g59
NtRp3707
(dp3708
g62
(dp3709
sg71
g3694
sg64
(lp3710
g57
(g58
g59
NtRp3711
(dp3712
g62
(dp3713
g70
I3
ssg71
g3707
sg64
(lp3714
S'gaurav@gmail.com'
p3715
asbasbasbag57
(g73
g59
NtRp3716
(dp3717
g62
(dp3718
sg71
g3690
sg64
(lp3719
g57
(g78
g59
NtRp3720
(dp3721
g62
(dp3722
g82
g83
ssg71
g3716
sg64
(lp3723
S'first_name'
p3724
asbag57
(g78
g59
NtRp3725
(dp3726
g62
(dp3727
g89
g90
ssg71
g3716
sg64
(lp3728
S':'
asbag57
(g78
g59
NtRp3729
(dp3730
g62
(dp3731
sg71
g3716
sg64
(lp3732
g57
(g58
g59
NtRp3733
(dp3734
g62
(dp3735
g70
I3
ssg71
g3729
sg64
(lp3736
S'Gaurav'
p3737
asbasbasbag57
(g73
g59
NtRp3738
(dp3739
g62
(dp3740
sg71
g3690
sg64
(lp3741
g57
(g78
g59
NtRp3742
(dp3743
g62
(dp3744
g82
g83
ssg71
g3738
sg64
(lp3745
S'id'
p3746
asbag57
(g78
g59
NtRp3747
(dp3748
g62
(dp3749
g89
g90
ssg71
g3738
sg64
(lp3750
S':'
asbag57
(g78
g59
NtRp3751
(dp3752
g62
(dp3753
sg71
g3738
sg64
(lp3754
g57
(g58
g59
NtRp3755
(dp3756
g62
(dp3757
g70
I3
ssg71
g3751
sg64
(lp3758
S'15'
p3759
asbasbasbag57
(g73
g59
NtRp3760
(dp3761
g62
(dp3762
sg71
g3690
sg64
(lp3763
g57
(g78
g59
NtRp3764
(dp3765
g62
(dp3766
g82
g83
ssg71
g3760
sg64
(lp3767
S'last_name'
p3768
asbag57
(g78
g59
NtRp3769
(dp3770
g62
(dp3771
g89
g90
ssg71
g3760
sg64
(lp3772
S':'
asbag57
(g78
g59
NtRp3773
(dp3774
g62
(dp3775
sg71
g3760
sg64
(lp3776
g57
(g58
g59
NtRp3777
(dp3778
g62
(dp3779
g70
I3
ssg71
g3773
sg64
(lp3780
S'Mishra'
p3781
asbasbasbag57
(g73
g59
NtRp3782
(dp3783
g62
(dp3784
sg71
g3690
sg64
(lp3785
g57
(g78
g59
NtRp3786
(dp3787
g62
(dp3788
g82
g83
ssg71
g3782
sg64
(lp3789
S'registration_id'
p3790
asbag57
(g78
g59
NtRp3791
(dp3792
g62
(dp3793
g89
g90
ssg71
g3782
sg64
(lp3794
S':'
asbag57
(g78
g59
NtRp3795
(dp3796
g62
(dp3797
sg71
g3782
sg64
(lp3798
g57
(g58
g59
NtRp3799
(dp3800
g62
(dp3801
g70
I3
ssg71
g3795
sg64
(lp3802
S''
asbasbasbag57
(g73
g59
NtRp3803
(dp3804
g62
(dp3805
sg71
g3690
sg64
(lp3806
g57
(g78
g59
NtRp3807
(dp3808
g62
(dp3809
g82
g83
ssg71
g3803
sg64
(lp3810
S'registration_key'
p3811
asbag57
(g78
g59
NtRp3812
(dp3813
g62
(dp3814
g89
g90
ssg71
g3803
sg64
(lp3815
S':'
asbag57
(g78
g59
NtRp3816
(dp3817
g62
(dp3818
sg71
g3803
sg64
(lp3819
g57
(g58
g59
NtRp3820
(dp3821
g62
(dp3822
g70
I3
ssg71
g3816
sg64
(lp3823
S''
asbasbasbag57
(g73
g59
NtRp3824
(dp3825
g62
(dp3826
sg71
g3690
sg64
(lp3827
g57
(g78
g59
NtRp3828
(dp3829
g62
(dp3830
g82
g83
ssg71
g3824
sg64
(lp3831
S'reset_password_key'
p3832
asbag57
(g78
g59
NtRp3833
(dp3834
g62
(dp3835
g89
g90
ssg71
g3824
sg64
(lp3836
S':'
asbag57
(g78
g59
NtRp3837
(dp3838
g62
(dp3839
sg71
g3824
sg64
(lp3840
g57
(g58
g59
NtRp3841
(dp3842
g62
(dp3843
g70
I3
ssg71
g3837
sg64
(lp3844
S''
asbasbasbasbasbasbasbag57
(g73
g59
NtRp3845
(dp3846
g62
(dp3847
sg71
g3578
sg64
(lp3848
g57
(g78
g59
NtRp3849
(dp3850
g62
(dp3851
g82
g83
ssg71
g3845
sg64
(lp3852
S'user_groups'
p3853
asbag57
(g78
g59
NtRp3854
(dp3855
g62
(dp3856
g89
g90
ssg71
g3845
sg64
(lp3857
S':'
asbag57
(g78
g59
NtRp3858
(dp3859
g62
(dp3860
sg71
g3845
sg64
(lp3861
g57
(g58
g59
NtRp3862
(dp3863
g62
(dp3864
g70
I4
ssg71
g3858
sg64
(lp3865
g57
(g66
g59
NtRp3866
(dp3867
g62
(dp3868
g70
I3
ssg71
Nsg64
(lp3869
g57
(g73
g59
NtRp3870
(dp3871
g62
(dp3872
sg71
g3866
sg64
(lp3873
g57
(g78
g59
NtRp3874
(dp3875
g62
(dp3876
g82
g83
ssg71
g3870
sg64
(lp3877
S'15'
p3878
asbag57
(g78
g59
NtRp3879
(dp3880
g62
(dp3881
g89
g90
ssg71
g3870
sg64
(lp3882
S':'
asbag57
(g78
g59
NtRp3883
(dp3884
g62
(dp3885
sg71
g3870
sg64
(lp3886
g57
(g58
g59
NtRp3887
(dp3888
g62
(dp3889
g70
I3
ssg71
g3883
sg64
(lp3890
S'user_15'
p3891
asbasbasbasbasbasbasbasbasbasbasbag57
(g73
g59
NtRp3892
(dp3893
g62
(dp3894
sg71
g3553
sg64
(lp3895
g57
(g78
g59
NtRp3896
(dp3897
g62
(dp3898
g82
g83
ssg71
g3892
sg64
(lp3899
S'flash'
p3900
asbag57
(g78
g59
NtRp3901
(dp3902
g62
(dp3903
g89
g90
ssg71
g3892
sg64
(lp3904
S':'
asbag57
(g78
g59
NtRp3905
(dp3906
g62
(dp3907
sg71
g3892
sg64
(lp3908
g57
(g58
g59
NtRp3909
(dp3910
g62
(dp3911
g70
I5
ssg71
g3905
sg64
(lp3912
S'None'
p3913
asbasbasbag57
(g73
g59
NtRp3914
(dp3915
g62
(dp3916
sg71
g3553
sg64
(lp3917
g57
(g78
g59
NtRp3918
(dp3919
g62
(dp3920
g82
g83
ssg71
g3914
sg64
(lp3921
S'last_orderby'
p3922
asbag57
(g78
g59
NtRp3923
(dp3924
g62
(dp3925
g89
g90
ssg71
g3914
sg64
(lp3926
S':'
asbag57
(g78
g59
NtRp3927
(dp3928
g62
(dp3929
sg71
g3914
sg64
(lp3930
g57
(g58
g59
NtRp3931
(dp3932
g62
(dp3933
g70
I5
ssg71
g3927
sg64
(lp3934
S'None'
p3935
asbasbasbag57
(g73
g59
NtRp3936
(dp3937
g62
(dp3938
sg71
g3553
sg64
(lp3939
g57
(g78
g59
NtRp3940
(dp3941
g62
(dp3942
g82
g83
ssg71
g3936
sg64
(lp3943
S'last_query'
p3944
asbag57
(g78
g59
NtRp3945
(dp3946
g62
(dp3947
g89
g90
ssg71
g3936
sg64
(lp3948
S':'
asbag57
(g78
g59
NtRp3949
(dp3950
g62
(dp3951
sg71
g3936
sg64
(lp3952
g57
(g58
g59
NtRp3953
(dp3954
g62
(dp3955
g70
I5
ssg71
g3949
sg64
(lp3956
S'db.answer.id>0'
p3957
asbasbasbasbasbsS'etype'
p3958
S"<type 'exceptions.TypeError'>"
p3959
sS'date'
p3960
S'Sat Apr  6 21:20:22 2013'
p3961
sS'response'
p3962
g57
(g58
g59
NtRp3963
(dp3964
g62
(dp3965
sg64
(lp3966
g57
(g66
g59
NtRp3967
(dp3968
g62
(dp3969
g70
I5
ssg71
Nsg64
(lp3970
g57
(g73
g59
NtRp3971
(dp3972
g62
(dp3973
sg71
g3967
sg64
(lp3974
g57
(g78
g59
NtRp3975
(dp3976
g62
(dp3977
g82
g83
ssg71
g3971
sg64
(lp3978
g155
asbag57
(g78
g59
NtRp3979
(dp3980
g62
(dp3981
g89
g90
ssg71
g3971
sg64
(lp3982
S':'
asbag57
(g78
g59
NtRp3983
(dp3984
g62
(dp3985
sg71
g3971
sg64
(lp3986
g57
(g58
g59
NtRp3987
(dp3988
g62
(dp3989
g70
I5
ssg71
g3983
sg64
(lp3990
S'<cStringIO.StringO object at 0xae4a0ca0>'
p3991
asbasbasbag57
(g73
g59
NtRp3992
(dp3993
g62
(dp3994
sg71
g3967
sg64
(lp3995
g57
(g78
g59
NtRp3996
(dp3997
g62
(dp3998
g82
g83
ssg71
g3992
sg64
(lp3999
g243
asbag57
(g78
g59
NtRp4000
(dp4001
g62
(dp4002
g89
g90
ssg71
g3992
sg64
(lp4003
S':'
asbag57
(g78
g59
NtRp4004
(dp4005
g62
(dp4006
sg71
g3992
sg64
(lp4007
g57
(g58
g59
NtRp4008
(dp4009
g62
(dp4010
g70
I5
ssg71
g4004
sg64
(lp4011
g57
(g66
g59
NtRp4012
(dp4013
g62
(dp4014
g70
I4
ssg71
Nsg64
(lp4015
g57
(g73
g59
NtRp4016
(dp4017
g62
(dp4018
sg71
g4012
sg64
(lp4019
g57
(g78
g59
NtRp4020
(dp4021
g62
(dp4022
g82
g83
ssg71
g4016
sg64
(lp4023
S'session_id_onlineexamination'
p4024
asbag57
(g78
g59
NtRp4025
(dp4026
g62
(dp4027
g89
g90
ssg71
g4016
sg64
(lp4028
S':'
asbag57
(g78
g59
NtRp4029
(dp4030
g62
(dp4031
sg71
g4016
sg64
(lp4032
g57
(g58
g59
NtRp4033
(dp4034
g62
(dp4035
g70
I4
ssg71
g4029
sg64
(lp4036
g475
ag57
(g66
g59
NtRp4037
(dp4038
g62
(dp4039
g70
I3
ssg71
Nsg64
(lp4040
g57
(g73
g59
NtRp4041
(dp4042
g62
(dp4043
sg71
g4037
sg64
(lp4044
g57
(g78
g59
NtRp4045
(dp4046
g62
(dp4047
g82
g83
ssg71
g4041
sg64
(lp4048
g294
asbag57
(g78
g59
NtRp4049
(dp4050
g62
(dp4051
g89
g90
ssg71
g4041
sg64
(lp4052
S':'
asbag57
(g78
g59
NtRp4053
(dp4054
g62
(dp4055
sg71
g4041
sg64
(lp4056
g57
(g58
g59
NtRp4057
(dp4058
g62
(dp4059
g70
I3
ssg71
g4053
sg64
(lp4060
S''
asbasbasbag57
(g73
g59
NtRp4061
(dp4062
g62
(dp4063
sg71
g4037
sg64
(lp4064
g57
(g78
g59
NtRp4065
(dp4066
g62
(dp4067
g82
g83
ssg71
g4061
sg64
(lp4068
g315
asbag57
(g78
g59
NtRp4069
(dp4070
g62
(dp4071
g89
g90
ssg71
g4061
sg64
(lp4072
S':'
asbag57
(g78
g59
NtRp4073
(dp4074
g62
(dp4075
sg71
g4061
sg64
(lp4076
g57
(g58
g59
NtRp4077
(dp4078
g62
(dp4079
g70
I3
ssg71
g4073
sg64
(lp4080
S''
asbasbasbag57
(g73
g59
NtRp4081
(dp4082
g62
(dp4083
sg71
g4037
sg64
(lp4084
g57
(g78
g59
NtRp4085
(dp4086
g62
(dp4087
g82
g83
ssg71
g4081
sg64
(lp4088
g336
asbag57
(g78
g59
NtRp4089
(dp4090
g62
(dp4091
g89
g90
ssg71
g4081
sg64
(lp4092
S':'
asbag57
(g78
g59
NtRp4093
(dp4094
g62
(dp4095
sg71
g4081
sg64
(lp4096
g57
(g58
g59
NtRp4097
(dp4098
g62
(dp4099
g70
I3
ssg71
g4093
sg64
(lp4100
S''
asbasbasbag57
(g73
g59
NtRp4101
(dp4102
g62
(dp4103
sg71
g4037
sg64
(lp4104
g57
(g78
g59
NtRp4105
(dp4106
g62
(dp4107
g82
g83
ssg71
g4101
sg64
(lp4108
g357
asbag57
(g78
g59
NtRp4109
(dp4110
g62
(dp4111
g89
g90
ssg71
g4101
sg64
(lp4112
S':'
asbag57
(g78
g59
NtRp4113
(dp4114
g62
(dp4115
sg71
g4101
sg64
(lp4116
g57
(g58
g59
NtRp4117
(dp4118
g62
(dp4119
g70
I3
ssg71
g4113
sg64
(lp4120
S''
asbasbasbag57
(g73
g59
NtRp4121
(dp4122
g62
(dp4123
sg71
g4037
sg64
(lp4124
g57
(g78
g59
NtRp4125
(dp4126
g62
(dp4127
g82
g83
ssg71
g4121
sg64
(lp4128
g378
asbag57
(g78
g59
NtRp4129
(dp4130
g62
(dp4131
g89
g90
ssg71
g4121
sg64
(lp4132
S':'
asbag57
(g78
g59
NtRp4133
(dp4134
g62
(dp4135
sg71
g4121
sg64
(lp4136
g57
(g58
g59
NtRp4137
(dp4138
g62
(dp4139
g70
I3
ssg71
g4133
sg64
(lp4140
S''
asbasbasbag57
(g73
g59
NtRp4141
(dp4142
g62
(dp4143
sg71
g4037
sg64
(lp4144
g57
(g78
g59
NtRp4145
(dp4146
g62
(dp4147
g82
g83
ssg71
g4141
sg64
(lp4148
g399
asbag57
(g78
g59
NtRp4149
(dp4150
g62
(dp4151
g89
g90
ssg71
g4141
sg64
(lp4152
S':'
asbag57
(g78
g59
NtRp4153
(dp4154
g62
(dp4155
sg71
g4141
sg64
(lp4156
g57
(g58
g59
NtRp4157
(dp4158
g62
(dp4159
g70
I3
ssg71
g4153
sg64
(lp4160
S'/'
asbasbasbag57
(g73
g59
NtRp4161
(dp4162
g62
(dp4163
sg71
g4037
sg64
(lp4164
g57
(g78
g59
NtRp4165
(dp4166
g62
(dp4167
g82
g83
ssg71
g4161
sg64
(lp4168
g420
asbag57
(g78
g59
NtRp4169
(dp4170
g62
(dp4171
g89
g90
ssg71
g4161
sg64
(lp4172
S':'
asbag57
(g78
g59
NtRp4173
(dp4174
g62
(dp4175
sg71
g4161
sg64
(lp4176
g57
(g58
g59
NtRp4177
(dp4178
g62
(dp4179
g70
I3
ssg71
g4173
sg64
(lp4180
S''
asbasbasbag57
(g73
g59
NtRp4181
(dp4182
g62
(dp4183
sg71
g4037
sg64
(lp4184
g57
(g78
g59
NtRp4185
(dp4186
g62
(dp4187
g82
g83
ssg71
g4181
sg64
(lp4188
g441
asbag57
(g78
g59
NtRp4189
(dp4190
g62
(dp4191
g89
g90
ssg71
g4181
sg64
(lp4192
S':'
asbag57
(g78
g59
NtRp4193
(dp4194
g62
(dp4195
sg71
g4181
sg64
(lp4196
g57
(g58
g59
NtRp4197
(dp4198
g62
(dp4199
g70
I3
ssg71
g4193
sg64
(lp4200
S''
asbasbasbasbasbasbasbasbasbasbasbag57
(g73
g59
NtRp4201
(dp4202
g62
(dp4203
sg71
g3967
sg64
(lp4204
g57
(g78
g59
NtRp4205
(dp4206
g62
(dp4207
g82
g83
ssg71
g4201
sg64
(lp4208
S'delimiters'
p4209
asbag57
(g78
g59
NtRp4210
(dp4211
g62
(dp4212
g89
g90
ssg71
g4201
sg64
(lp4213
S':'
asbag57
(g78
g59
NtRp4214
(dp4215
g62
(dp4216
sg71
g4201
sg64
(lp4217
g57
(g58
g59
NtRp4218
(dp4219
g62
(dp4220
g70
I5
ssg71
g4214
sg64
(lp4221
g57
(g66
g59
NtRp4222
(dp4223
g62
(dp4224
g70
I4
ssg71
Nsg64
(lp4225
g57
(g73
g59
NtRp4226
(dp4227
g62
(dp4228
sg71
g4222
sg64
(lp4229
g57
(g78
g59
NtRp4230
(dp4231
g62
(dp4232
sg71
g4226
sg64
(lp4233
g57
(g58
g59
NtRp4234
(dp4235
g62
(dp4236
g70
I4
ssg71
g4230
sg64
(lp4237
S'{{'
p4238
asbasbasbag57
(g73
g59
NtRp4239
(dp4240
g62
(dp4241
sg71
g4222
sg64
(lp4242
g57
(g78
g59
NtRp4243
(dp4244
g62
(dp4245
sg71
g4239
sg64
(lp4246
g57
(g58
g59
NtRp4247
(dp4248
g62
(dp4249
g70
I4
ssg71
g4243
sg64
(lp4250
S'}}'
p4251
asbasbasbasbasbasbasbag57
(g73
g59
NtRp4252
(dp4253
g62
(dp4254
sg71
g3967
sg64
(lp4255
g57
(g78
g59
NtRp4256
(dp4257
g62
(dp4258
g82
g83
ssg71
g4252
sg64
(lp4259
S'files'
p4260
asbag57
(g78
g59
NtRp4261
(dp4262
g62
(dp4263
g89
g90
ssg71
g4252
sg64
(lp4264
S':'
asbag57
(g78
g59
NtRp4265
(dp4266
g62
(dp4267
sg71
g4252
sg64
(lp4268
g57
(g58
g59
NtRp4269
(dp4270
g62
(dp4271
g70
I5
ssg71
g4265
sg64
(lp4272
g57
(g66
g59
NtRp4273
(dp4274
g62
(dp4275
g70
I4
ssg71
Nsg64
(lp4276
sbasbasbasbag57
(g73
g59
NtRp4277
(dp4278
g62
(dp4279
sg71
g3967
sg64
(lp4280
g57
(g78
g59
NtRp4281
(dp4282
g62
(dp4283
g82
g83
ssg71
g4277
sg64
(lp4284
S'flash'
p4285
asbag57
(g78
g59
NtRp4286
(dp4287
g62
(dp4288
g89
g90
ssg71
g4277
sg64
(lp4289
S':'
asbag57
(g78
g59
NtRp4290
(dp4291
g62
(dp4292
sg71
g4277
sg64
(lp4293
g57
(g58
g59
NtRp4294
(dp4295
g62
(dp4296
g70
I5
ssg71
g4290
sg64
(lp4297
S''
asbasbasbag57
(g73
g59
NtRp4298
(dp4299
g62
(dp4300
sg71
g3967
sg64
(lp4301
g57
(g78
g59
NtRp4302
(dp4303
g62
(dp4304
g82
g83
ssg71
g4298
sg64
(lp4305
S'generic_patterns'
p4306
asbag57
(g78
g59
NtRp4307
(dp4308
g62
(dp4309
g89
g90
ssg71
g4298
sg64
(lp4310
S':'
asbag57
(g78
g59
NtRp4311
(dp4312
g62
(dp4313
sg71
g4298
sg64
(lp4314
g57
(g58
g59
NtRp4315
(dp4316
g62
(dp4317
g70
I5
ssg71
g4311
sg64
(lp4318
g57
(g66
g59
NtRp4319
(dp4320
g62
(dp4321
g70
I4
ssg71
Nsg64
(lp4322
g57
(g73
g59
NtRp4323
(dp4324
g62
(dp4325
sg71
g4319
sg64
(lp4326
g57
(g78
g59
NtRp4327
(dp4328
g62
(dp4329
sg71
g4323
sg64
(lp4330
g57
(g58
g59
NtRp4331
(dp4332
g62
(dp4333
g70
I4
ssg71
g4327
sg64
(lp4334
S'*'
asbasbasbasbasbasbasbag57
(g73
g59
NtRp4335
(dp4336
g62
(dp4337
sg71
g3967
sg64
(lp4338
g57
(g78
g59
NtRp4339
(dp4340
g62
(dp4341
g82
g83
ssg71
g4335
sg64
(lp4342
S'google_analytics_id'
p4343
asbag57
(g78
g59
NtRp4344
(dp4345
g62
(dp4346
g89
g90
ssg71
g4335
sg64
(lp4347
S':'
asbag57
(g78
g59
NtRp4348
(dp4349
g62
(dp4350
sg71
g4335
sg64
(lp4351
g57
(g58
g59
NtRp4352
(dp4353
g62
(dp4354
g70
I5
ssg71
g4348
sg64
(lp4355
S'None'
p4356
asbasbasbag57
(g73
g59
NtRp4357
(dp4358
g62
(dp4359
sg71
g3967
sg64
(lp4360
g57
(g78
g59
NtRp4361
(dp4362
g62
(dp4363
g82
g83
ssg71
g4357
sg64
(lp4364
S'headers'
p4365
asbag57
(g78
g59
NtRp4366
(dp4367
g62
(dp4368
g89
g90
ssg71
g4357
sg64
(lp4369
S':'
asbag57
(g78
g59
NtRp4370
(dp4371
g62
(dp4372
sg71
g4357
sg64
(lp4373
g57
(g58
g59
NtRp4374
(dp4375
g62
(dp4376
g70
I5
ssg71
g4370
sg64
(lp4377
g57
(g66
g59
NtRp4378
(dp4379
g62
(dp4380
g70
I4
ssg71
Nsg64
(lp4381
g57
(g73
g59
NtRp4382
(dp4383
g62
(dp4384
sg71
g4378
sg64
(lp4385
g57
(g78
g59
NtRp4386
(dp4387
g62
(dp4388
g82
g83
ssg71
g4382
sg64
(lp4389
S'X-Powered-By'
p4390
asbag57
(g78
g59
NtRp4391
(dp4392
g62
(dp4393
g89
g90
ssg71
g4382
sg64
(lp4394
S':'
asbag57
(g78
g59
NtRp4395
(dp4396
g62
(dp4397
sg71
g4382
sg64
(lp4398
g57
(g58
g59
NtRp4399
(dp4400
g62
(dp4401
g70
I4
ssg71
g4395
sg64
(lp4402
S'web2py'
p4403
asbasbasbasbasbasbasbag57
(g73
g59
NtRp4404
(dp4405
g62
(dp4406
sg71
g3967
sg64
(lp4407
g57
(g78
g59
NtRp4408
(dp4409
g62
(dp4410
g82
g83
ssg71
g4404
sg64
(lp4411
S'logo'
p4412
asbag57
(g78
g59
NtRp4413
(dp4414
g62
(dp4415
g89
g90
ssg71
g4404
sg64
(lp4416
S':'
asbag57
(g78
g59
NtRp4417
(dp4418
g62
(dp4419
sg71
g4404
sg64
(lp4420
g57
(g58
g59
NtRp4421
(dp4422
g62
(dp4423
g70
I5
ssg71
g4417
sg64
(lp4424
g57
(cgluon.html
A
p4425
g59
NtRp4426
(dp4427
g62
(dp4428
S'_class'
p4429
S'brand'
p4430
sS'_href'
p4431
S'http://www.web2py.com/'
p4432
ssg71
Nsg64
(lp4433
g57
(cgluon.html
B
p4434
g59
NtRp4435
(dp4436
g62
(dp4437
sg71
g4426
sg64
(lp4438
S'web'
p4439
ag57
(cgluon.html
SPAN
p4440
g59
NtRp4441
(dp4442
g62
(dp4443
sg71
g4435
sg64
(lp4444
I2
asbaS'py'
p4445
asbacgluon.html
XML_unpickle
p4446
(S's\r\x00\x00\x00&trade;&nbsp;'
tRp4447
asbasbasbasbag57
(g73
g59
NtRp4448
(dp4449
g62
(dp4450
sg71
g3967
sg64
(lp4451
g57
(g78
g59
NtRp4452
(dp4453
g62
(dp4454
g82
g83
ssg71
g4448
sg64
(lp4455
S'menu'
p4456
asbag57
(g78
g59
NtRp4457
(dp4458
g62
(dp4459
g89
g90
ssg71
g4448
sg64
(lp4460
S':'
asbag57
(g78
g59
NtRp4461
(dp4462
g62
(dp4463
sg71
g4448
sg64
(lp4464
g57
(g58
g59
NtRp4465
(dp4466
g62
(dp4467
g70
I5
ssg71
g4461
sg64
(lp4468
g57
(g66
g59
NtRp4469
(dp4470
g62
(dp4471
g70
I4
ssg71
Nsg64
(lp4472
g57
(g73
g59
NtRp4473
(dp4474
g62
(dp4475
sg71
g4469
sg64
(lp4476
g57
(g78
g59
NtRp4477
(dp4478
g62
(dp4479
sg71
g4473
sg64
(lp4480
g57
(g58
g59
NtRp4481
(dp4482
g62
(dp4483
g70
I4
ssg71
g4477
sg64
(lp4484
g57
(g66
g59
NtRp4485
(dp4486
g62
(dp4487
g70
I3
ssg71
Nsg64
(lp4488
g57
(g73
g59
NtRp4489
(dp4490
g62
(dp4491
sg71
g4485
sg64
(lp4492
g57
(g78
g59
NtRp4493
(dp4494
g62
(dp4495
sg71
g4489
sg64
(lp4496
g57
(g58
g59
NtRp4497
(dp4498
g62
(dp4499
g70
I3
ssg71
g4493
sg64
(lp4500
cgluon.languages
lazyT_unpickle
p4501
(S's\x04\x00\x00\x00Home'
tRp4502
asbasbasbag57
(g73
g59
NtRp4503
(dp4504
g62
(dp4505
sg71
g4485
sg64
(lp4506
g57
(g78
g59
NtRp4507
(dp4508
g62
(dp4509
sg71
g4503
sg64
(lp4510
g57
(g58
g59
NtRp4511
(dp4512
g62
(dp4513
g70
I3
ssg71
g4507
sg64
(lp4514
g100
asbasbasbag57
(g73
g59
NtRp4515
(dp4516
g62
(dp4517
sg71
g4485
sg64
(lp4518
g57
(g78
g59
NtRp4519
(dp4520
g62
(dp4521
sg71
g4515
sg64
(lp4522
g57
(g58
g59
NtRp4523
(dp4524
g62
(dp4525
g70
I3
ssg71
g4519
sg64
(lp4526
S'/OnlineExamination/default/index'
p4527
asbasbasbag57
(g73
g59
NtRp4528
(dp4529
g62
(dp4530
sg71
g4485
sg64
(lp4531
g57
(g78
g59
NtRp4532
(dp4533
g62
(dp4534
sg71
g4528
sg64
(lp4535
g57
(g58
g59
NtRp4536
(dp4537
g62
(dp4538
g70
I3
ssg71
g4532
sg64
(lp4539
g57
(g66
g59
NtRp4540
(dp4541
g62
(dp4542
g70
I2
ssg71
Nsg64
(lp4543
sbasbasbasbasbasbasbasbag57
(g73
g59
NtRp4544
(dp4545
g62
(dp4546
sg71
g4469
sg64
(lp4547
g57
(g78
g59
NtRp4548
(dp4549
g62
(dp4550
sg71
g4544
sg64
(lp4551
g57
(g58
g59
NtRp4552
(dp4553
g62
(dp4554
g70
I4
ssg71
g4548
sg64
(lp4555
g57
(g66
g59
NtRp4556
(dp4557
g62
(dp4558
g70
I3
ssg71
Nsg64
(lp4559
g57
(g73
g59
NtRp4560
(dp4561
g62
(dp4562
sg71
g4556
sg64
(lp4563
g57
(g78
g59
NtRp4564
(dp4565
g62
(dp4566
sg71
g4560
sg64
(lp4567
g57
(g58
g59
NtRp4568
(dp4569
g62
(dp4570
g70
I3
ssg71
g4564
sg64
(lp4571
g57
(g4440
g59
NtRp4572
(dp4573
g62
(dp4574
g4429
S'highlighted'
p4575
ssg71
Nsg64
(lp4576
g4403
asbasbasbasbag57
(g73
g59
NtRp4577
(dp4578
g62
(dp4579
sg71
g4556
sg64
(lp4580
g57
(g78
g59
NtRp4581
(dp4582
g62
(dp4583
sg71
g4577
sg64
(lp4584
g57
(g58
g59
NtRp4585
(dp4586
g62
(dp4587
g70
I3
ssg71
g4581
sg64
(lp4588
g100
asbasbasbag57
(g73
g59
NtRp4589
(dp4590
g62
(dp4591
sg71
g4556
sg64
(lp4592
g57
(g78
g59
NtRp4593
(dp4594
g62
(dp4595
sg71
g4589
sg64
(lp4596
g57
(g58
g59
NtRp4597
(dp4598
g62
(dp4599
g70
I3
ssg71
g4593
sg64
(lp4600
S'http://web2py.com'
p4601
asbasbasbag57
(g73
g59
NtRp4602
(dp4603
g62
(dp4604
sg71
g4556
sg64
(lp4605
g57
(g78
g59
NtRp4606
(dp4607
g62
(dp4608
sg71
g4602
sg64
(lp4609
g57
(g58
g59
NtRp4610
(dp4611
g62
(dp4612
g70
I3
ssg71
g4606
sg64
(lp4613
g57
(g66
g59
NtRp4614
(dp4615
g62
(dp4616
g70
I2
ssg71
Nsg64
(lp4617
g57
(g73
g59
NtRp4618
(dp4619
g62
(dp4620
sg71
g4614
sg64
(lp4621
g57
(g78
g59
NtRp4622
(dp4623
g62
(dp4624
sg71
g4618
sg64
(lp4625
g57
(g58
g59
NtRp4626
(dp4627
g62
(dp4628
g70
I2
ssg71
g4622
sg64
(lp4629
g57
(g66
g59
NtRp4630
(dp4631
g62
(dp4632
g70
I1
ssg71
Nsg64
(lp4633
g57
(g73
g59
NtRp4634
(dp4635
g62
(dp4636
sg71
g4630
sg64
(lp4637
g57
(g78
g59
NtRp4638
(dp4639
g62
(dp4640
sg71
g4634
sg64
(lp4641
g57
(g58
g59
NtRp4642
(dp4643
g62
(dp4644
g70
I1
ssg71
g4638
sg64
(lp4645
g4501
(S's\x08\x00\x00\x00My Sites'
tRp4646
asbasbasbag57
(g73
g59
NtRp4647
(dp4648
g62
(dp4649
sg71
g4630
sg64
(lp4650
g57
(g78
g59
NtRp4651
(dp4652
g62
(dp4653
sg71
g4647
sg64
(lp4654
g57
(g58
g59
NtRp4655
(dp4656
g62
(dp4657
g70
I1
ssg71
g4651
sg64
(lp4658
I00
asbasbasbag57
(g73
g59
NtRp4659
(dp4660
g62
(dp4661
sg71
g4630
sg64
(lp4662
g57
(g78
g59
NtRp4663
(dp4664
g62
(dp4665
sg71
g4659
sg64
(lp4666
g57
(g58
g59
NtRp4667
(dp4668
g62
(dp4669
g70
I1
ssg71
g4663
sg64
(lp4670
S'/admin/default/site'
p4671
asbasbasbasbasbasbasbag57
(g73
g59
NtRp4672
(dp4673
g62
(dp4674
sg71
g4614
sg64
(lp4675
g57
(g78
g59
NtRp4676
(dp4677
g62
(dp4678
sg71
g4672
sg64
(lp4679
g57
(g58
g59
NtRp4680
(dp4681
g62
(dp4682
g70
I2
ssg71
g4676
sg64
(lp4683
g57
(g66
g59
NtRp4684
(dp4685
g62
(dp4686
g70
I1
ssg71
Nsg64
(lp4687
g57
(g73
g59
NtRp4688
(dp4689
g62
(dp4690
sg71
g4684
sg64
(lp4691
g57
(g78
g59
NtRp4692
(dp4693
g62
(dp4694
sg71
g4688
sg64
(lp4695
g57
(g58
g59
NtRp4696
(dp4697
g62
(dp4698
g70
I1
ssg71
g4692
sg64
(lp4699
g4501
(S's\x08\x00\x00\x00This App'
tRp4700
asbasbasbag57
(g73
g59
NtRp4701
(dp4702
g62
(dp4703
sg71
g4684
sg64
(lp4704
g57
(g78
g59
NtRp4705
(dp4706
g62
(dp4707
sg71
g4701
sg64
(lp4708
g57
(g58
g59
NtRp4709
(dp4710
g62
(dp4711
g70
I1
ssg71
g4705
sg64
(lp4712
I00
asbasbasbag57
(g73
g59
NtRp4713
(dp4714
g62
(dp4715
sg71
g4684
sg64
(lp4716
g57
(g78
g59
NtRp4717
(dp4718
g62
(dp4719
sg71
g4713
sg64
(lp4720
g57
(g58
g59
NtRp4721
(dp4722
g62
(dp4723
g70
I1
ssg71
g4717
sg64
(lp4724
S'/admin/default/design/OnlineExamination'
p4725
asbasbasbag57
(g73
g59
NtRp4726
(dp4727
g62
(dp4728
sg71
g4684
sg64
(lp4729
g57
(g78
g59
NtRp4730
(dp4731
g62
(dp4732
sg71
g4726
sg64
(lp4733
g57
(g58
g59
NtRp4734
(dp4735
g62
(dp4736
g70
I1
ssg71
g4730
sg64
(lp4737
(lp4738
(g4501
(S's\n\x00\x00\x00Controller'
tRp4739
I00
S'/admin/default/edit/OnlineExamination/controllers/default.py'
tp4740
a(g4501
(S's\x04\x00\x00\x00View'
tRp4741
I00
S'/admin/default/edit/OnlineExamination/views/default/F2.html'
tp4742
a(g4501
(S's\x06\x00\x00\x00Layout'
tRp4743
I00
S'/admin/default/edit/OnlineExamination/views/layout.html'
tp4744
a(g4501
(S's\n\x00\x00\x00Stylesheet'
tRp4745
I00
S'/admin/default/edit/OnlineExamination/static/css/web2py.css'
tp4746
a(g4501
(S's\x08\x00\x00\x00DB Model'
tRp4747
I00
S'/admin/default/edit/OnlineExamination/models/db.py'
tp4748
a(g4501
(S's\n\x00\x00\x00Menu Model'
tRp4749
I00
S'/admin/default/edit/OnlineExamination/models/menu.py'
tp4750
a(g4501
(S's\x08\x00\x00\x00Database'
tRp4751
I00
S'/OnlineExamination/appadmin/index'
tp4752
a(g4501
(S's\x06\x00\x00\x00Errors'
tRp4753
I00
S'/admin/default/errors/OnlineExamination'
tp4754
a(g4501
(S's\x05\x00\x00\x00About'
tRp4755
I00
S'/admin/default/about/OnlineExamination'
tp4756
aasbasbasbasbasbasbasbag57
(g73
g59
NtRp4757
(dp4758
g62
(dp4759
sg71
g4614
sg64
(lp4760
g57
(g78
g59
NtRp4761
(dp4762
g62
(dp4763
sg71
g4757
sg64
(lp4764
g57
(g58
g59
NtRp4765
(dp4766
g62
(dp4767
g70
I2
ssg71
g4761
sg64
(lp4768
g57
(g66
g59
NtRp4769
(dp4770
g62
(dp4771
g70
I1
ssg71
Nsg64
(lp4772
g57
(g73
g59
NtRp4773
(dp4774
g62
(dp4775
sg71
g4769
sg64
(lp4776
g57
(g78
g59
NtRp4777
(dp4778
g62
(dp4779
sg71
g4773
sg64
(lp4780
g57
(g58
g59
NtRp4781
(dp4782
g62
(dp4783
g70
I1
ssg71
g4777
sg64
(lp4784
S'web2py.com'
p4785
asbasbasbag57
(g73
g59
NtRp4786
(dp4787
g62
(dp4788
sg71
g4769
sg64
(lp4789
g57
(g78
g59
NtRp4790
(dp4791
g62
(dp4792
sg71
g4786
sg64
(lp4793
g57
(g58
g59
NtRp4794
(dp4795
g62
(dp4796
g70
I1
ssg71
g4790
sg64
(lp4797
I00
asbasbasbag57
(g73
g59
NtRp4798
(dp4799
g62
(dp4800
sg71
g4769
sg64
(lp4801
g57
(g78
g59
NtRp4802
(dp4803
g62
(dp4804
sg71
g4798
sg64
(lp4805
g57
(g58
g59
NtRp4806
(dp4807
g62
(dp4808
g70
I1
ssg71
g4802
sg64
(lp4809
S'http://www.web2py.com'
p4810
asbasbasbag57
(g73
g59
NtRp4811
(dp4812
g62
(dp4813
sg71
g4769
sg64
(lp4814
g57
(g78
g59
NtRp4815
(dp4816
g62
(dp4817
sg71
g4811
sg64
(lp4818
g57
(g58
g59
NtRp4819
(dp4820
g62
(dp4821
g70
I1
ssg71
g4815
sg64
(lp4822
(lp4823
(g4501
(S's\x08\x00\x00\x00Download'
tRp4824
I00
S'http://www.web2py.com/examples/default/download'
p4825
tp4826
a(g4501
(S's\x07\x00\x00\x00Support'
tRp4827
I00
S'http://www.web2py.com/examples/default/support'
p4828
tp4829
a(g4501
(S's\x04\x00\x00\x00Demo'
tRp4830
I00
S'http://web2py.com/demo_admin'
p4831
tp4832
a(g4501
(S's\x0e\x00\x00\x00Quick Examples'
tRp4833
I00
S'http://web2py.com/examples/default/examples'
p4834
tp4835
a(g4501
(S's\x03\x00\x00\x00FAQ'
tRp4836
I00
S'http://web2py.com/AlterEgo'
p4837
tp4838
a(g4501
(S's\x06\x00\x00\x00Videos'
tRp4839
I00
S'http://www.web2py.com/examples/default/videos/'
p4840
tp4841
a(g4501
(S's\x11\x00\x00\x00Free Applications'
tRp4842
I00
S'http://web2py.com/appliances'
p4843
tp4844
a(g4501
(S's\x07\x00\x00\x00Plugins'
tRp4845
I00
S'http://web2py.com/plugins'
p4846
tp4847
a(g4501
(S's\x07\x00\x00\x00Layouts'
tRp4848
I00
S'http://web2py.com/layouts'
p4849
tp4850
a(g4501
(S's\x07\x00\x00\x00Recipes'
tRp4851
I00
S'http://web2pyslices.com/'
p4852
tp4853
a(g4501
(S's\x08\x00\x00\x00Semantic'
tRp4854
I00
S'http://web2py.com/semantic'
p4855
tp4856
aasbasbasbasbasbasbasbag57
(g73
g59
NtRp4857
(dp4858
g62
(dp4859
sg71
g4614
sg64
(lp4860
g57
(g78
g59
NtRp4861
(dp4862
g62
(dp4863
sg71
g4857
sg64
(lp4864
g57
(g58
g59
NtRp4865
(dp4866
g62
(dp4867
g70
I2
ssg71
g4861
sg64
(lp4868
g57
(g66
g59
NtRp4869
(dp4870
g62
(dp4871
g70
I1
ssg71
Nsg64
(lp4872
g57
(g73
g59
NtRp4873
(dp4874
g62
(dp4875
sg71
g4869
sg64
(lp4876
g57
(g78
g59
NtRp4877
(dp4878
g62
(dp4879
sg71
g4873
sg64
(lp4880
g57
(g58
g59
NtRp4881
(dp4882
g62
(dp4883
g70
I1
ssg71
g4877
sg64
(lp4884
g4501
(S's\r\x00\x00\x00Documentation'
tRp4885
asbasbasbag57
(g73
g59
NtRp4886
(dp4887
g62
(dp4888
sg71
g4869
sg64
(lp4889
g57
(g78
g59
NtRp4890
(dp4891
g62
(dp4892
sg71
g4886
sg64
(lp4893
g57
(g58
g59
NtRp4894
(dp4895
g62
(dp4896
g70
I1
ssg71
g4890
sg64
(lp4897
I00
asbasbasbag57
(g73
g59
NtRp4898
(dp4899
g62
(dp4900
sg71
g4869
sg64
(lp4901
g57
(g78
g59
NtRp4902
(dp4903
g62
(dp4904
sg71
g4898
sg64
(lp4905
g57
(g58
g59
NtRp4906
(dp4907
g62
(dp4908
g70
I1
ssg71
g4902
sg64
(lp4909
S'http://www.web2py.com/book'
p4910
asbasbasbag57
(g73
g59
NtRp4911
(dp4912
g62
(dp4913
sg71
g4869
sg64
(lp4914
g57
(g78
g59
NtRp4915
(dp4916
g62
(dp4917
sg71
g4911
sg64
(lp4918
g57
(g58
g59
NtRp4919
(dp4920
g62
(dp4921
g70
I1
ssg71
g4915
sg64
(lp4922
(lp4923
(g4501
(S's\x07\x00\x00\x00Preface'
tRp4924
I00
S'http://www.web2py.com/book/default/chapter/00'
p4925
tp4926
a(g4501
(S's\x0c\x00\x00\x00Introduction'
tRp4927
I00
S'http://www.web2py.com/book/default/chapter/01'
p4928
tp4929
a(g4501
(S's\x06\x00\x00\x00Python'
tRp4930
I00
S'http://www.web2py.com/book/default/chapter/02'
p4931
tp4932
a(g4501
(S's\x08\x00\x00\x00Overview'
tRp4933
I00
S'http://www.web2py.com/book/default/chapter/03'
p4934
tp4935
a(g4501
(S's\x08\x00\x00\x00The Core'
tRp4936
I00
S'http://www.web2py.com/book/default/chapter/04'
p4937
tp4938
a(g4501
(S's\t\x00\x00\x00The Views'
tRp4939
I00
S'http://www.web2py.com/book/default/chapter/05'
p4940
tp4941
a(g4501
(S's\x08\x00\x00\x00Database'
tRp4942
I00
S'http://www.web2py.com/book/default/chapter/06'
p4943
tp4944
a(g4501
(S's\x14\x00\x00\x00Forms and Validators'
tRp4945
I00
S'http://www.web2py.com/book/default/chapter/07'
p4946
tp4947
a(g4501
(S's\r\x00\x00\x00Email and SMS'
tRp4948
I00
S'http://www.web2py.com/book/default/chapter/08'
p4949
tp4950
a(g4501
(S's\x0e\x00\x00\x00Access Control'
tRp4951
I00
S'http://www.web2py.com/book/default/chapter/09'
p4952
tp4953
a(g4501
(S's\x08\x00\x00\x00Services'
tRp4954
I00
S'http://www.web2py.com/book/default/chapter/10'
p4955
tp4956
a(g4501
(S's\x0c\x00\x00\x00Ajax Recipes'
tRp4957
I00
S'http://www.web2py.com/book/default/chapter/11'
p4958
tp4959
a(g4501
(S's\x16\x00\x00\x00Components and Plugins'
tRp4960
I00
S'http://www.web2py.com/book/default/chapter/12'
p4961
tp4962
a(g4501
(S's\x12\x00\x00\x00Deployment Recipes'
tRp4963
I00
S'http://www.web2py.com/book/default/chapter/13'
p4964
tp4965
a(g4501
(S's\r\x00\x00\x00Other Recipes'
tRp4966
I00
S'http://www.web2py.com/book/default/chapter/14'
p4967
tp4968
a(g4501
(S's\r\x00\x00\x00Buy this book'
tRp4969
I00
S'http://stores.lulu.com/web2py'
p4970
tp4971
aasbasbasbasbasbasbasbag57
(g73
g59
NtRp4972
(dp4973
g62
(dp4974
sg71
g4614
sg64
(lp4975
g57
(g78
g59
NtRp4976
(dp4977
g62
(dp4978
sg71
g4972
sg64
(lp4979
g57
(g58
g59
NtRp4980
(dp4981
g62
(dp4982
g70
I2
ssg71
g4976
sg64
(lp4983
g57
(g66
g59
NtRp4984
(dp4985
g62
(dp4986
g70
I1
ssg71
Nsg64
(lp4987
g57
(g73
g59
NtRp4988
(dp4989
g62
(dp4990
sg71
g4984
sg64
(lp4991
g57
(g78
g59
NtRp4992
(dp4993
g62
(dp4994
sg71
g4988
sg64
(lp4995
g57
(g58
g59
NtRp4996
(dp4997
g62
(dp4998
g70
I1
ssg71
g4992
sg64
(lp4999
g4501
(S's\t\x00\x00\x00Community'
tRp5000
asbasbasbag57
(g73
g59
NtRp5001
(dp5002
g62
(dp5003
sg71
g4984
sg64
(lp5004
g57
(g78
g59
NtRp5005
(dp5006
g62
(dp5007
sg71
g5001
sg64
(lp5008
g57
(g58
g59
NtRp5009
(dp5010
g62
(dp5011
g70
I1
ssg71
g5005
sg64
(lp5012
I00
asbasbasbag57
(g73
g59
NtRp5013
(dp5014
g62
(dp5015
sg71
g4984
sg64
(lp5016
g57
(g78
g59
NtRp5017
(dp5018
g62
(dp5019
sg71
g5013
sg64
(lp5020
g57
(g58
g59
NtRp5021
(dp5022
g62
(dp5023
g70
I1
ssg71
g5017
sg64
(lp5024
Nasbasbasbag57
(g73
g59
NtRp5025
(dp5026
g62
(dp5027
sg71
g4984
sg64
(lp5028
g57
(g78
g59
NtRp5029
(dp5030
g62
(dp5031
sg71
g5025
sg64
(lp5032
g57
(g58
g59
NtRp5033
(dp5034
g62
(dp5035
g70
I1
ssg71
g5029
sg64
(lp5036
(lp5037
(g4501
(S's\x06\x00\x00\x00Groups'
tRp5038
I00
S'http://www.web2py.com/examples/default/usergroups'
p5039
tp5040
a(g4501
(S's\x07\x00\x00\x00Twitter'
tRp5041
I00
S'http://twitter.com/web2py'
p5042
tp5043
a(g4501
(S's\t\x00\x00\x00Live Chat'
tRp5044
I00
S'http://webchat.freenode.net/?channels=web2py'
p5045
tp5046
aasbasbasbasbasbasbasbag57
(g73
g59
NtRp5047
(dp5048
g62
(dp5049
sg71
g4614
sg64
(lp5050
g57
(g78
g59
NtRp5051
(dp5052
g62
(dp5053
sg71
g5047
sg64
(lp5054
g57
(g58
g59
NtRp5055
(dp5056
g62
(dp5057
g70
I2
ssg71
g5051
sg64
(lp5058
g57
(g66
g59
NtRp5059
(dp5060
g62
(dp5061
g70
I1
ssg71
Nsg64
(lp5062
g57
(g73
g59
NtRp5063
(dp5064
g62
(dp5065
sg71
g5059
sg64
(lp5066
g57
(g78
g59
NtRp5067
(dp5068
g62
(dp5069
sg71
g5063
sg64
(lp5070
g57
(g58
g59
NtRp5071
(dp5072
g62
(dp5073
g70
I1
ssg71
g5067
sg64
(lp5074
g4501
(S's\x07\x00\x00\x00Plugins'
tRp5075
asbasbasbag57
(g73
g59
NtRp5076
(dp5077
g62
(dp5078
sg71
g5059
sg64
(lp5079
g57
(g78
g59
NtRp5080
(dp5081
g62
(dp5082
sg71
g5076
sg64
(lp5083
g57
(g58
g59
NtRp5084
(dp5085
g62
(dp5086
g70
I1
ssg71
g5080
sg64
(lp5087
I00
asbasbasbag57
(g73
g59
NtRp5088
(dp5089
g62
(dp5090
sg71
g5059
sg64
(lp5091
g57
(g78
g59
NtRp5092
(dp5093
g62
(dp5094
sg71
g5088
sg64
(lp5095
g57
(g58
g59
NtRp5096
(dp5097
g62
(dp5098
g70
I1
ssg71
g5092
sg64
(lp5099
Nasbasbasbag57
(g73
g59
NtRp5100
(dp5101
g62
(dp5102
sg71
g5059
sg64
(lp5103
g57
(g78
g59
NtRp5104
(dp5105
g62
(dp5106
sg71
g5100
sg64
(lp5107
g57
(g58
g59
NtRp5108
(dp5109
g62
(dp5110
g70
I1
ssg71
g5104
sg64
(lp5111
(lp5112
(S'plugin_wiki'
p5113
I00
S'http://web2py.com/examples/default/download'
p5114
tp5115
a(g4501
(S's\r\x00\x00\x00Other Plugins'
tRp5116
I00
g4846
tp5117
a(g4501
(S's\x0e\x00\x00\x00Layout Plugins'
tRp5118
I00
g4849
tp5119
aasbasbasbasbasbasbasbasbasbasbasbasbasbasbasbasbasbasbasbag57
(g73
g59
NtRp5120
(dp5121
g62
(dp5122
sg71
g3967
sg64
(lp5123
g57
(g78
g59
NtRp5124
(dp5125
g62
(dp5126
g82
g83
ssg71
g5120
sg64
(lp5127
S'meta'
p5128
asbag57
(g78
g59
NtRp5129
(dp5130
g62
(dp5131
g89
g90
ssg71
g5120
sg64
(lp5132
S':'
asbag57
(g78
g59
NtRp5133
(dp5134
g62
(dp5135
sg71
g5120
sg64
(lp5136
g57
(g58
g59
NtRp5137
(dp5138
g62
(dp5139
g70
I5
ssg71
g5133
sg64
(lp5140
g57
(g66
g59
NtRp5141
(dp5142
g62
(dp5143
g70
I4
ssg71
Nsg64
(lp5144
g57
(g73
g59
NtRp5145
(dp5146
g62
(dp5147
sg71
g5141
sg64
(lp5148
g57
(g78
g59
NtRp5149
(dp5150
g62
(dp5151
g82
g83
ssg71
g5145
sg64
(lp5152
S'author'
p5153
asbag57
(g78
g59
NtRp5154
(dp5155
g62
(dp5156
g89
g90
ssg71
g5145
sg64
(lp5157
S':'
asbag57
(g78
g59
NtRp5158
(dp5159
g62
(dp5160
sg71
g5145
sg64
(lp5161
g57
(g58
g59
NtRp5162
(dp5163
g62
(dp5164
g70
I4
ssg71
g5158
sg64
(lp5165
S'Your Name <you@example.com>'
p5166
asbasbasbag57
(g73
g59
NtRp5167
(dp5168
g62
(dp5169
sg71
g5141
sg64
(lp5170
g57
(g78
g59
NtRp5171
(dp5172
g62
(dp5173
g82
g83
ssg71
g5167
sg64
(lp5174
S'description'
p5175
asbag57
(g78
g59
NtRp5176
(dp5177
g62
(dp5178
g89
g90
ssg71
g5167
sg64
(lp5179
S':'
asbag57
(g78
g59
NtRp5180
(dp5181
g62
(dp5182
sg71
g5167
sg64
(lp5183
g57
(g58
g59
NtRp5184
(dp5185
g62
(dp5186
g70
I4
ssg71
g5180
sg64
(lp5187
S'a cool new app'
p5188
asbasbasbag57
(g73
g59
NtRp5189
(dp5190
g62
(dp5191
sg71
g5141
sg64
(lp5192
g57
(g78
g59
NtRp5193
(dp5194
g62
(dp5195
g82
g83
ssg71
g5189
sg64
(lp5196
S'generator'
p5197
asbag57
(g78
g59
NtRp5198
(dp5199
g62
(dp5200
g89
g90
ssg71
g5189
sg64
(lp5201
S':'
asbag57
(g78
g59
NtRp5202
(dp5203
g62
(dp5204
sg71
g5189
sg64
(lp5205
g57
(g58
g59
NtRp5206
(dp5207
g62
(dp5208
g70
I4
ssg71
g5202
sg64
(lp5209
S'Web2py Web Framework'
p5210
asbasbasbag57
(g73
g59
NtRp5211
(dp5212
g62
(dp5213
sg71
g5141
sg64
(lp5214
g57
(g78
g59
NtRp5215
(dp5216
g62
(dp5217
g82
g83
ssg71
g5211
sg64
(lp5218
S'keywords'
p5219
asbag57
(g78
g59
NtRp5220
(dp5221
g62
(dp5222
g89
g90
ssg71
g5211
sg64
(lp5223
S':'
asbag57
(g78
g59
NtRp5224
(dp5225
g62
(dp5226
sg71
g5211
sg64
(lp5227
g57
(g58
g59
NtRp5228
(dp5229
g62
(dp5230
g70
I4
ssg71
g5224
sg64
(lp5231
S'web2py, python, framework'
p5232
asbasbasbasbasbasbasbag57
(g73
g59
NtRp5233
(dp5234
g62
(dp5235
sg71
g3967
sg64
(lp5236
g57
(g78
g59
NtRp5237
(dp5238
g62
(dp5239
g82
g83
ssg71
g5233
sg64
(lp5240
S'models_to_run'
p5241
asbag57
(g78
g59
NtRp5242
(dp5243
g62
(dp5244
g89
g90
ssg71
g5233
sg64
(lp5245
S':'
asbag57
(g78
g59
NtRp5246
(dp5247
g62
(dp5248
sg71
g5233
sg64
(lp5249
g57
(g58
g59
NtRp5250
(dp5251
g62
(dp5252
g70
I5
ssg71
g5246
sg64
(lp5253
g57
(g66
g59
NtRp5254
(dp5255
g62
(dp5256
g70
I4
ssg71
Nsg64
(lp5257
g57
(g73
g59
NtRp5258
(dp5259
g62
(dp5260
sg71
g5254
sg64
(lp5261
g57
(g78
g59
NtRp5262
(dp5263
g62
(dp5264
sg71
g5258
sg64
(lp5265
g57
(g58
g59
NtRp5266
(dp5267
g62
(dp5268
g70
I4
ssg71
g5262
sg64
(lp5269
S'^\\w+\\.py$'
p5270
asbasbasbag57
(g73
g59
NtRp5271
(dp5272
g62
(dp5273
sg71
g5254
sg64
(lp5274
g57
(g78
g59
NtRp5275
(dp5276
g62
(dp5277
sg71
g5271
sg64
(lp5278
g57
(g58
g59
NtRp5279
(dp5280
g62
(dp5281
g70
I4
ssg71
g5275
sg64
(lp5282
S'^default/\\w+\\.py$'
p5283
asbasbasbag57
(g73
g59
NtRp5284
(dp5285
g62
(dp5286
sg71
g5254
sg64
(lp5287
g57
(g78
g59
NtRp5288
(dp5289
g62
(dp5290
sg71
g5284
sg64
(lp5291
g57
(g58
g59
NtRp5292
(dp5293
g62
(dp5294
g70
I4
ssg71
g5288
sg64
(lp5295
S'^default/F2/\\w+\\.py$'
p5296
asbasbasbasbasbasbasbag57
(g73
g59
NtRp5297
(dp5298
g62
(dp5299
sg71
g3967
sg64
(lp5300
g57
(g78
g59
NtRp5301
(dp5302
g62
(dp5303
g82
g83
ssg71
g5297
sg64
(lp5304
S'postprocessing'
p5305
asbag57
(g78
g59
NtRp5306
(dp5307
g62
(dp5308
g89
g90
ssg71
g5297
sg64
(lp5309
S':'
asbag57
(g78
g59
NtRp5310
(dp5311
g62
(dp5312
sg71
g5297
sg64
(lp5313
g57
(g58
g59
NtRp5314
(dp5315
g62
(dp5316
g70
I5
ssg71
g5310
sg64
(lp5317
g57
(g66
g59
NtRp5318
(dp5319
g62
(dp5320
g70
I4
ssg71
Nsg64
(lp5321
sbasbasbasbag57
(g73
g59
NtRp5322
(dp5323
g62
(dp5324
sg71
g3967
sg64
(lp5325
g57
(g78
g59
NtRp5326
(dp5327
g62
(dp5328
g82
g83
ssg71
g5322
sg64
(lp5329
S'session_cookie_expires'
p5330
asbag57
(g78
g59
NtRp5331
(dp5332
g62
(dp5333
g89
g90
ssg71
g5322
sg64
(lp5334
S':'
asbag57
(g78
g59
NtRp5335
(dp5336
g62
(dp5337
sg71
g5322
sg64
(lp5338
g57
(g58
g59
NtRp5339
(dp5340
g62
(dp5341
g70
I5
ssg71
g5335
sg64
(lp5342
S'None'
p5343
asbasbasbag57
(g73
g59
NtRp5344
(dp5345
g62
(dp5346
sg71
g3967
sg64
(lp5347
g57
(g78
g59
NtRp5348
(dp5349
g62
(dp5350
g82
g83
ssg71
g5344
sg64
(lp5351
S'session_data_name'
p5352
asbag57
(g78
g59
NtRp5353
(dp5354
g62
(dp5355
g89
g90
ssg71
g5344
sg64
(lp5356
S':'
asbag57
(g78
g59
NtRp5357
(dp5358
g62
(dp5359
sg71
g5344
sg64
(lp5360
g57
(g58
g59
NtRp5361
(dp5362
g62
(dp5363
g70
I5
ssg71
g5357
sg64
(lp5364
S'session_data_onlineexamination'
p5365
asbasbasbag57
(g73
g59
NtRp5366
(dp5367
g62
(dp5368
sg71
g3967
sg64
(lp5369
g57
(g78
g59
NtRp5370
(dp5371
g62
(dp5372
g82
g83
ssg71
g5366
sg64
(lp5373
S'session_file'
p5374
asbag57
(g78
g59
NtRp5375
(dp5376
g62
(dp5377
g89
g90
ssg71
g5366
sg64
(lp5378
S':'
asbag57
(g78
g59
NtRp5379
(dp5380
g62
(dp5381
sg71
g5366
sg64
(lp5382
g57
(g58
g59
NtRp5383
(dp5384
g62
(dp5385
g70
I5
ssg71
g5379
sg64
(lp5386
S"<open file '/home/gaurav/classwork/WEB_PROGRAMMING/web2py/applications/OnlineExamination/sessions/127.0.0.1-890005ee-6292-472c-99ed-b32ea0089194', mode 'rb+' at 0xa9392e0>"
p5387
asbasbasbag57
(g73
g59
NtRp5388
(dp5389
g62
(dp5390
sg71
g3967
sg64
(lp5391
g57
(g78
g59
NtRp5392
(dp5393
g62
(dp5394
g82
g83
ssg71
g5388
sg64
(lp5395
S'session_filename'
p5396
asbag57
(g78
g59
NtRp5397
(dp5398
g62
(dp5399
g89
g90
ssg71
g5388
sg64
(lp5400
S':'
asbag57
(g78
g59
NtRp5401
(dp5402
g62
(dp5403
sg71
g5388
sg64
(lp5404
g57
(g58
g59
NtRp5405
(dp5406
g62
(dp5407
g70
I5
ssg71
g5401
sg64
(lp5408
S'/home/gaurav/classwork/WEB_PROGRAMMING/web2py/applications/OnlineExamination/sessions/127.0.0.1-890005ee-6292-472c-99ed-b32ea0089194'
p5409
asbasbasbag57
(g73
g59
NtRp5410
(dp5411
g62
(dp5412
sg71
g3967
sg64
(lp5413
g57
(g78
g59
NtRp5414
(dp5415
g62
(dp5416
g82
g83
ssg71
g5410
sg64
(lp5417
S'session_id'
p5418
asbag57
(g78
g59
NtRp5419
(dp5420
g62
(dp5421
g89
g90
ssg71
g5410
sg64
(lp5422
S':'
asbag57
(g78
g59
NtRp5423
(dp5424
g62
(dp5425
sg71
g5410
sg64
(lp5426
g57
(g58
g59
NtRp5427
(dp5428
g62
(dp5429
g70
I5
ssg71
g5423
sg64
(lp5430
g475
asbasbasbag57
(g73
g59
NtRp5431
(dp5432
g62
(dp5433
sg71
g3967
sg64
(lp5434
g57
(g78
g59
NtRp5435
(dp5436
g62
(dp5437
g82
g83
ssg71
g5431
sg64
(lp5438
S'session_id_name'
p5439
asbag57
(g78
g59
NtRp5440
(dp5441
g62
(dp5442
g89
g90
ssg71
g5431
sg64
(lp5443
S':'
asbag57
(g78
g59
NtRp5444
(dp5445
g62
(dp5446
sg71
g5431
sg64
(lp5447
g57
(g58
g59
NtRp5448
(dp5449
g62
(dp5450
g70
I5
ssg71
g5444
sg64
(lp5451
g4024
asbasbasbag57
(g73
g59
NtRp5452
(dp5453
g62
(dp5454
sg71
g3967
sg64
(lp5455
g57
(g78
g59
NtRp5456
(dp5457
g62
(dp5458
g82
g83
ssg71
g5452
sg64
(lp5459
S'session_locked'
p5460
asbag57
(g78
g59
NtRp5461
(dp5462
g62
(dp5463
g89
g90
ssg71
g5452
sg64
(lp5464
S':'
asbag57
(g78
g59
NtRp5465
(dp5466
g62
(dp5467
sg71
g5452
sg64
(lp5468
g57
(g58
g59
NtRp5469
(dp5470
g62
(dp5471
g70
I5
ssg71
g5465
sg64
(lp5472
g1876
asbasbasbag57
(g73
g59
NtRp5473
(dp5474
g62
(dp5475
sg71
g3967
sg64
(lp5476
g57
(g78
g59
NtRp5477
(dp5478
g62
(dp5479
g82
g83
ssg71
g5473
sg64
(lp5480
S'session_new'
p5481
asbag57
(g78
g59
NtRp5482
(dp5483
g62
(dp5484
g89
g90
ssg71
g5473
sg64
(lp5485
S':'
asbag57
(g78
g59
NtRp5486
(dp5487
g62
(dp5488
sg71
g5473
sg64
(lp5489
g57
(g58
g59
NtRp5490
(dp5491
g62
(dp5492
g70
I5
ssg71
g5486
sg64
(lp5493
g100
asbasbasbag57
(g73
g59
NtRp5494
(dp5495
g62
(dp5496
sg71
g3967
sg64
(lp5497
g57
(g78
g59
NtRp5498
(dp5499
g62
(dp5500
g82
g83
ssg71
g5494
sg64
(lp5501
S'session_storage_type'
p5502
asbag57
(g78
g59
NtRp5503
(dp5504
g62
(dp5505
g89
g90
ssg71
g5494
sg64
(lp5506
S':'
asbag57
(g78
g59
NtRp5507
(dp5508
g62
(dp5509
sg71
g5494
sg64
(lp5510
g57
(g58
g59
NtRp5511
(dp5512
g62
(dp5513
g70
I5
ssg71
g5507
sg64
(lp5514
g3453
asbasbasbag57
(g73
g59
NtRp5515
(dp5516
g62
(dp5517
sg71
g3967
sg64
(lp5518
g57
(g78
g59
NtRp5519
(dp5520
g62
(dp5521
g82
g83
ssg71
g5515
sg64
(lp5522
S'status'
p5523
asbag57
(g78
g59
NtRp5524
(dp5525
g62
(dp5526
g89
g90
ssg71
g5515
sg64
(lp5527
S':'
asbag57
(g78
g59
NtRp5528
(dp5529
g62
(dp5530
sg71
g5515
sg64
(lp5531
g57
(g58
g59
NtRp5532
(dp5533
g62
(dp5534
g70
I5
ssg71
g5528
sg64
(lp5535
S'200'
p5536
asbasbasbag57
(g73
g59
NtRp5537
(dp5538
g62
(dp5539
sg71
g3967
sg64
(lp5540
g57
(g78
g59
NtRp5541
(dp5542
g62
(dp5543
g82
g83
ssg71
g5537
sg64
(lp5544
S'subtitle'
p5545
asbag57
(g78
g59
NtRp5546
(dp5547
g62
(dp5548
g89
g90
ssg71
g5537
sg64
(lp5549
S':'
asbag57
(g78
g59
NtRp5550
(dp5551
g62
(dp5552
sg71
g5537
sg64
(lp5553
g57
(g58
g59
NtRp5554
(dp5555
g62
(dp5556
g70
I5
ssg71
g5550
sg64
(lp5557
g4501
(S's\x13\x00\x00\x00Online Exam Portal!'
tRp5558
asbasbasbag57
(g73
g59
NtRp5559
(dp5560
g62
(dp5561
sg71
g3967
sg64
(lp5562
g57
(g78
g59
NtRp5563
(dp5564
g62
(dp5565
g82
g83
ssg71
g5559
sg64
(lp5566
S'title'
p5567
asbag57
(g78
g59
NtRp5568
(dp5569
g62
(dp5570
g89
g90
ssg71
g5559
sg64
(lp5571
S':'
asbag57
(g78
g59
NtRp5572
(dp5573
g62
(dp5574
sg71
g5559
sg64
(lp5575
g57
(g58
g59
NtRp5576
(dp5577
g62
(dp5578
g70
I5
ssg71
g5572
sg64
(lp5579
S'Onlineexamination'
p5580
asbasbasbag57
(g73
g59
NtRp5581
(dp5582
g62
(dp5583
sg71
g3967
sg64
(lp5584
g57
(g78
g59
NtRp5585
(dp5586
g62
(dp5587
g82
g83
ssg71
g5581
sg64
(lp5588
S'view'
p5589
asbag57
(g78
g59
NtRp5590
(dp5591
g62
(dp5592
g89
g90
ssg71
g5581
sg64
(lp5593
S':'
asbag57
(g78
g59
NtRp5594
(dp5595
g62
(dp5596
sg71
g5581
sg64
(lp5597
g57
(g58
g59
NtRp5598
(dp5599
g62
(dp5600
g70
I5
ssg71
g5594
sg64
(lp5601
S'default/F2.html'
p5602
asbasbasbasbasbsS'locals'
p5603
(dp5604
S'x'
S"'2'"
p5605
sS't'
S'<Rows (0)>'
p5606
sssS'traceback'
p5607
S'Traceback (most recent call last):\n  File "/home/gaurav/classwork/WEB_PROGRAMMING/web2py/gluon/restricted.py", line 212, in restricted\n    exec ccode in environment\n  File "/home/gaurav/classwork/WEB_PROGRAMMING/web2py/applications/OnlineExamination/controllers/default.py", line 296, in <module>\n  File "/home/gaurav/classwork/WEB_PROGRAMMING/web2py/gluon/globals.py", line 193, in <lambda>\n    self._caller = lambda f: f()\n  File "/home/gaurav/classwork/WEB_PROGRAMMING/web2py/gluon/tools.py", line 2929, in f\n    return action(*a, **b)\n  File "/home/gaurav/classwork/WEB_PROGRAMMING/web2py/applications/OnlineExamination/controllers/default.py", line 283, in F2\n    response.flash(\'jhkjh\')\nTypeError: \'str\' object is not callable\n'
p5608
s.