(dp1
S'output'
p2
S"<type 'exceptions.IndentationError'> unindent does not match any outer indentation level (default.py, line 111)"
p3
sS'layer'
p4
S'/home/saurabh/web2py/applications/OnlineExamination/controllers/default.py'
p5
sS'code'
p6
S'# -*- coding: utf-8 -*-\n# this file is released under public domain and you can use without limitations\n\n#########################################################################\n## This is a samples controller\n## - index is the default action of any application\n## - user is required for authentication and authorization\n## - download is for downloading files uploaded in the db (does streaming)\n## - call exposes all registered services (none by default)\n#########################################################################\n\n\ndef index():\n    """\n    example action using the internationalization operator T and flash\n    rendered by views/default/index.html or views/generic.html\n\n    if you need a simple wiki simple replace the two lines below with:\n    return auth.wiki()\n    """\n    response.flash = T("Welcome To Online Examination")\n    if(auth.user):\n\t print \'count is updated\'\n\t db(auth.user.email==db.student.email).update(coun=1)\n    return dict(message=T(\'Hello World\'))\n\n@auth.requires_login()\n@auth.requires_membership(\'IIIT_FACULTY_DEPARTMENT\')\ndef teacher_index():\n    if(auth.user):\n\t print \'count is updated 1\'\n\t db(auth.user.email==db.student.email).update(coun=1)\n    return locals()\n\n\n@auth.requires_login()\ndef student_index():\n    if(auth.user):\n\t print \'count is updated 2 \'\n\t db(auth.user.email==db.student.email).update(coun=1)\n    return locals()\n\n@auth.requires_login()\ndef performance():\n     redirect(URL(\'show_paper\'))\n\ndef user():\n    """\n    exposes:\n    http://..../[app]/default/user/login\n    http://..../[app]/default/user/logout\n    http://..../[app]/default/user/register\n    http://..../[app]/default/user/profile\n    http://..../[app]/default/user/retrieve_password\n    http://..../[app]/default/user/change_password\n    use @auth.requires_login()\n        @auth.requires_membership(\'group name\')\n        @auth.requires_permission(\'read\',\'table name\',record_id)\n\n    to decorate functions that need access control\n    """\n    return dict(form=auth())\n\n\ndef download():\n    """\n    allows downloading of uploaded files\n    http://..../[app]/default/download/[filename]\n    """\n    return response.download(request, db)\n\n\ndef call():\n    """\n    exposes services. for example:\n    http://..../[app]/default/call/jsonrpc\n    decorate with @services.jsonrpc the functions to expose\n    supports xml, json, xmlrpc, jsonrpc, amfrpc, rss, csv\n    """\n    return service()\n\n\n@auth.requires_signature()\ndef data():\n    """\n    http://..../[app]/default/data/tables\n    http://..../[app]/default/data/create/[table]\n    http://..../[app]/default/data/read/[table]/[id]\n    http://..../[app]/default/data/update/[table]/[id]\n    http://..../[app]/default/data/delete/[table]/[id]\n    http://..../[app]/default/data/select/[table]\n    http://..../[app]/default/data/search/[table]\n    but URLs must be signed, i.e. linked with\n      A(\'table\',_href=URL(\'data/tables\',user_signature=True))\n    or with the signed load operator\n      LOAD(\'default\',\'data.load\',args=\'tables\',ajax=True,user_signature=True)\n    """\n    return dict(form=crud())\n\n\n\n\n\n#---------------------------------------------------Project Starts---------------------------------------------------------------#\n\n@auth.requires_login()\ndef student_info():\n    if(auth.user):\n\t print \'count is updated 2 \'\n\t db(auth.user.email==db.student.email).update(coun=1)\n     a=auth.user.email\n     b=auth.user.first_name\n     c=auth.user.last_name\n     response.flash=\'Logged in as \'+b+\' \'+c\n     form=SQLFORM(db.student)\n     form.vars.email=a\n     if (form.accepts(request,session)):\n\t  response.flash="Personal Information Successfully Added"\n     return dict(form=form)\n\n@auth.requires_login()\n@auth.requires_membership(\'IIIT_FACULTY_DEPARTMENT\')\ndef set_paper():\n     form=SQLFORM(db.questions)\n     form.vars.faculty_id=auth.user.email\n     if form.accepts(request,session):\n\t  response.flash="Question Inserted"\n     return dict(form=form)\n\n\n@auth.requires_login()\ndef exam():\n     p={}\n     CHECK_TEACHER=db((auth.user.id==db.auth_membership.user_id)&(db.auth_membership.group_id==17)).select(db.auth_user.ALL)\n     x=db(db.see.id==8).select(db.see.course)\n     x=x[0][\'course\']\n     k=db(auth.user.email==db.student.email).select(db.student.email)\n     if k:\n\t  t=db((auth.user.email==db.answer.stid) & (x==db.answer.course)).select(db.answer.given)\n\t  print t\n\t  if t:\n\t       if t[0][\'given\']==1:\n\t\t    response.flash=\'You have already given the Examination\'\n\t\t    redirect(\'index\')\n\t  start_time=db(db.times.course==x).select(db.times.start_time)\n          end_time=db(db.times.course==x).select(db.times.end_time)\n          exam_date=db(db.times.course==x).select(db.times.date_of_exam)\n          p=db(auth.user.email==db.student.email).select(db.student.coun)\n\t  print \'p\'\n\t  print p\n          n=p[0][\'coun\']\n\t  print \'it is count\'\n\t  print n\n          que={}\n          que=db((db.questions.course==x)&(db.questions.que_number==n)).select(db.questions.que_number,\n\t       \t\t\t\t            db.questions.question,\n\t\t\t\t\t            db.questions.option_a,\n\t                                            db.questions.option_b,\n\t                                            db.questions.option_c,\n\t                                            db.questions.option_d,\n\t  \t\t\t\t            )\n          if (db((auth.user.id==db.auth_membership.user_id)&(db.auth_membership.group_id==17)).select(db.auth_user.ALL)):\n\t       form=SQLFORM.factory(\n\t\t\t Field(\'ans\',requires=IS_IN_SET([\'A\',\'B\',\'C\',\'D\'],multiple=True),widget=SQLFORM.widgets.checkboxes.widget),\n\t\t\t Field(\'com\',\'text\'))\n\t\t\t      \n\t\t\t \n\t       \n\t  else:\n\t       form=SQLFORM.factory(\n\t\t\t Field(\'ans\',requires=IS_IN_SET([\'A\',\'B\',\'C\',\'D\'],multiple=True),widget=SQLFORM.widgets.checkboxes.widget\n\t\t\t      )\n\t\t\t )\n\t  check=db((auth.user.email==db.answer.stid)&(n==db.answer.que_num)&(db.see.course==db.answer.course)).select(db.answer.ALL)\n\t  if(form.accepts(request,session)):\n\t       response.flash="Answer Submitted"\n\t       if check:\n\t\t    db((auth.user.email==db.answer.stid)&(n==db.answer.que_num)&(x==db.answer.course)).update(op= form.vars.ans,course=x)\n\t       else:\n\t\t    db.answer.insert(que_num=n,stid=auth.user.email,op=form.vars.ans,course=x)\n\t       response.flash=str(form.vars.ans)+"asdasd"\n\t       if CHECK_TEACHER:\n\t\t    if(form.vars.com):\n\t\t\t db.comments.insert(faculty_id=auth.user.email,que=n,course=x,comment_given=form.vars.com)\n\t     \n\t       redirect(\'next\')\n\n     if k:\n\t  if que:\n\t       if CHECK_TEACHER:\n\t\t    com=db((db.comments.que==n)&(db.comments.course==x)).select(db.comments.comment_given)\n\t\t    return dict(que=que,form=form,com=com,start_time=start_time,end_time=end_time,exam_date=exam_date)\n\t       else:\n\t\t    com={}\n\t\t    return dict(que=que,form=form,com=com,start_time=start_time,end_time=end_time,exam_date=exam_date)\n\n\t  else:\n\t       print \'amit has given exam\'\n\t       redirect(URL(\'default\',\'show\'))\n     else:\n\t  redirect(URL(\'default\',\'student_info\'))\n\t  \n\n\n@auth.requires_login()\ndef next():\n     p=db(auth.user.email==db.student.email).select(db.student.coun)\n     x=db(db.see.id==8).select(db.see.course)\n     x=x[0][\'course\']\n     n=p[0][\'coun\']\n     correct=db((db.questions.que_number==n)&(db.questions.course==x)).select(db.questions.ans)\n     given=db((db.answer.stid==auth.user.email)&(db.answer.que_num==n)&(db.answer.course==x)).select(db.answer.op)\n     print given[0][\'op\']\n     if given and given[0][\'op\']!=\'||\':\n\t  print \'aaaaa\'\n\t  if(given!=None and correct[0][\'ans\']==given[0][\'op\']):\n\t       db(db.questions.que_number==n).update(stid=auth.user.email)\n\t       db((db.questions.stid==auth.user.email)&(db.questions.que_number==n)).update(obtained_marks=4)\n\t  elif(correct!=given and given!=None):\n\t       db(db.questions.que_number==n).update(stid=auth.user.email)\n\t       db((db.questions.stid==auth.user.email)&(db.questions.que_number==n)).update(obtained_marks=-1)\n     \n     db(auth.user.email==db.student.email).update(coun=n+1)\n     que=db(db.questions.que_number>0).select(db.questions.que_number)\n     redirect(URL(\'default\',\'exam\'))\n\n\ndef prev():\n     p=db(auth.user.email==db.student.email).select(db.student.coun)\n     n=p[0][\'coun\']\n     if(n-1>0):\n\t  db(auth.user.email==db.student.email).update(coun=n-1)\n     if(n-1>0):\n\t  redirect(URL(\'default\',\'exam\'))\n     else:\n\t  redirect(URL(\'default\',\'exam\'))\ndef courses():\n     return locals()\ndef noq():\n     return locals()\n\ndef list():\n     k=db((db.auth_membership.user_id==db.auth_user.id)&(db.auth_membership.group_id!=17)).select(db.auth_user.first_name,db.auth_user.last_name)\n     return dict(k=k)\n\n\ndef faculty():\n     f=db((db.auth_membership.user_id==db.auth_user.id)&(db.auth_membership.group_id==17)).select(db.auth_user.first_name,db.auth_user.last_name)\n     return dict(f=f)\n\ndef show():\n     x=db(db.see.id==8).select(db.see.course)\n     x=x[0][\'course\']\n     a=auth.user.email\n     k=db((db.questions.stid==a)&(db.questions.course==x)).select(db.questions.obtained_marks)\n     marks=0\n     db((auth.user.email==db.answer.stid)&(x==db.answer.course)).update(given=1)\n     for i in range(len(k)):\n\t  marks=marks+k[i][\'obtained_marks\']\n     db(auth.user.email==db.student.email).update(final_marks=marks)\n     return dict(marks=marks)\n     if (db((auth.user.id==db.auth_membership.user_id)&(db.auth_membership.group_id==17)).select(db.auth_user.ALL)):\n\t  print\'wallah\'\n\ndef give_exam():\n     return locals()\n\ndef which_one():\n     p=request.post_vars[\'id\']\n     db(db.see.id==8).update(course=p)\n     redirect(URL(\'exam\'))\n\n@auth.requires_login()\ndef show_paper():\n     if (db((auth.user.id==db.auth_membership.user_id)&(db.auth_membership.group_id==17)).select(db.auth_user.ALL)):\n\t  query=db.questions.faculty_id==auth.user.email\n\t  grid=SQLFORM.grid(query)\n\t  return locals()\n     else:\n\t  redirect(URL(\'F1\'))\n\t  return locals()\n\n\n@auth.requires_login()\ndef F1():\n     return locals()\n\n\n@auth.requires_login()\ndef F2():\n     x=request.post_vars[\'id\']\n     t=db((auth.user.email==db.answer.stid) & (x==db.answer.course)).select(db.answer.given)\n     if t:\n\t  ans=db((auth.user.email==db.answer.stid) & (db.answer.course==x)).select(db.answer.que_num,db.answer.op)\n\t  ques=db(x==db.questions.course).select(db.questions.ALL)\n\t  return dict(ans=ans,ques=ques)\n     else:\n\t  session.flash="You have not given exam of this course"\n\t  redirect(URL(\'student_index\'))\n     return locals()\n\n\n@auth.requires_login()\n@auth.requires_membership(\'IIIT_FACULTY_DEPARTMENT\')\ndef set_time():\n     form=SQLFORM(db.times)\n     if (form.accepts(request,session)):\n\t  response.flash="Time Setted"\n     return dict(form=form)\n\nresponse._vars=response._caller(give_exam)\n'
p7
sS'snapshot'
p8
(dp9
S'exception'
p10
(dp11
S'__getslice__'
p12
S"<method-wrapper '__getslice__' of exceptions.IndentationError object>"
p13
sS'text'
p14
S"'     a=auth.user.email\\n'"
p15
sS'__str__'
p16
S"<method-wrapper '__str__' of exceptions.IndentationError object>"
p17
sS'__reduce__'
p18
S'<built-in method __reduce__ of exceptions.IndentationError object>'
p19
sS'__dict__'
p20
S'{}'
p21
sS'__sizeof__'
p22
S'<built-in method __sizeof__ of exceptions.IndentationError object>'
p23
sS'__init__'
p24
S"<method-wrapper '__init__' of exceptions.IndentationError object>"
p25
sS'__setattr__'
p26
S"<method-wrapper '__setattr__' of exceptions.IndentationError object>"
p27
sS'__reduce_ex__'
p28
S'<built-in method __reduce_ex__ of exceptions.IndentationError object>'
p29
sS'__new__'
p30
S'<built-in method __new__ of type object>'
p31
sS'__format__'
p32
S'<built-in method __format__ of exceptions.IndentationError object>'
p33
sS'__class__'
p34
S"<type 'exceptions.IndentationError'>"
p35
sS'filename'
p36
S"'/home/saurabh/web2py/applications/OnlineExamination/controllers/default.py'"
p37
sS'lineno'
p38
S'111'
p39
sS'msg'
p40
S"'unindent does not match any outer indentation level'"
p41
sS'__doc__'
p42
S"'Improper indentation.'"
p43
sS'__getitem__'
p44
S"<method-wrapper '__getitem__' of exceptions.IndentationError object>"
p45
sS'__setstate__'
p46
S'<built-in method __setstate__ of exceptions.IndentationError object>'
p47
sS'__getattribute__'
p48
S"<method-wrapper '__getattribute__' of exceptions.IndentationError object>"
p49
sS'print_file_and_line'
p50
S'None'
p51
sS'args'
p52
S"('unindent does not match any outer indentation level', ('/home/saurabh/web2py/applications/OnlineExamination/controllers/default.py', 111, 23, '     a=auth.user.email\\n'))"
p53
sS'__subclasshook__'
p54
S'<built-in method __subclasshook__ of type object>'
p55
sS'offset'
p56
S'23'
p57
sS'__unicode__'
p58
S'<built-in method __unicode__ of exceptions.IndentationError object>'
p59
sS'__delattr__'
p60
S"<method-wrapper '__delattr__' of exceptions.IndentationError object>"
p61
sS'__repr__'
p62
S"<method-wrapper '__repr__' of exceptions.IndentationError object>"
p63
sS'__hash__'
p64
S"<method-wrapper '__hash__' of exceptions.IndentationError object>"
p65
ssS'evalue'
p66
S'unindent does not match any outer indentation level (default.py, line 111)'
p67
sS'request'
p68
ccopy_reg
_reconstructor
p69
(cgluon.html
BEAUTIFY
p70
c__builtin__
object
p71
NtRp72
(dp73
S'attributes'
p74
(dp75
sS'components'
p76
(lp77
g69
(cgluon.html
TABLE
p78
g71
NtRp79
(dp80
g74
(dp81
S'level'
p82
I5
ssS'parent'
p83
Nsg76
(lp84
g69
(cgluon.html
TR
p85
g71
NtRp86
(dp87
g74
(dp88
sg83
g79
sg76
(lp89
g69
(cgluon.html
TD
p90
g71
NtRp91
(dp92
g74
(dp93
S'_style'
p94
S'font-weight:bold;vertical-align:top'
p95
ssg83
g86
sg76
(lp96
S'ajax'
p97
asbag69
(g90
g71
NtRp98
(dp99
g74
(dp100
S'_valign'
p101
S'top'
p102
ssg83
g86
sg76
(lp103
S':'
asbag69
(g90
g71
NtRp104
(dp105
g74
(dp106
sg83
g86
sg76
(lp107
g69
(g70
g71
NtRp108
(dp109
g74
(dp110
g82
I5
ssg83
g104
sg76
(lp111
S'False'
p112
asbasbasbag69
(g85
g71
NtRp113
(dp114
g74
(dp115
sg83
g79
sg76
(lp116
g69
(g90
g71
NtRp117
(dp118
g74
(dp119
g94
g95
ssg83
g113
sg76
(lp120
S'application'
p121
asbag69
(g90
g71
NtRp122
(dp123
g74
(dp124
g101
g102
ssg83
g113
sg76
(lp125
S':'
asbag69
(g90
g71
NtRp126
(dp127
g74
(dp128
sg83
g113
sg76
(lp129
g69
(g70
g71
NtRp130
(dp131
g74
(dp132
g82
I5
ssg83
g126
sg76
(lp133
S'OnlineExamination'
p134
asbasbasbag69
(g85
g71
NtRp135
(dp136
g74
(dp137
sg83
g79
sg76
(lp138
g69
(g90
g71
NtRp139
(dp140
g74
(dp141
g94
g95
ssg83
g135
sg76
(lp142
g52
asbag69
(g90
g71
NtRp143
(dp144
g74
(dp145
g101
g102
ssg83
g135
sg76
(lp146
S':'
asbag69
(g90
g71
NtRp147
(dp148
g74
(dp149
sg83
g135
sg76
(lp150
g69
(g70
g71
NtRp151
(dp152
g74
(dp153
g82
I5
ssg83
g147
sg76
(lp154
g69
(g78
g71
NtRp155
(dp156
g74
(dp157
g82
I4
ssg83
Nsg76
(lp158
sbasbasbasbag69
(g85
g71
NtRp159
(dp160
g74
(dp161
sg83
g79
sg76
(lp162
g69
(g90
g71
NtRp163
(dp164
g74
(dp165
g94
g95
ssg83
g159
sg76
(lp166
S'body'
p167
asbag69
(g90
g71
NtRp168
(dp169
g74
(dp170
g101
g102
ssg83
g159
sg76
(lp171
S':'
asbag69
(g90
g71
NtRp172
(dp173
g74
(dp174
sg83
g159
sg76
(lp175
g69
(g70
g71
NtRp176
(dp177
g74
(dp178
g82
I5
ssg83
g172
sg76
(lp179
S'<cStringIO.StringO object at 0x7f2500501ab0>'
p180
asbasbasbag69
(g85
g71
NtRp181
(dp182
g74
(dp183
sg83
g79
sg76
(lp184
g69
(g90
g71
NtRp185
(dp186
g74
(dp187
g94
g95
ssg83
g181
sg76
(lp188
S'cid'
p189
asbag69
(g90
g71
NtRp190
(dp191
g74
(dp192
g101
g102
ssg83
g181
sg76
(lp193
S':'
asbag69
(g90
g71
NtRp194
(dp195
g74
(dp196
sg83
g181
sg76
(lp197
g69
(g70
g71
NtRp198
(dp199
g74
(dp200
g82
I5
ssg83
g194
sg76
(lp201
S'None'
p202
asbasbasbag69
(g85
g71
NtRp203
(dp204
g74
(dp205
sg83
g79
sg76
(lp206
g69
(g90
g71
NtRp207
(dp208
g74
(dp209
g94
g95
ssg83
g203
sg76
(lp210
S'client'
p211
asbag69
(g90
g71
NtRp212
(dp213
g74
(dp214
g101
g102
ssg83
g203
sg76
(lp215
S':'
asbag69
(g90
g71
NtRp216
(dp217
g74
(dp218
sg83
g203
sg76
(lp219
g69
(g70
g71
NtRp220
(dp221
g74
(dp222
g82
I5
ssg83
g216
sg76
(lp223
S'127.0.0.1'
p224
asbasbasbag69
(g85
g71
NtRp225
(dp226
g74
(dp227
sg83
g79
sg76
(lp228
g69
(g90
g71
NtRp229
(dp230
g74
(dp231
g94
g95
ssg83
g225
sg76
(lp232
S'controller'
p233
asbag69
(g90
g71
NtRp234
(dp235
g74
(dp236
g101
g102
ssg83
g225
sg76
(lp237
S':'
asbag69
(g90
g71
NtRp238
(dp239
g74
(dp240
sg83
g225
sg76
(lp241
g69
(g70
g71
NtRp242
(dp243
g74
(dp244
g82
I5
ssg83
g238
sg76
(lp245
S'default'
p246
asbasbasbag69
(g85
g71
NtRp247
(dp248
g74
(dp249
sg83
g79
sg76
(lp250
g69
(g90
g71
NtRp251
(dp252
g74
(dp253
g94
g95
ssg83
g247
sg76
(lp254
S'cookies'
p255
asbag69
(g90
g71
NtRp256
(dp257
g74
(dp258
g101
g102
ssg83
g247
sg76
(lp259
S':'
asbag69
(g90
g71
NtRp260
(dp261
g74
(dp262
sg83
g247
sg76
(lp263
g69
(g70
g71
NtRp264
(dp265
g74
(dp266
g82
I5
ssg83
g260
sg76
(lp267
g69
(g78
g71
NtRp268
(dp269
g74
(dp270
g82
I4
ssg83
Nsg76
(lp271
g69
(g85
g71
NtRp272
(dp273
g74
(dp274
sg83
g268
sg76
(lp275
g69
(g90
g71
NtRp276
(dp277
g74
(dp278
g94
g95
ssg83
g272
sg76
(lp279
S'session_id_admin'
p280
asbag69
(g90
g71
NtRp281
(dp282
g74
(dp283
g101
g102
ssg83
g272
sg76
(lp284
S':'
asbag69
(g90
g71
NtRp285
(dp286
g74
(dp287
sg83
g272
sg76
(lp288
g69
(g70
g71
NtRp289
(dp290
g74
(dp291
g82
I4
ssg83
g285
sg76
(lp292
S'127.0.0.1-64b5e907-3927-4fd1-97ee-d50706e5ee41'
p293
ag69
(g78
g71
NtRp294
(dp295
g74
(dp296
g82
I3
ssg83
Nsg76
(lp297
g69
(g85
g71
NtRp298
(dp299
g74
(dp300
sg83
g294
sg76
(lp301
g69
(g90
g71
NtRp302
(dp303
g74
(dp304
g94
g95
ssg83
g298
sg76
(lp305
S'comment'
p306
asbag69
(g90
g71
NtRp307
(dp308
g74
(dp309
g101
g102
ssg83
g298
sg76
(lp310
S':'
asbag69
(g90
g71
NtRp311
(dp312
g74
(dp313
sg83
g298
sg76
(lp314
g69
(g70
g71
NtRp315
(dp316
g74
(dp317
g82
I3
ssg83
g311
sg76
(lp318
S''
asbasbasbag69
(g85
g71
NtRp319
(dp320
g74
(dp321
sg83
g294
sg76
(lp322
g69
(g90
g71
NtRp323
(dp324
g74
(dp325
g94
g95
ssg83
g319
sg76
(lp326
S'domain'
p327
asbag69
(g90
g71
NtRp328
(dp329
g74
(dp330
g101
g102
ssg83
g319
sg76
(lp331
S':'
asbag69
(g90
g71
NtRp332
(dp333
g74
(dp334
sg83
g319
sg76
(lp335
g69
(g70
g71
NtRp336
(dp337
g74
(dp338
g82
I3
ssg83
g332
sg76
(lp339
S''
asbasbasbag69
(g85
g71
NtRp340
(dp341
g74
(dp342
sg83
g294
sg76
(lp343
g69
(g90
g71
NtRp344
(dp345
g74
(dp346
g94
g95
ssg83
g340
sg76
(lp347
S'expires'
p348
asbag69
(g90
g71
NtRp349
(dp350
g74
(dp351
g101
g102
ssg83
g340
sg76
(lp352
S':'
asbag69
(g90
g71
NtRp353
(dp354
g74
(dp355
sg83
g340
sg76
(lp356
g69
(g70
g71
NtRp357
(dp358
g74
(dp359
g82
I3
ssg83
g353
sg76
(lp360
S''
asbasbasbag69
(g85
g71
NtRp361
(dp362
g74
(dp363
sg83
g294
sg76
(lp364
g69
(g90
g71
NtRp365
(dp366
g74
(dp367
g94
g95
ssg83
g361
sg76
(lp368
S'httponly'
p369
asbag69
(g90
g71
NtRp370
(dp371
g74
(dp372
g101
g102
ssg83
g361
sg76
(lp373
S':'
asbag69
(g90
g71
NtRp374
(dp375
g74
(dp376
sg83
g361
sg76
(lp377
g69
(g70
g71
NtRp378
(dp379
g74
(dp380
g82
I3
ssg83
g374
sg76
(lp381
S''
asbasbasbag69
(g85
g71
NtRp382
(dp383
g74
(dp384
sg83
g294
sg76
(lp385
g69
(g90
g71
NtRp386
(dp387
g74
(dp388
g94
g95
ssg83
g382
sg76
(lp389
S'max-age'
p390
asbag69
(g90
g71
NtRp391
(dp392
g74
(dp393
g101
g102
ssg83
g382
sg76
(lp394
S':'
asbag69
(g90
g71
NtRp395
(dp396
g74
(dp397
sg83
g382
sg76
(lp398
g69
(g70
g71
NtRp399
(dp400
g74
(dp401
g82
I3
ssg83
g395
sg76
(lp402
S''
asbasbasbag69
(g85
g71
NtRp403
(dp404
g74
(dp405
sg83
g294
sg76
(lp406
g69
(g90
g71
NtRp407
(dp408
g74
(dp409
g94
g95
ssg83
g403
sg76
(lp410
S'path'
p411
asbag69
(g90
g71
NtRp412
(dp413
g74
(dp414
g101
g102
ssg83
g403
sg76
(lp415
S':'
asbag69
(g90
g71
NtRp416
(dp417
g74
(dp418
sg83
g403
sg76
(lp419
g69
(g70
g71
NtRp420
(dp421
g74
(dp422
g82
I3
ssg83
g416
sg76
(lp423
S''
asbasbasbag69
(g85
g71
NtRp424
(dp425
g74
(dp426
sg83
g294
sg76
(lp427
g69
(g90
g71
NtRp428
(dp429
g74
(dp430
g94
g95
ssg83
g424
sg76
(lp431
S'secure'
p432
asbag69
(g90
g71
NtRp433
(dp434
g74
(dp435
g101
g102
ssg83
g424
sg76
(lp436
S':'
asbag69
(g90
g71
NtRp437
(dp438
g74
(dp439
sg83
g424
sg76
(lp440
g69
(g70
g71
NtRp441
(dp442
g74
(dp443
g82
I3
ssg83
g437
sg76
(lp444
S''
asbasbasbag69
(g85
g71
NtRp445
(dp446
g74
(dp447
sg83
g294
sg76
(lp448
g69
(g90
g71
NtRp449
(dp450
g74
(dp451
g94
g95
ssg83
g445
sg76
(lp452
S'version'
p453
asbag69
(g90
g71
NtRp454
(dp455
g74
(dp456
g101
g102
ssg83
g445
sg76
(lp457
S':'
asbag69
(g90
g71
NtRp458
(dp459
g74
(dp460
sg83
g445
sg76
(lp461
g69
(g70
g71
NtRp462
(dp463
g74
(dp464
g82
I3
ssg83
g458
sg76
(lp465
S''
asbasbasbasbasbasbasbag69
(g85
g71
NtRp466
(dp467
g74
(dp468
sg83
g268
sg76
(lp469
g69
(g90
g71
NtRp470
(dp471
g74
(dp472
g94
g95
ssg83
g466
sg76
(lp473
S'session_id_onlineexamination'
p474
asbag69
(g90
g71
NtRp475
(dp476
g74
(dp477
g101
g102
ssg83
g466
sg76
(lp478
S':'
asbag69
(g90
g71
NtRp479
(dp480
g74
(dp481
sg83
g466
sg76
(lp482
g69
(g70
g71
NtRp483
(dp484
g74
(dp485
g82
I4
ssg83
g479
sg76
(lp486
S'127.0.0.1-d2228566-6160-4d2f-a4b5-d7a6fcc4e876'
p487
ag69
(g78
g71
NtRp488
(dp489
g74
(dp490
g82
I3
ssg83
Nsg76
(lp491
g69
(g85
g71
NtRp492
(dp493
g74
(dp494
sg83
g488
sg76
(lp495
g69
(g90
g71
NtRp496
(dp497
g74
(dp498
g94
g95
ssg83
g492
sg76
(lp499
g306
asbag69
(g90
g71
NtRp500
(dp501
g74
(dp502
g101
g102
ssg83
g492
sg76
(lp503
S':'
asbag69
(g90
g71
NtRp504
(dp505
g74
(dp506
sg83
g492
sg76
(lp507
g69
(g70
g71
NtRp508
(dp509
g74
(dp510
g82
I3
ssg83
g504
sg76
(lp511
S''
asbasbasbag69
(g85
g71
NtRp512
(dp513
g74
(dp514
sg83
g488
sg76
(lp515
g69
(g90
g71
NtRp516
(dp517
g74
(dp518
g94
g95
ssg83
g512
sg76
(lp519
g327
asbag69
(g90
g71
NtRp520
(dp521
g74
(dp522
g101
g102
ssg83
g512
sg76
(lp523
S':'
asbag69
(g90
g71
NtRp524
(dp525
g74
(dp526
sg83
g512
sg76
(lp527
g69
(g70
g71
NtRp528
(dp529
g74
(dp530
g82
I3
ssg83
g524
sg76
(lp531
S''
asbasbasbag69
(g85
g71
NtRp532
(dp533
g74
(dp534
sg83
g488
sg76
(lp535
g69
(g90
g71
NtRp536
(dp537
g74
(dp538
g94
g95
ssg83
g532
sg76
(lp539
g348
asbag69
(g90
g71
NtRp540
(dp541
g74
(dp542
g101
g102
ssg83
g532
sg76
(lp543
S':'
asbag69
(g90
g71
NtRp544
(dp545
g74
(dp546
sg83
g532
sg76
(lp547
g69
(g70
g71
NtRp548
(dp549
g74
(dp550
g82
I3
ssg83
g544
sg76
(lp551
S''
asbasbasbag69
(g85
g71
NtRp552
(dp553
g74
(dp554
sg83
g488
sg76
(lp555
g69
(g90
g71
NtRp556
(dp557
g74
(dp558
g94
g95
ssg83
g552
sg76
(lp559
g369
asbag69
(g90
g71
NtRp560
(dp561
g74
(dp562
g101
g102
ssg83
g552
sg76
(lp563
S':'
asbag69
(g90
g71
NtRp564
(dp565
g74
(dp566
sg83
g552
sg76
(lp567
g69
(g70
g71
NtRp568
(dp569
g74
(dp570
g82
I3
ssg83
g564
sg76
(lp571
S''
asbasbasbag69
(g85
g71
NtRp572
(dp573
g74
(dp574
sg83
g488
sg76
(lp575
g69
(g90
g71
NtRp576
(dp577
g74
(dp578
g94
g95
ssg83
g572
sg76
(lp579
g390
asbag69
(g90
g71
NtRp580
(dp581
g74
(dp582
g101
g102
ssg83
g572
sg76
(lp583
S':'
asbag69
(g90
g71
NtRp584
(dp585
g74
(dp586
sg83
g572
sg76
(lp587
g69
(g70
g71
NtRp588
(dp589
g74
(dp590
g82
I3
ssg83
g584
sg76
(lp591
S''
asbasbasbag69
(g85
g71
NtRp592
(dp593
g74
(dp594
sg83
g488
sg76
(lp595
g69
(g90
g71
NtRp596
(dp597
g74
(dp598
g94
g95
ssg83
g592
sg76
(lp599
g411
asbag69
(g90
g71
NtRp600
(dp601
g74
(dp602
g101
g102
ssg83
g592
sg76
(lp603
S':'
asbag69
(g90
g71
NtRp604
(dp605
g74
(dp606
sg83
g592
sg76
(lp607
g69
(g70
g71
NtRp608
(dp609
g74
(dp610
g82
I3
ssg83
g604
sg76
(lp611
S''
asbasbasbag69
(g85
g71
NtRp612
(dp613
g74
(dp614
sg83
g488
sg76
(lp615
g69
(g90
g71
NtRp616
(dp617
g74
(dp618
g94
g95
ssg83
g612
sg76
(lp619
g432
asbag69
(g90
g71
NtRp620
(dp621
g74
(dp622
g101
g102
ssg83
g612
sg76
(lp623
S':'
asbag69
(g90
g71
NtRp624
(dp625
g74
(dp626
sg83
g612
sg76
(lp627
g69
(g70
g71
NtRp628
(dp629
g74
(dp630
g82
I3
ssg83
g624
sg76
(lp631
S''
asbasbasbag69
(g85
g71
NtRp632
(dp633
g74
(dp634
sg83
g488
sg76
(lp635
g69
(g90
g71
NtRp636
(dp637
g74
(dp638
g94
g95
ssg83
g632
sg76
(lp639
g453
asbag69
(g90
g71
NtRp640
(dp641
g74
(dp642
g101
g102
ssg83
g632
sg76
(lp643
S':'
asbag69
(g90
g71
NtRp644
(dp645
g74
(dp646
sg83
g632
sg76
(lp647
g69
(g70
g71
NtRp648
(dp649
g74
(dp650
g82
I3
ssg83
g644
sg76
(lp651
S''
asbasbasbasbasbasbasbag69
(g85
g71
NtRp652
(dp653
g74
(dp654
sg83
g268
sg76
(lp655
g69
(g90
g71
NtRp656
(dp657
g74
(dp658
g94
g95
ssg83
g652
sg76
(lp659
S'session_id_welcome'
p660
asbag69
(g90
g71
NtRp661
(dp662
g74
(dp663
g101
g102
ssg83
g652
sg76
(lp664
S':'
asbag69
(g90
g71
NtRp665
(dp666
g74
(dp667
sg83
g652
sg76
(lp668
g69
(g70
g71
NtRp669
(dp670
g74
(dp671
g82
I4
ssg83
g665
sg76
(lp672
S'127.0.0.1-73ea7aea-dc43-4078-a44c-3ba780ff4d9e'
p673
ag69
(g78
g71
NtRp674
(dp675
g74
(dp676
g82
I3
ssg83
Nsg76
(lp677
g69
(g85
g71
NtRp678
(dp679
g74
(dp680
sg83
g674
sg76
(lp681
g69
(g90
g71
NtRp682
(dp683
g74
(dp684
g94
g95
ssg83
g678
sg76
(lp685
g306
asbag69
(g90
g71
NtRp686
(dp687
g74
(dp688
g101
g102
ssg83
g678
sg76
(lp689
S':'
asbag69
(g90
g71
NtRp690
(dp691
g74
(dp692
sg83
g678
sg76
(lp693
g69
(g70
g71
NtRp694
(dp695
g74
(dp696
g82
I3
ssg83
g690
sg76
(lp697
S''
asbasbasbag69
(g85
g71
NtRp698
(dp699
g74
(dp700
sg83
g674
sg76
(lp701
g69
(g90
g71
NtRp702
(dp703
g74
(dp704
g94
g95
ssg83
g698
sg76
(lp705
g327
asbag69
(g90
g71
NtRp706
(dp707
g74
(dp708
g101
g102
ssg83
g698
sg76
(lp709
S':'
asbag69
(g90
g71
NtRp710
(dp711
g74
(dp712
sg83
g698
sg76
(lp713
g69
(g70
g71
NtRp714
(dp715
g74
(dp716
g82
I3
ssg83
g710
sg76
(lp717
S''
asbasbasbag69
(g85
g71
NtRp718
(dp719
g74
(dp720
sg83
g674
sg76
(lp721
g69
(g90
g71
NtRp722
(dp723
g74
(dp724
g94
g95
ssg83
g718
sg76
(lp725
g348
asbag69
(g90
g71
NtRp726
(dp727
g74
(dp728
g101
g102
ssg83
g718
sg76
(lp729
S':'
asbag69
(g90
g71
NtRp730
(dp731
g74
(dp732
sg83
g718
sg76
(lp733
g69
(g70
g71
NtRp734
(dp735
g74
(dp736
g82
I3
ssg83
g730
sg76
(lp737
S''
asbasbasbag69
(g85
g71
NtRp738
(dp739
g74
(dp740
sg83
g674
sg76
(lp741
g69
(g90
g71
NtRp742
(dp743
g74
(dp744
g94
g95
ssg83
g738
sg76
(lp745
g369
asbag69
(g90
g71
NtRp746
(dp747
g74
(dp748
g101
g102
ssg83
g738
sg76
(lp749
S':'
asbag69
(g90
g71
NtRp750
(dp751
g74
(dp752
sg83
g738
sg76
(lp753
g69
(g70
g71
NtRp754
(dp755
g74
(dp756
g82
I3
ssg83
g750
sg76
(lp757
S''
asbasbasbag69
(g85
g71
NtRp758
(dp759
g74
(dp760
sg83
g674
sg76
(lp761
g69
(g90
g71
NtRp762
(dp763
g74
(dp764
g94
g95
ssg83
g758
sg76
(lp765
g390
asbag69
(g90
g71
NtRp766
(dp767
g74
(dp768
g101
g102
ssg83
g758
sg76
(lp769
S':'
asbag69
(g90
g71
NtRp770
(dp771
g74
(dp772
sg83
g758
sg76
(lp773
g69
(g70
g71
NtRp774
(dp775
g74
(dp776
g82
I3
ssg83
g770
sg76
(lp777
S''
asbasbasbag69
(g85
g71
NtRp778
(dp779
g74
(dp780
sg83
g674
sg76
(lp781
g69
(g90
g71
NtRp782
(dp783
g74
(dp784
g94
g95
ssg83
g778
sg76
(lp785
g411
asbag69
(g90
g71
NtRp786
(dp787
g74
(dp788
g101
g102
ssg83
g778
sg76
(lp789
S':'
asbag69
(g90
g71
NtRp790
(dp791
g74
(dp792
sg83
g778
sg76
(lp793
g69
(g70
g71
NtRp794
(dp795
g74
(dp796
g82
I3
ssg83
g790
sg76
(lp797
S''
asbasbasbag69
(g85
g71
NtRp798
(dp799
g74
(dp800
sg83
g674
sg76
(lp801
g69
(g90
g71
NtRp802
(dp803
g74
(dp804
g94
g95
ssg83
g798
sg76
(lp805
g432
asbag69
(g90
g71
NtRp806
(dp807
g74
(dp808
g101
g102
ssg83
g798
sg76
(lp809
S':'
asbag69
(g90
g71
NtRp810
(dp811
g74
(dp812
sg83
g798
sg76
(lp813
g69
(g70
g71
NtRp814
(dp815
g74
(dp816
g82
I3
ssg83
g810
sg76
(lp817
S''
asbasbasbag69
(g85
g71
NtRp818
(dp819
g74
(dp820
sg83
g674
sg76
(lp821
g69
(g90
g71
NtRp822
(dp823
g74
(dp824
g94
g95
ssg83
g818
sg76
(lp825
g453
asbag69
(g90
g71
NtRp826
(dp827
g74
(dp828
g101
g102
ssg83
g818
sg76
(lp829
S':'
asbag69
(g90
g71
NtRp830
(dp831
g74
(dp832
sg83
g818
sg76
(lp833
g69
(g70
g71
NtRp834
(dp835
g74
(dp836
g82
I3
ssg83
g830
sg76
(lp837
S''
asbasbasbasbasbasbasbasbasbasbasbag69
(g85
g71
NtRp838
(dp839
g74
(dp840
sg83
g79
sg76
(lp841
g69
(g90
g71
NtRp842
(dp843
g74
(dp844
g94
g95
ssg83
g838
sg76
(lp845
S'env'
p846
asbag69
(g90
g71
NtRp847
(dp848
g74
(dp849
g101
g102
ssg83
g838
sg76
(lp850
S':'
asbag69
(g90
g71
NtRp851
(dp852
g74
(dp853
sg83
g838
sg76
(lp854
g69
(g70
g71
NtRp855
(dp856
g74
(dp857
g82
I5
ssg83
g851
sg76
(lp858
g69
(g78
g71
NtRp859
(dp860
g74
(dp861
g82
I4
ssg83
Nsg76
(lp862
g69
(g85
g71
NtRp863
(dp864
g74
(dp865
sg83
g859
sg76
(lp866
g69
(g90
g71
NtRp867
(dp868
g74
(dp869
g94
g95
ssg83
g863
sg76
(lp870
S'app_folders'
p871
asbag69
(g90
g71
NtRp872
(dp873
g74
(dp874
g101
g102
ssg83
g863
sg76
(lp875
S':'
asbag69
(g90
g71
NtRp876
(dp877
g74
(dp878
sg83
g863
sg76
(lp879
g69
(g70
g71
NtRp880
(dp881
g74
(dp882
g82
I4
ssg83
g876
sg76
(lp883
S"set(['/home/saurabh/web2py/applications/admin/', '/home/saurabh/web2py/applications/OnlineExamination/', '/home/saurabh/web2py/applications/welcome/'])"
p884
asbasbasbag69
(g85
g71
NtRp885
(dp886
g74
(dp887
sg83
g859
sg76
(lp888
g69
(g90
g71
NtRp889
(dp890
g74
(dp891
g94
g95
ssg83
g885
sg76
(lp892
S'applications_parent'
p893
asbag69
(g90
g71
NtRp894
(dp895
g74
(dp896
g101
g102
ssg83
g885
sg76
(lp897
S':'
asbag69
(g90
g71
NtRp898
(dp899
g74
(dp900
sg83
g885
sg76
(lp901
g69
(g70
g71
NtRp902
(dp903
g74
(dp904
g82
I4
ssg83
g898
sg76
(lp905
S'/home/saurabh/web2py'
p906
asbasbasbag69
(g85
g71
NtRp907
(dp908
g74
(dp909
sg83
g859
sg76
(lp910
g69
(g90
g71
NtRp911
(dp912
g74
(dp913
g94
g95
ssg83
g907
sg76
(lp914
S'cmd_args'
p915
asbag69
(g90
g71
NtRp916
(dp917
g74
(dp918
g101
g102
ssg83
g907
sg76
(lp919
S':'
asbag69
(g90
g71
NtRp920
(dp921
g74
(dp922
sg83
g907
sg76
(lp923
g69
(g70
g71
NtRp924
(dp925
g74
(dp926
g82
I4
ssg83
g920
sg76
(lp927
g69
(g78
g71
NtRp928
(dp929
g74
(dp930
g82
I3
ssg83
Nsg76
(lp931
sbasbasbasbag69
(g85
g71
NtRp932
(dp933
g74
(dp934
sg83
g859
sg76
(lp935
g69
(g90
g71
NtRp936
(dp937
g74
(dp938
g94
g95
ssg83
g932
sg76
(lp939
S'cmd_options'
p940
asbag69
(g90
g71
NtRp941
(dp942
g74
(dp943
g101
g102
ssg83
g932
sg76
(lp944
S':'
asbag69
(g90
g71
NtRp945
(dp946
g74
(dp947
sg83
g932
sg76
(lp948
g69
(g70
g71
NtRp949
(dp950
g74
(dp951
g82
I4
ssg83
g945
sg76
(lp952
S"<Values at 0x32c78c0: {'verbose': False, 'ip': '127.0.0.1', 'with_scheduler': False, 'ips': [], 'shutdown_timeout': 5, 'taskbar': False, 'port': 8000, 'maxthreads': None, 'softcron': False, 'server_name': 'saurabh-Inspiron-N4050', 'bpython': False, 'nogui': False, 'pid_filename': 'httpserver.pid', 'extcron': False, 'runcron': False, 'run_system_tests': False, 'test': None, 'folder': '/home/saurabh/web2py', 'config': '', 'minthreads': None, 'winservice': '', 'shell': None, 'run': '', 'log_filename': 'httpserver.log', 'debuglevel': 30, 'args': [''], 'socket_timeout': 5, 'ssl_ca_certificate': None, 'scheduler': None, 'profiler_filename': None, 'ssl_private_key': '', 'scheduler_groups': None, 'password': '<ask>', 'request_queue_size': 5, 'ssl_certificate': '', 'cronjob': False, 'numthreads': None, 'quiet': False, 'interfaces': None, 'import_models': False, 'timeout': 10, 'plain': False, 'nobanner': False}>"
p953
asbasbasbag69
(g85
g71
NtRp954
(dp955
g74
(dp956
sg83
g859
sg76
(lp957
g69
(g90
g71
NtRp958
(dp959
g74
(dp960
g94
g95
ssg83
g954
sg76
(lp961
S'db_sessions'
p962
asbag69
(g90
g71
NtRp963
(dp964
g74
(dp965
g101
g102
ssg83
g954
sg76
(lp966
S':'
asbag69
(g90
g71
NtRp967
(dp968
g74
(dp969
sg83
g954
sg76
(lp970
g69
(g70
g71
NtRp971
(dp972
g74
(dp973
g82
I4
ssg83
g967
sg76
(lp974
S'set([])'
p975
asbasbasbag69
(g85
g71
NtRp976
(dp977
g74
(dp978
sg83
g859
sg76
(lp979
g69
(g90
g71
NtRp980
(dp981
g74
(dp982
g94
g95
ssg83
g976
sg76
(lp983
S'debugging'
p984
asbag69
(g90
g71
NtRp985
(dp986
g74
(dp987
g101
g102
ssg83
g976
sg76
(lp988
S':'
asbag69
(g90
g71
NtRp989
(dp990
g74
(dp991
sg83
g976
sg76
(lp992
g69
(g70
g71
NtRp993
(dp994
g74
(dp995
g82
I4
ssg83
g989
sg76
(lp996
g112
asbasbasbag69
(g85
g71
NtRp997
(dp998
g74
(dp999
sg83
g859
sg76
(lp1000
g69
(g90
g71
NtRp1001
(dp1002
g74
(dp1003
g94
g95
ssg83
g997
sg76
(lp1004
S'gluon_parent'
p1005
asbag69
(g90
g71
NtRp1006
(dp1007
g74
(dp1008
g101
g102
ssg83
g997
sg76
(lp1009
S':'
asbag69
(g90
g71
NtRp1010
(dp1011
g74
(dp1012
sg83
g997
sg76
(lp1013
g69
(g70
g71
NtRp1014
(dp1015
g74
(dp1016
g82
I4
ssg83
g1010
sg76
(lp1017
S'/home/saurabh/web2py'
p1018
asbasbasbag69
(g85
g71
NtRp1019
(dp1020
g74
(dp1021
sg83
g859
sg76
(lp1022
g69
(g90
g71
NtRp1023
(dp1024
g74
(dp1025
g94
g95
ssg83
g1019
sg76
(lp1026
S'http_accept'
p1027
asbag69
(g90
g71
NtRp1028
(dp1029
g74
(dp1030
g101
g102
ssg83
g1019
sg76
(lp1031
S':'
asbag69
(g90
g71
NtRp1032
(dp1033
g74
(dp1034
sg83
g1019
sg76
(lp1035
g69
(g70
g71
NtRp1036
(dp1037
g74
(dp1038
g82
I4
ssg83
g1032
sg76
(lp1039
S'text/html,application/xhtml+xml,application/xml;q=0.9,*/*;q=0.8'
p1040
asbasbasbag69
(g85
g71
NtRp1041
(dp1042
g74
(dp1043
sg83
g859
sg76
(lp1044
g69
(g90
g71
NtRp1045
(dp1046
g74
(dp1047
g94
g95
ssg83
g1041
sg76
(lp1048
S'http_accept_encoding'
p1049
asbag69
(g90
g71
NtRp1050
(dp1051
g74
(dp1052
g101
g102
ssg83
g1041
sg76
(lp1053
S':'
asbag69
(g90
g71
NtRp1054
(dp1055
g74
(dp1056
sg83
g1041
sg76
(lp1057
g69
(g70
g71
NtRp1058
(dp1059
g74
(dp1060
g82
I4
ssg83
g1054
sg76
(lp1061
S'gzip, deflate'
p1062
asbasbasbag69
(g85
g71
NtRp1063
(dp1064
g74
(dp1065
sg83
g859
sg76
(lp1066
g69
(g90
g71
NtRp1067
(dp1068
g74
(dp1069
g94
g95
ssg83
g1063
sg76
(lp1070
S'http_accept_language'
p1071
asbag69
(g90
g71
NtRp1072
(dp1073
g74
(dp1074
g101
g102
ssg83
g1063
sg76
(lp1075
S':'
asbag69
(g90
g71
NtRp1076
(dp1077
g74
(dp1078
sg83
g1063
sg76
(lp1079
g69
(g70
g71
NtRp1080
(dp1081
g74
(dp1082
g82
I4
ssg83
g1076
sg76
(lp1083
S'en-US,en;q=0.5'
p1084
asbasbasbag69
(g85
g71
NtRp1085
(dp1086
g74
(dp1087
sg83
g859
sg76
(lp1088
g69
(g90
g71
NtRp1089
(dp1090
g74
(dp1091
g94
g95
ssg83
g1085
sg76
(lp1092
S'http_connection'
p1093
asbag69
(g90
g71
NtRp1094
(dp1095
g74
(dp1096
g101
g102
ssg83
g1085
sg76
(lp1097
S':'
asbag69
(g90
g71
NtRp1098
(dp1099
g74
(dp1100
sg83
g1085
sg76
(lp1101
g69
(g70
g71
NtRp1102
(dp1103
g74
(dp1104
g82
I4
ssg83
g1098
sg76
(lp1105
S'keep-alive'
p1106
asbasbasbag69
(g85
g71
NtRp1107
(dp1108
g74
(dp1109
sg83
g859
sg76
(lp1110
g69
(g90
g71
NtRp1111
(dp1112
g74
(dp1113
g94
g95
ssg83
g1107
sg76
(lp1114
S'http_cookie'
p1115
asbag69
(g90
g71
NtRp1116
(dp1117
g74
(dp1118
g101
g102
ssg83
g1107
sg76
(lp1119
S':'
asbag69
(g90
g71
NtRp1120
(dp1121
g74
(dp1122
sg83
g1107
sg76
(lp1123
g69
(g70
g71
NtRp1124
(dp1125
g74
(dp1126
g82
I4
ssg83
g1120
sg76
(lp1127
S'session_id_welcome=127.0.0.1-73ea7aea-dc43-4078-a44c-3ba780ff4d9e; session_id_admin=127.0.0.1-64b5e907-3927-4fd1-97ee-d50706e5ee41; session_id_onlineexamination=127.0.0.1-d2228566-6160-4d2f-a4b5-d7a6fcc4e876'
p1128
asbasbasbag69
(g85
g71
NtRp1129
(dp1130
g74
(dp1131
sg83
g859
sg76
(lp1132
g69
(g90
g71
NtRp1133
(dp1134
g74
(dp1135
g94
g95
ssg83
g1129
sg76
(lp1136
S'http_host'
p1137
asbag69
(g90
g71
NtRp1138
(dp1139
g74
(dp1140
g101
g102
ssg83
g1129
sg76
(lp1141
S':'
asbag69
(g90
g71
NtRp1142
(dp1143
g74
(dp1144
sg83
g1129
sg76
(lp1145
g69
(g70
g71
NtRp1146
(dp1147
g74
(dp1148
g82
I4
ssg83
g1142
sg76
(lp1149
S'127.0.0.1:8000'
p1150
asbasbasbag69
(g85
g71
NtRp1151
(dp1152
g74
(dp1153
sg83
g859
sg76
(lp1154
g69
(g90
g71
NtRp1155
(dp1156
g74
(dp1157
g94
g95
ssg83
g1151
sg76
(lp1158
S'http_referer'
p1159
asbag69
(g90
g71
NtRp1160
(dp1161
g74
(dp1162
g101
g102
ssg83
g1151
sg76
(lp1163
S':'
asbag69
(g90
g71
NtRp1164
(dp1165
g74
(dp1166
sg83
g1151
sg76
(lp1167
g69
(g70
g71
NtRp1168
(dp1169
g74
(dp1170
g82
I4
ssg83
g1164
sg76
(lp1171
S'http://127.0.0.1:8000/OnlineExamination/default/student_index.html'
p1172
asbasbasbag69
(g85
g71
NtRp1173
(dp1174
g74
(dp1175
sg83
g859
sg76
(lp1176
g69
(g90
g71
NtRp1177
(dp1178
g74
(dp1179
g94
g95
ssg83
g1173
sg76
(lp1180
S'http_user_agent'
p1181
asbag69
(g90
g71
NtRp1182
(dp1183
g74
(dp1184
g101
g102
ssg83
g1173
sg76
(lp1185
S':'
asbag69
(g90
g71
NtRp1186
(dp1187
g74
(dp1188
sg83
g1173
sg76
(lp1189
g69
(g70
g71
NtRp1190
(dp1191
g74
(dp1192
g82
I4
ssg83
g1186
sg76
(lp1193
S'Mozilla/5.0 (X11; Ubuntu; Linux x86_64; rv:20.0) Gecko/20100101 Firefox/20.0'
p1194
asbasbasbag69
(g85
g71
NtRp1195
(dp1196
g74
(dp1197
sg83
g859
sg76
(lp1198
g69
(g90
g71
NtRp1199
(dp1200
g74
(dp1201
g94
g95
ssg83
g1195
sg76
(lp1202
S'is_jython'
p1203
asbag69
(g90
g71
NtRp1204
(dp1205
g74
(dp1206
g101
g102
ssg83
g1195
sg76
(lp1207
S':'
asbag69
(g90
g71
NtRp1208
(dp1209
g74
(dp1210
sg83
g1195
sg76
(lp1211
g69
(g70
g71
NtRp1212
(dp1213
g74
(dp1214
g82
I4
ssg83
g1208
sg76
(lp1215
g112
asbasbasbag69
(g85
g71
NtRp1216
(dp1217
g74
(dp1218
sg83
g859
sg76
(lp1219
g69
(g90
g71
NtRp1220
(dp1221
g74
(dp1222
g94
g95
ssg83
g1216
sg76
(lp1223
S'is_pypy'
p1224
asbag69
(g90
g71
NtRp1225
(dp1226
g74
(dp1227
g101
g102
ssg83
g1216
sg76
(lp1228
S':'
asbag69
(g90
g71
NtRp1229
(dp1230
g74
(dp1231
sg83
g1216
sg76
(lp1232
g69
(g70
g71
NtRp1233
(dp1234
g74
(dp1235
g82
I4
ssg83
g1229
sg76
(lp1236
g112
asbasbasbag69
(g85
g71
NtRp1237
(dp1238
g74
(dp1239
sg83
g859
sg76
(lp1240
g69
(g90
g71
NtRp1241
(dp1242
g74
(dp1243
g94
g95
ssg83
g1237
sg76
(lp1244
S'local_hosts'
p1245
asbag69
(g90
g71
NtRp1246
(dp1247
g74
(dp1248
g101
g102
ssg83
g1237
sg76
(lp1249
S':'
asbag69
(g90
g71
NtRp1250
(dp1251
g74
(dp1252
sg83
g1237
sg76
(lp1253
g69
(g70
g71
NtRp1254
(dp1255
g74
(dp1256
g82
I4
ssg83
g1250
sg76
(lp1257
g69
(g78
g71
NtRp1258
(dp1259
g74
(dp1260
g82
I3
ssg83
Nsg76
(lp1261
g69
(g85
g71
NtRp1262
(dp1263
g74
(dp1264
sg83
g1258
sg76
(lp1265
g69
(g90
g71
NtRp1266
(dp1267
g74
(dp1268
sg83
g1262
sg76
(lp1269
g69
(g70
g71
NtRp1270
(dp1271
g74
(dp1272
g82
I3
ssg83
g1266
sg76
(lp1273
S'127.0.1.1'
p1274
asbasbasbag69
(g85
g71
NtRp1275
(dp1276
g74
(dp1277
sg83
g1258
sg76
(lp1278
g69
(g90
g71
NtRp1279
(dp1280
g74
(dp1281
sg83
g1275
sg76
(lp1282
g69
(g70
g71
NtRp1283
(dp1284
g74
(dp1285
g82
I3
ssg83
g1279
sg76
(lp1286
S'::1'
p1287
asbasbasbag69
(g85
g71
NtRp1288
(dp1289
g74
(dp1290
sg83
g1258
sg76
(lp1291
g69
(g90
g71
NtRp1292
(dp1293
g74
(dp1294
sg83
g1288
sg76
(lp1295
g69
(g70
g71
NtRp1296
(dp1297
g74
(dp1298
g82
I3
ssg83
g1292
sg76
(lp1299
S'saurabh-Inspiron-N4050'
p1300
asbasbasbag69
(g85
g71
NtRp1301
(dp1302
g74
(dp1303
sg83
g1258
sg76
(lp1304
g69
(g90
g71
NtRp1305
(dp1306
g74
(dp1307
sg83
g1301
sg76
(lp1308
g69
(g70
g71
NtRp1309
(dp1310
g74
(dp1311
g82
I3
ssg83
g1305
sg76
(lp1312
S'::ffff:127.0.0.1'
p1313
asbasbasbag69
(g85
g71
NtRp1314
(dp1315
g74
(dp1316
sg83
g1258
sg76
(lp1317
g69
(g90
g71
NtRp1318
(dp1319
g74
(dp1320
sg83
g1314
sg76
(lp1321
g69
(g70
g71
NtRp1322
(dp1323
g74
(dp1324
g82
I3
ssg83
g1318
sg76
(lp1325
S'127.0.0.1'
p1326
asbasbasbasbasbasbasbag69
(g85
g71
NtRp1327
(dp1328
g74
(dp1329
sg83
g859
sg76
(lp1330
g69
(g90
g71
NtRp1331
(dp1332
g74
(dp1333
g94
g95
ssg83
g1327
sg76
(lp1334
S'path_info'
p1335
asbag69
(g90
g71
NtRp1336
(dp1337
g74
(dp1338
g101
g102
ssg83
g1327
sg76
(lp1339
S':'
asbag69
(g90
g71
NtRp1340
(dp1341
g74
(dp1342
sg83
g1327
sg76
(lp1343
g69
(g70
g71
NtRp1344
(dp1345
g74
(dp1346
g82
I4
ssg83
g1340
sg76
(lp1347
S'/OnlineExamination/default/give_exam.html'
p1348
asbasbasbag69
(g85
g71
NtRp1349
(dp1350
g74
(dp1351
sg83
g859
sg76
(lp1352
g69
(g90
g71
NtRp1353
(dp1354
g74
(dp1355
g94
g95
ssg83
g1349
sg76
(lp1356
S'query_string'
p1357
asbag69
(g90
g71
NtRp1358
(dp1359
g74
(dp1360
g101
g102
ssg83
g1349
sg76
(lp1361
S':'
asbag69
(g90
g71
NtRp1362
(dp1363
g74
(dp1364
sg83
g1349
sg76
(lp1365
g69
(g70
g71
NtRp1366
(dp1367
g74
(dp1368
g82
I4
ssg83
g1362
sg76
(lp1369
S''
asbasbasbag69
(g85
g71
NtRp1370
(dp1371
g74
(dp1372
sg83
g859
sg76
(lp1373
g69
(g90
g71
NtRp1374
(dp1375
g74
(dp1376
g94
g95
ssg83
g1370
sg76
(lp1377
S'remote_addr'
p1378
asbag69
(g90
g71
NtRp1379
(dp1380
g74
(dp1381
g101
g102
ssg83
g1370
sg76
(lp1382
S':'
asbag69
(g90
g71
NtRp1383
(dp1384
g74
(dp1385
sg83
g1370
sg76
(lp1386
g69
(g70
g71
NtRp1387
(dp1388
g74
(dp1389
g82
I4
ssg83
g1383
sg76
(lp1390
g224
asbasbasbag69
(g85
g71
NtRp1391
(dp1392
g74
(dp1393
sg83
g859
sg76
(lp1394
g69
(g90
g71
NtRp1395
(dp1396
g74
(dp1397
g94
g95
ssg83
g1391
sg76
(lp1398
S'remote_port'
p1399
asbag69
(g90
g71
NtRp1400
(dp1401
g74
(dp1402
g101
g102
ssg83
g1391
sg76
(lp1403
S':'
asbag69
(g90
g71
NtRp1404
(dp1405
g74
(dp1406
sg83
g1391
sg76
(lp1407
g69
(g70
g71
NtRp1408
(dp1409
g74
(dp1410
g82
I4
ssg83
g1404
sg76
(lp1411
S'33910'
p1412
asbasbasbag69
(g85
g71
NtRp1413
(dp1414
g74
(dp1415
sg83
g859
sg76
(lp1416
g69
(g90
g71
NtRp1417
(dp1418
g74
(dp1419
g94
g95
ssg83
g1413
sg76
(lp1420
S'request_method'
p1421
asbag69
(g90
g71
NtRp1422
(dp1423
g74
(dp1424
g101
g102
ssg83
g1413
sg76
(lp1425
S':'
asbag69
(g90
g71
NtRp1426
(dp1427
g74
(dp1428
sg83
g1413
sg76
(lp1429
g69
(g70
g71
NtRp1430
(dp1431
g74
(dp1432
g82
I4
ssg83
g1426
sg76
(lp1433
S'GET'
p1434
asbasbasbag69
(g85
g71
NtRp1435
(dp1436
g74
(dp1437
sg83
g859
sg76
(lp1438
g69
(g90
g71
NtRp1439
(dp1440
g74
(dp1441
g94
g95
ssg83
g1435
sg76
(lp1442
S'request_uri'
p1443
asbag69
(g90
g71
NtRp1444
(dp1445
g74
(dp1446
g101
g102
ssg83
g1435
sg76
(lp1447
S':'
asbag69
(g90
g71
NtRp1448
(dp1449
g74
(dp1450
sg83
g1435
sg76
(lp1451
g69
(g70
g71
NtRp1452
(dp1453
g74
(dp1454
g82
I4
ssg83
g1448
sg76
(lp1455
g1348
asbasbasbag69
(g85
g71
NtRp1456
(dp1457
g74
(dp1458
sg83
g859
sg76
(lp1459
g69
(g90
g71
NtRp1460
(dp1461
g74
(dp1462
g94
g95
ssg83
g1456
sg76
(lp1463
S'script_name'
p1464
asbag69
(g90
g71
NtRp1465
(dp1466
g74
(dp1467
g101
g102
ssg83
g1456
sg76
(lp1468
S':'
asbag69
(g90
g71
NtRp1469
(dp1470
g74
(dp1471
sg83
g1456
sg76
(lp1472
g69
(g70
g71
NtRp1473
(dp1474
g74
(dp1475
g82
I4
ssg83
g1469
sg76
(lp1476
S''
asbasbasbag69
(g85
g71
NtRp1477
(dp1478
g74
(dp1479
sg83
g859
sg76
(lp1480
g69
(g90
g71
NtRp1481
(dp1482
g74
(dp1483
g94
g95
ssg83
g1477
sg76
(lp1484
S'server_name'
p1485
asbag69
(g90
g71
NtRp1486
(dp1487
g74
(dp1488
g101
g102
ssg83
g1477
sg76
(lp1489
S':'
asbag69
(g90
g71
NtRp1490
(dp1491
g74
(dp1492
sg83
g1477
sg76
(lp1493
g69
(g70
g71
NtRp1494
(dp1495
g74
(dp1496
g82
I4
ssg83
g1490
sg76
(lp1497
S'saurabh-Inspiron-N4050'
p1498
asbasbasbag69
(g85
g71
NtRp1499
(dp1500
g74
(dp1501
sg83
g859
sg76
(lp1502
g69
(g90
g71
NtRp1503
(dp1504
g74
(dp1505
g94
g95
ssg83
g1499
sg76
(lp1506
S'server_port'
p1507
asbag69
(g90
g71
NtRp1508
(dp1509
g74
(dp1510
g101
g102
ssg83
g1499
sg76
(lp1511
S':'
asbag69
(g90
g71
NtRp1512
(dp1513
g74
(dp1514
sg83
g1499
sg76
(lp1515
g69
(g70
g71
NtRp1516
(dp1517
g74
(dp1518
g82
I4
ssg83
g1512
sg76
(lp1519
S'8000'
p1520
asbasbasbag69
(g85
g71
NtRp1521
(dp1522
g74
(dp1523
sg83
g859
sg76
(lp1524
g69
(g90
g71
NtRp1525
(dp1526
g74
(dp1527
g94
g95
ssg83
g1521
sg76
(lp1528
S'server_protocol'
p1529
asbag69
(g90
g71
NtRp1530
(dp1531
g74
(dp1532
g101
g102
ssg83
g1521
sg76
(lp1533
S':'
asbag69
(g90
g71
NtRp1534
(dp1535
g74
(dp1536
sg83
g1521
sg76
(lp1537
g69
(g70
g71
NtRp1538
(dp1539
g74
(dp1540
g82
I4
ssg83
g1534
sg76
(lp1541
S'HTTP/1.1'
p1542
asbasbasbag69
(g85
g71
NtRp1543
(dp1544
g74
(dp1545
sg83
g859
sg76
(lp1546
g69
(g90
g71
NtRp1547
(dp1548
g74
(dp1549
g94
g95
ssg83
g1543
sg76
(lp1550
S'server_software'
p1551
asbag69
(g90
g71
NtRp1552
(dp1553
g74
(dp1554
g101
g102
ssg83
g1543
sg76
(lp1555
S':'
asbag69
(g90
g71
NtRp1556
(dp1557
g74
(dp1558
sg83
g1543
sg76
(lp1559
g69
(g70
g71
NtRp1560
(dp1561
g74
(dp1562
g82
I4
ssg83
g1556
sg76
(lp1563
S'Rocket 1.2.6'
p1564
asbasbasbag69
(g85
g71
NtRp1565
(dp1566
g74
(dp1567
sg83
g859
sg76
(lp1568
g69
(g90
g71
NtRp1569
(dp1570
g74
(dp1571
g94
g95
ssg83
g1565
sg76
(lp1572
S'web2py_path'
p1573
asbag69
(g90
g71
NtRp1574
(dp1575
g74
(dp1576
g101
g102
ssg83
g1565
sg76
(lp1577
S':'
asbag69
(g90
g71
NtRp1578
(dp1579
g74
(dp1580
sg83
g1565
sg76
(lp1581
g69
(g70
g71
NtRp1582
(dp1583
g74
(dp1584
g82
I4
ssg83
g1578
sg76
(lp1585
g906
asbasbasbag69
(g85
g71
NtRp1586
(dp1587
g74
(dp1588
sg83
g859
sg76
(lp1589
g69
(g90
g71
NtRp1590
(dp1591
g74
(dp1592
g94
g95
ssg83
g1586
sg76
(lp1593
S'web2py_version'
p1594
asbag69
(g90
g71
NtRp1595
(dp1596
g74
(dp1597
g101
g102
ssg83
g1586
sg76
(lp1598
S':'
asbag69
(g90
g71
NtRp1599
(dp1600
g74
(dp1601
sg83
g1586
sg76
(lp1602
g69
(g70
g71
NtRp1603
(dp1604
g74
(dp1605
g82
I4
ssg83
g1599
sg76
(lp1606
g69
(g78
g71
NtRp1607
(dp1608
g74
(dp1609
g82
I3
ssg83
Nsg76
(lp1610
g69
(g85
g71
NtRp1611
(dp1612
g74
(dp1613
sg83
g1607
sg76
(lp1614
g69
(g90
g71
NtRp1615
(dp1616
g74
(dp1617
sg83
g1611
sg76
(lp1618
g69
(g70
g71
NtRp1619
(dp1620
g74
(dp1621
g82
I3
ssg83
g1615
sg76
(lp1622
S'2'
asbasbasbag69
(g85
g71
NtRp1623
(dp1624
g74
(dp1625
sg83
g1607
sg76
(lp1626
g69
(g90
g71
NtRp1627
(dp1628
g74
(dp1629
sg83
g1623
sg76
(lp1630
g69
(g70
g71
NtRp1631
(dp1632
g74
(dp1633
g82
I3
ssg83
g1627
sg76
(lp1634
S'3'
asbasbasbag69
(g85
g71
NtRp1635
(dp1636
g74
(dp1637
sg83
g1607
sg76
(lp1638
g69
(g90
g71
NtRp1639
(dp1640
g74
(dp1641
sg83
g1635
sg76
(lp1642
g69
(g70
g71
NtRp1643
(dp1644
g74
(dp1645
g82
I3
ssg83
g1639
sg76
(lp1646
S'2'
asbasbasbag69
(g85
g71
NtRp1647
(dp1648
g74
(dp1649
sg83
g1607
sg76
(lp1650
g69
(g90
g71
NtRp1651
(dp1652
g74
(dp1653
sg83
g1647
sg76
(lp1654
g69
(g70
g71
NtRp1655
(dp1656
g74
(dp1657
g82
I3
ssg83
g1651
sg76
(lp1658
S'datetime.datetime(2012, 12, 17, 15, 3, 30)'
p1659
asbasbasbag69
(g85
g71
NtRp1660
(dp1661
g74
(dp1662
sg83
g1607
sg76
(lp1663
g69
(g90
g71
NtRp1664
(dp1665
g74
(dp1666
sg83
g1660
sg76
(lp1667
g69
(g70
g71
NtRp1668
(dp1669
g74
(dp1670
g82
I3
ssg83
g1664
sg76
(lp1671
S'stable'
p1672
asbasbasbasbasbasbasbag69
(g85
g71
NtRp1673
(dp1674
g74
(dp1675
sg83
g859
sg76
(lp1676
g69
(g90
g71
NtRp1677
(dp1678
g74
(dp1679
g94
g95
ssg83
g1673
sg76
(lp1680
S'wsgi_errors'
p1681
asbag69
(g90
g71
NtRp1682
(dp1683
g74
(dp1684
g101
g102
ssg83
g1673
sg76
(lp1685
S':'
asbag69
(g90
g71
NtRp1686
(dp1687
g74
(dp1688
sg83
g1673
sg76
(lp1689
g69
(g70
g71
NtRp1690
(dp1691
g74
(dp1692
g82
I4
ssg83
g1686
sg76
(lp1693
S"<open file '<stderr>', mode 'w' at 0x7f253778a270>"
p1694
asbasbasbag69
(g85
g71
NtRp1695
(dp1696
g74
(dp1697
sg83
g859
sg76
(lp1698
g69
(g90
g71
NtRp1699
(dp1700
g74
(dp1701
g94
g95
ssg83
g1695
sg76
(lp1702
S'wsgi_file_wrapper'
p1703
asbag69
(g90
g71
NtRp1704
(dp1705
g74
(dp1706
g101
g102
ssg83
g1695
sg76
(lp1707
S':'
asbag69
(g90
g71
NtRp1708
(dp1709
g74
(dp1710
sg83
g1695
sg76
(lp1711
g69
(g70
g71
NtRp1712
(dp1713
g74
(dp1714
g82
I4
ssg83
g1708
sg76
(lp1715
S'<class wsgiref.util.FileWrapper at 0x3231c18>'
p1716
asbasbasbag69
(g85
g71
NtRp1717
(dp1718
g74
(dp1719
sg83
g859
sg76
(lp1720
g69
(g90
g71
NtRp1721
(dp1722
g74
(dp1723
g94
g95
ssg83
g1717
sg76
(lp1724
S'wsgi_input'
p1725
asbag69
(g90
g71
NtRp1726
(dp1727
g74
(dp1728
g101
g102
ssg83
g1717
sg76
(lp1729
S':'
asbag69
(g90
g71
NtRp1730
(dp1731
g74
(dp1732
sg83
g1717
sg76
(lp1733
g69
(g70
g71
NtRp1734
(dp1735
g74
(dp1736
g82
I4
ssg83
g1730
sg76
(lp1737
S'<socket._fileobject object at 0x7f2524428dd0>'
p1738
asbasbasbag69
(g85
g71
NtRp1739
(dp1740
g74
(dp1741
sg83
g859
sg76
(lp1742
g69
(g90
g71
NtRp1743
(dp1744
g74
(dp1745
g94
g95
ssg83
g1739
sg76
(lp1746
S'wsgi_multiprocess'
p1747
asbag69
(g90
g71
NtRp1748
(dp1749
g74
(dp1750
g101
g102
ssg83
g1739
sg76
(lp1751
S':'
asbag69
(g90
g71
NtRp1752
(dp1753
g74
(dp1754
sg83
g1739
sg76
(lp1755
g69
(g70
g71
NtRp1756
(dp1757
g74
(dp1758
g82
I4
ssg83
g1752
sg76
(lp1759
g112
asbasbasbag69
(g85
g71
NtRp1760
(dp1761
g74
(dp1762
sg83
g859
sg76
(lp1763
g69
(g90
g71
NtRp1764
(dp1765
g74
(dp1766
g94
g95
ssg83
g1760
sg76
(lp1767
S'wsgi_multithread'
p1768
asbag69
(g90
g71
NtRp1769
(dp1770
g74
(dp1771
g101
g102
ssg83
g1760
sg76
(lp1772
S':'
asbag69
(g90
g71
NtRp1773
(dp1774
g74
(dp1775
sg83
g1760
sg76
(lp1776
g69
(g70
g71
NtRp1777
(dp1778
g74
(dp1779
g82
I4
ssg83
g1773
sg76
(lp1780
S'True'
p1781
asbasbasbag69
(g85
g71
NtRp1782
(dp1783
g74
(dp1784
sg83
g859
sg76
(lp1785
g69
(g90
g71
NtRp1786
(dp1787
g74
(dp1788
g94
g95
ssg83
g1782
sg76
(lp1789
S'wsgi_run_once'
p1790
asbag69
(g90
g71
NtRp1791
(dp1792
g74
(dp1793
g101
g102
ssg83
g1782
sg76
(lp1794
S':'
asbag69
(g90
g71
NtRp1795
(dp1796
g74
(dp1797
sg83
g1782
sg76
(lp1798
g69
(g70
g71
NtRp1799
(dp1800
g74
(dp1801
g82
I4
ssg83
g1795
sg76
(lp1802
g112
asbasbasbag69
(g85
g71
NtRp1803
(dp1804
g74
(dp1805
sg83
g859
sg76
(lp1806
g69
(g90
g71
NtRp1807
(dp1808
g74
(dp1809
g94
g95
ssg83
g1803
sg76
(lp1810
S'wsgi_url_scheme'
p1811
asbag69
(g90
g71
NtRp1812
(dp1813
g74
(dp1814
g101
g102
ssg83
g1803
sg76
(lp1815
S':'
asbag69
(g90
g71
NtRp1816
(dp1817
g74
(dp1818
sg83
g1803
sg76
(lp1819
g69
(g70
g71
NtRp1820
(dp1821
g74
(dp1822
g82
I4
ssg83
g1816
sg76
(lp1823
S'http'
p1824
asbasbasbag69
(g85
g71
NtRp1825
(dp1826
g74
(dp1827
sg83
g859
sg76
(lp1828
g69
(g90
g71
NtRp1829
(dp1830
g74
(dp1831
g94
g95
ssg83
g1825
sg76
(lp1832
S'wsgi_version'
p1833
asbag69
(g90
g71
NtRp1834
(dp1835
g74
(dp1836
g101
g102
ssg83
g1825
sg76
(lp1837
S':'
asbag69
(g90
g71
NtRp1838
(dp1839
g74
(dp1840
sg83
g1825
sg76
(lp1841
g69
(g70
g71
NtRp1842
(dp1843
g74
(dp1844
g82
I4
ssg83
g1838
sg76
(lp1845
g69
(g78
g71
NtRp1846
(dp1847
g74
(dp1848
g82
I3
ssg83
Nsg76
(lp1849
g69
(g85
g71
NtRp1850
(dp1851
g74
(dp1852
sg83
g1846
sg76
(lp1853
g69
(g90
g71
NtRp1854
(dp1855
g74
(dp1856
sg83
g1850
sg76
(lp1857
g69
(g70
g71
NtRp1858
(dp1859
g74
(dp1860
g82
I3
ssg83
g1854
sg76
(lp1861
S'1'
asbasbasbag69
(g85
g71
NtRp1862
(dp1863
g74
(dp1864
sg83
g1846
sg76
(lp1865
g69
(g90
g71
NtRp1866
(dp1867
g74
(dp1868
sg83
g1862
sg76
(lp1869
g69
(g70
g71
NtRp1870
(dp1871
g74
(dp1872
g82
I3
ssg83
g1866
sg76
(lp1873
S'0'
asbasbasbasbasbasbasbasbasbasbasbag69
(g85
g71
NtRp1874
(dp1875
g74
(dp1876
sg83
g79
sg76
(lp1877
g69
(g90
g71
NtRp1878
(dp1879
g74
(dp1880
g94
g95
ssg83
g1874
sg76
(lp1881
S'extension'
p1882
asbag69
(g90
g71
NtRp1883
(dp1884
g74
(dp1885
g101
g102
ssg83
g1874
sg76
(lp1886
S':'
asbag69
(g90
g71
NtRp1887
(dp1888
g74
(dp1889
sg83
g1874
sg76
(lp1890
g69
(g70
g71
NtRp1891
(dp1892
g74
(dp1893
g82
I5
ssg83
g1887
sg76
(lp1894
S'html'
p1895
asbasbasbag69
(g85
g71
NtRp1896
(dp1897
g74
(dp1898
sg83
g79
sg76
(lp1899
g69
(g90
g71
NtRp1900
(dp1901
g74
(dp1902
g94
g95
ssg83
g1896
sg76
(lp1903
S'folder'
p1904
asbag69
(g90
g71
NtRp1905
(dp1906
g74
(dp1907
g101
g102
ssg83
g1896
sg76
(lp1908
S':'
asbag69
(g90
g71
NtRp1909
(dp1910
g74
(dp1911
sg83
g1896
sg76
(lp1912
g69
(g70
g71
NtRp1913
(dp1914
g74
(dp1915
g82
I5
ssg83
g1909
sg76
(lp1916
S'/home/saurabh/web2py/applications/OnlineExamination/'
p1917
asbasbasbag69
(g85
g71
NtRp1918
(dp1919
g74
(dp1920
sg83
g79
sg76
(lp1921
g69
(g90
g71
NtRp1922
(dp1923
g74
(dp1924
g94
g95
ssg83
g1918
sg76
(lp1925
S'function'
p1926
asbag69
(g90
g71
NtRp1927
(dp1928
g74
(dp1929
g101
g102
ssg83
g1918
sg76
(lp1930
S':'
asbag69
(g90
g71
NtRp1931
(dp1932
g74
(dp1933
sg83
g1918
sg76
(lp1934
g69
(g70
g71
NtRp1935
(dp1936
g74
(dp1937
g82
I5
ssg83
g1931
sg76
(lp1938
S'give_exam'
p1939
asbasbasbag69
(g85
g71
NtRp1940
(dp1941
g74
(dp1942
sg83
g79
sg76
(lp1943
g69
(g90
g71
NtRp1944
(dp1945
g74
(dp1946
g94
g95
ssg83
g1940
sg76
(lp1947
S'get_vars'
p1948
asbag69
(g90
g71
NtRp1949
(dp1950
g74
(dp1951
g101
g102
ssg83
g1940
sg76
(lp1952
S':'
asbag69
(g90
g71
NtRp1953
(dp1954
g74
(dp1955
sg83
g1940
sg76
(lp1956
g69
(g70
g71
NtRp1957
(dp1958
g74
(dp1959
g82
I5
ssg83
g1953
sg76
(lp1960
g69
(g78
g71
NtRp1961
(dp1962
g74
(dp1963
g82
I4
ssg83
Nsg76
(lp1964
sbasbasbasbag69
(g85
g71
NtRp1965
(dp1966
g74
(dp1967
sg83
g79
sg76
(lp1968
g69
(g90
g71
NtRp1969
(dp1970
g74
(dp1971
g94
g95
ssg83
g1965
sg76
(lp1972
S'global_settings'
p1973
asbag69
(g90
g71
NtRp1974
(dp1975
g74
(dp1976
g101
g102
ssg83
g1965
sg76
(lp1977
S':'
asbag69
(g90
g71
NtRp1978
(dp1979
g74
(dp1980
sg83
g1965
sg76
(lp1981
g69
(g70
g71
NtRp1982
(dp1983
g74
(dp1984
g82
I5
ssg83
g1978
sg76
(lp1985
g69
(g78
g71
NtRp1986
(dp1987
g74
(dp1988
g82
I4
ssg83
Nsg76
(lp1989
g69
(g85
g71
NtRp1990
(dp1991
g74
(dp1992
sg83
g1986
sg76
(lp1993
g69
(g90
g71
NtRp1994
(dp1995
g74
(dp1996
g94
g95
ssg83
g1990
sg76
(lp1997
g871
asbag69
(g90
g71
NtRp1998
(dp1999
g74
(dp2000
g101
g102
ssg83
g1990
sg76
(lp2001
S':'
asbag69
(g90
g71
NtRp2002
(dp2003
g74
(dp2004
sg83
g1990
sg76
(lp2005
g69
(g70
g71
NtRp2006
(dp2007
g74
(dp2008
g82
I4
ssg83
g2002
sg76
(lp2009
S"set(['/home/saurabh/web2py/applications/admin/', '/home/saurabh/web2py/applications/OnlineExamination/', '/home/saurabh/web2py/applications/welcome/'])"
p2010
asbasbasbag69
(g85
g71
NtRp2011
(dp2012
g74
(dp2013
sg83
g1986
sg76
(lp2014
g69
(g90
g71
NtRp2015
(dp2016
g74
(dp2017
g94
g95
ssg83
g2011
sg76
(lp2018
g893
asbag69
(g90
g71
NtRp2019
(dp2020
g74
(dp2021
g101
g102
ssg83
g2011
sg76
(lp2022
S':'
asbag69
(g90
g71
NtRp2023
(dp2024
g74
(dp2025
sg83
g2011
sg76
(lp2026
g69
(g70
g71
NtRp2027
(dp2028
g74
(dp2029
g82
I4
ssg83
g2023
sg76
(lp2030
g906
asbasbasbag69
(g85
g71
NtRp2031
(dp2032
g74
(dp2033
sg83
g1986
sg76
(lp2034
g69
(g90
g71
NtRp2035
(dp2036
g74
(dp2037
g94
g95
ssg83
g2031
sg76
(lp2038
g915
asbag69
(g90
g71
NtRp2039
(dp2040
g74
(dp2041
g101
g102
ssg83
g2031
sg76
(lp2042
S':'
asbag69
(g90
g71
NtRp2043
(dp2044
g74
(dp2045
sg83
g2031
sg76
(lp2046
g69
(g70
g71
NtRp2047
(dp2048
g74
(dp2049
g82
I4
ssg83
g2043
sg76
(lp2050
g69
(g78
g71
NtRp2051
(dp2052
g74
(dp2053
g82
I3
ssg83
Nsg76
(lp2054
sbasbasbasbag69
(g85
g71
NtRp2055
(dp2056
g74
(dp2057
sg83
g1986
sg76
(lp2058
g69
(g90
g71
NtRp2059
(dp2060
g74
(dp2061
g94
g95
ssg83
g2055
sg76
(lp2062
g940
asbag69
(g90
g71
NtRp2063
(dp2064
g74
(dp2065
g101
g102
ssg83
g2055
sg76
(lp2066
S':'
asbag69
(g90
g71
NtRp2067
(dp2068
g74
(dp2069
sg83
g2055
sg76
(lp2070
g69
(g70
g71
NtRp2071
(dp2072
g74
(dp2073
g82
I4
ssg83
g2067
sg76
(lp2074
S"<Values at 0x32c78c0: {'verbose': False, 'ip': '127.0.0.1', 'with_scheduler': False, 'ips': [], 'shutdown_timeout': 5, 'taskbar': False, 'port': 8000, 'maxthreads': None, 'softcron': False, 'server_name': 'saurabh-Inspiron-N4050', 'bpython': False, 'nogui': False, 'pid_filename': 'httpserver.pid', 'extcron': False, 'runcron': False, 'run_system_tests': False, 'test': None, 'folder': '/home/saurabh/web2py', 'config': '', 'minthreads': None, 'winservice': '', 'shell': None, 'run': '', 'log_filename': 'httpserver.log', 'debuglevel': 30, 'args': [''], 'socket_timeout': 5, 'ssl_ca_certificate': None, 'scheduler': None, 'profiler_filename': None, 'ssl_private_key': '', 'scheduler_groups': None, 'password': '<ask>', 'request_queue_size': 5, 'ssl_certificate': '', 'cronjob': False, 'numthreads': None, 'quiet': False, 'interfaces': None, 'import_models': False, 'timeout': 10, 'plain': False, 'nobanner': False}>"
p2075
asbasbasbag69
(g85
g71
NtRp2076
(dp2077
g74
(dp2078
sg83
g1986
sg76
(lp2079
g69
(g90
g71
NtRp2080
(dp2081
g74
(dp2082
g94
g95
ssg83
g2076
sg76
(lp2083
g962
asbag69
(g90
g71
NtRp2084
(dp2085
g74
(dp2086
g101
g102
ssg83
g2076
sg76
(lp2087
S':'
asbag69
(g90
g71
NtRp2088
(dp2089
g74
(dp2090
sg83
g2076
sg76
(lp2091
g69
(g70
g71
NtRp2092
(dp2093
g74
(dp2094
g82
I4
ssg83
g2088
sg76
(lp2095
S'set([])'
p2096
asbasbasbag69
(g85
g71
NtRp2097
(dp2098
g74
(dp2099
sg83
g1986
sg76
(lp2100
g69
(g90
g71
NtRp2101
(dp2102
g74
(dp2103
g94
g95
ssg83
g2097
sg76
(lp2104
g984
asbag69
(g90
g71
NtRp2105
(dp2106
g74
(dp2107
g101
g102
ssg83
g2097
sg76
(lp2108
S':'
asbag69
(g90
g71
NtRp2109
(dp2110
g74
(dp2111
sg83
g2097
sg76
(lp2112
g69
(g70
g71
NtRp2113
(dp2114
g74
(dp2115
g82
I4
ssg83
g2109
sg76
(lp2116
g112
asbasbasbag69
(g85
g71
NtRp2117
(dp2118
g74
(dp2119
sg83
g1986
sg76
(lp2120
g69
(g90
g71
NtRp2121
(dp2122
g74
(dp2123
g94
g95
ssg83
g2117
sg76
(lp2124
g1005
asbag69
(g90
g71
NtRp2125
(dp2126
g74
(dp2127
g101
g102
ssg83
g2117
sg76
(lp2128
S':'
asbag69
(g90
g71
NtRp2129
(dp2130
g74
(dp2131
sg83
g2117
sg76
(lp2132
g69
(g70
g71
NtRp2133
(dp2134
g74
(dp2135
g82
I4
ssg83
g2129
sg76
(lp2136
g1018
asbasbasbag69
(g85
g71
NtRp2137
(dp2138
g74
(dp2139
sg83
g1986
sg76
(lp2140
g69
(g90
g71
NtRp2141
(dp2142
g74
(dp2143
g94
g95
ssg83
g2137
sg76
(lp2144
g1203
asbag69
(g90
g71
NtRp2145
(dp2146
g74
(dp2147
g101
g102
ssg83
g2137
sg76
(lp2148
S':'
asbag69
(g90
g71
NtRp2149
(dp2150
g74
(dp2151
sg83
g2137
sg76
(lp2152
g69
(g70
g71
NtRp2153
(dp2154
g74
(dp2155
g82
I4
ssg83
g2149
sg76
(lp2156
g112
asbasbasbag69
(g85
g71
NtRp2157
(dp2158
g74
(dp2159
sg83
g1986
sg76
(lp2160
g69
(g90
g71
NtRp2161
(dp2162
g74
(dp2163
g94
g95
ssg83
g2157
sg76
(lp2164
g1224
asbag69
(g90
g71
NtRp2165
(dp2166
g74
(dp2167
g101
g102
ssg83
g2157
sg76
(lp2168
S':'
asbag69
(g90
g71
NtRp2169
(dp2170
g74
(dp2171
sg83
g2157
sg76
(lp2172
g69
(g70
g71
NtRp2173
(dp2174
g74
(dp2175
g82
I4
ssg83
g2169
sg76
(lp2176
g112
asbasbasbag69
(g85
g71
NtRp2177
(dp2178
g74
(dp2179
sg83
g1986
sg76
(lp2180
g69
(g90
g71
NtRp2181
(dp2182
g74
(dp2183
g94
g95
ssg83
g2177
sg76
(lp2184
g1245
asbag69
(g90
g71
NtRp2185
(dp2186
g74
(dp2187
g101
g102
ssg83
g2177
sg76
(lp2188
S':'
asbag69
(g90
g71
NtRp2189
(dp2190
g74
(dp2191
sg83
g2177
sg76
(lp2192
g69
(g70
g71
NtRp2193
(dp2194
g74
(dp2195
g82
I4
ssg83
g2189
sg76
(lp2196
g69
(g78
g71
NtRp2197
(dp2198
g74
(dp2199
g82
I3
ssg83
Nsg76
(lp2200
g69
(g85
g71
NtRp2201
(dp2202
g74
(dp2203
sg83
g2197
sg76
(lp2204
g69
(g90
g71
NtRp2205
(dp2206
g74
(dp2207
sg83
g2201
sg76
(lp2208
g69
(g70
g71
NtRp2209
(dp2210
g74
(dp2211
g82
I3
ssg83
g2205
sg76
(lp2212
g1274
asbasbasbag69
(g85
g71
NtRp2213
(dp2214
g74
(dp2215
sg83
g2197
sg76
(lp2216
g69
(g90
g71
NtRp2217
(dp2218
g74
(dp2219
sg83
g2213
sg76
(lp2220
g69
(g70
g71
NtRp2221
(dp2222
g74
(dp2223
g82
I3
ssg83
g2217
sg76
(lp2224
g1287
asbasbasbag69
(g85
g71
NtRp2225
(dp2226
g74
(dp2227
sg83
g2197
sg76
(lp2228
g69
(g90
g71
NtRp2229
(dp2230
g74
(dp2231
sg83
g2225
sg76
(lp2232
g69
(g70
g71
NtRp2233
(dp2234
g74
(dp2235
g82
I3
ssg83
g2229
sg76
(lp2236
g1300
asbasbasbag69
(g85
g71
NtRp2237
(dp2238
g74
(dp2239
sg83
g2197
sg76
(lp2240
g69
(g90
g71
NtRp2241
(dp2242
g74
(dp2243
sg83
g2237
sg76
(lp2244
g69
(g70
g71
NtRp2245
(dp2246
g74
(dp2247
g82
I3
ssg83
g2241
sg76
(lp2248
g1313
asbasbasbag69
(g85
g71
NtRp2249
(dp2250
g74
(dp2251
sg83
g2197
sg76
(lp2252
g69
(g90
g71
NtRp2253
(dp2254
g74
(dp2255
sg83
g2249
sg76
(lp2256
g69
(g70
g71
NtRp2257
(dp2258
g74
(dp2259
g82
I3
ssg83
g2253
sg76
(lp2260
g1326
asbasbasbasbasbasbasbag69
(g85
g71
NtRp2261
(dp2262
g74
(dp2263
sg83
g1986
sg76
(lp2264
g69
(g90
g71
NtRp2265
(dp2266
g74
(dp2267
g94
g95
ssg83
g2261
sg76
(lp2268
g1594
asbag69
(g90
g71
NtRp2269
(dp2270
g74
(dp2271
g101
g102
ssg83
g2261
sg76
(lp2272
S':'
asbag69
(g90
g71
NtRp2273
(dp2274
g74
(dp2275
sg83
g2261
sg76
(lp2276
g69
(g70
g71
NtRp2277
(dp2278
g74
(dp2279
g82
I4
ssg83
g2273
sg76
(lp2280
g69
(g78
g71
NtRp2281
(dp2282
g74
(dp2283
g82
I3
ssg83
Nsg76
(lp2284
g69
(g85
g71
NtRp2285
(dp2286
g74
(dp2287
sg83
g2281
sg76
(lp2288
g69
(g90
g71
NtRp2289
(dp2290
g74
(dp2291
sg83
g2285
sg76
(lp2292
g69
(g70
g71
NtRp2293
(dp2294
g74
(dp2295
g82
I3
ssg83
g2289
sg76
(lp2296
S'2'
asbasbasbag69
(g85
g71
NtRp2297
(dp2298
g74
(dp2299
sg83
g2281
sg76
(lp2300
g69
(g90
g71
NtRp2301
(dp2302
g74
(dp2303
sg83
g2297
sg76
(lp2304
g69
(g70
g71
NtRp2305
(dp2306
g74
(dp2307
g82
I3
ssg83
g2301
sg76
(lp2308
S'3'
asbasbasbag69
(g85
g71
NtRp2309
(dp2310
g74
(dp2311
sg83
g2281
sg76
(lp2312
g69
(g90
g71
NtRp2313
(dp2314
g74
(dp2315
sg83
g2309
sg76
(lp2316
g69
(g70
g71
NtRp2317
(dp2318
g74
(dp2319
g82
I3
ssg83
g2313
sg76
(lp2320
S'2'
asbasbasbag69
(g85
g71
NtRp2321
(dp2322
g74
(dp2323
sg83
g2281
sg76
(lp2324
g69
(g90
g71
NtRp2325
(dp2326
g74
(dp2327
sg83
g2321
sg76
(lp2328
g69
(g70
g71
NtRp2329
(dp2330
g74
(dp2331
g82
I3
ssg83
g2325
sg76
(lp2332
S'datetime.datetime(2012, 12, 17, 15, 3, 30)'
p2333
asbasbasbag69
(g85
g71
NtRp2334
(dp2335
g74
(dp2336
sg83
g2281
sg76
(lp2337
g69
(g90
g71
NtRp2338
(dp2339
g74
(dp2340
sg83
g2334
sg76
(lp2341
g69
(g70
g71
NtRp2342
(dp2343
g74
(dp2344
g82
I3
ssg83
g2338
sg76
(lp2345
g1672
asbasbasbasbasbasbasbasbasbasbasbag69
(g85
g71
NtRp2346
(dp2347
g74
(dp2348
sg83
g79
sg76
(lp2349
g69
(g90
g71
NtRp2350
(dp2351
g74
(dp2352
g94
g95
ssg83
g2346
sg76
(lp2353
S'is_https'
p2354
asbag69
(g90
g71
NtRp2355
(dp2356
g74
(dp2357
g101
g102
ssg83
g2346
sg76
(lp2358
S':'
asbag69
(g90
g71
NtRp2359
(dp2360
g74
(dp2361
sg83
g2346
sg76
(lp2362
g69
(g70
g71
NtRp2363
(dp2364
g74
(dp2365
g82
I5
ssg83
g2359
sg76
(lp2366
g112
asbasbasbag69
(g85
g71
NtRp2367
(dp2368
g74
(dp2369
sg83
g79
sg76
(lp2370
g69
(g90
g71
NtRp2371
(dp2372
g74
(dp2373
g94
g95
ssg83
g2367
sg76
(lp2374
S'is_local'
p2375
asbag69
(g90
g71
NtRp2376
(dp2377
g74
(dp2378
g101
g102
ssg83
g2367
sg76
(lp2379
S':'
asbag69
(g90
g71
NtRp2380
(dp2381
g74
(dp2382
sg83
g2367
sg76
(lp2383
g69
(g70
g71
NtRp2384
(dp2385
g74
(dp2386
g82
I5
ssg83
g2380
sg76
(lp2387
g1781
asbasbasbag69
(g85
g71
NtRp2388
(dp2389
g74
(dp2390
sg83
g79
sg76
(lp2391
g69
(g90
g71
NtRp2392
(dp2393
g74
(dp2394
g94
g95
ssg83
g2388
sg76
(lp2395
S'is_restful'
p2396
asbag69
(g90
g71
NtRp2397
(dp2398
g74
(dp2399
g101
g102
ssg83
g2388
sg76
(lp2400
S':'
asbag69
(g90
g71
NtRp2401
(dp2402
g74
(dp2403
sg83
g2388
sg76
(lp2404
g69
(g70
g71
NtRp2405
(dp2406
g74
(dp2407
g82
I5
ssg83
g2401
sg76
(lp2408
g112
asbasbasbag69
(g85
g71
NtRp2409
(dp2410
g74
(dp2411
sg83
g79
sg76
(lp2412
g69
(g90
g71
NtRp2413
(dp2414
g74
(dp2415
g94
g95
ssg83
g2409
sg76
(lp2416
S'now'
p2417
asbag69
(g90
g71
NtRp2418
(dp2419
g74
(dp2420
g101
g102
ssg83
g2409
sg76
(lp2421
S':'
asbag69
(g90
g71
NtRp2422
(dp2423
g74
(dp2424
sg83
g2409
sg76
(lp2425
g69
(g70
g71
NtRp2426
(dp2427
g74
(dp2428
g82
I5
ssg83
g2422
sg76
(lp2429
S'datetime.datetime(2013, 4, 13, 13, 49, 27, 626891)'
p2430
asbasbasbag69
(g85
g71
NtRp2431
(dp2432
g74
(dp2433
sg83
g79
sg76
(lp2434
g69
(g90
g71
NtRp2435
(dp2436
g74
(dp2437
g94
g95
ssg83
g2431
sg76
(lp2438
S'post_vars'
p2439
asbag69
(g90
g71
NtRp2440
(dp2441
g74
(dp2442
g101
g102
ssg83
g2431
sg76
(lp2443
S':'
asbag69
(g90
g71
NtRp2444
(dp2445
g74
(dp2446
sg83
g2431
sg76
(lp2447
g69
(g70
g71
NtRp2448
(dp2449
g74
(dp2450
g82
I5
ssg83
g2444
sg76
(lp2451
g69
(g78
g71
NtRp2452
(dp2453
g74
(dp2454
g82
I4
ssg83
Nsg76
(lp2455
sbasbasbasbag69
(g85
g71
NtRp2456
(dp2457
g74
(dp2458
sg83
g79
sg76
(lp2459
g69
(g90
g71
NtRp2460
(dp2461
g74
(dp2462
g94
g95
ssg83
g2456
sg76
(lp2463
S'raw_args'
p2464
asbag69
(g90
g71
NtRp2465
(dp2466
g74
(dp2467
g101
g102
ssg83
g2456
sg76
(lp2468
S':'
asbag69
(g90
g71
NtRp2469
(dp2470
g74
(dp2471
sg83
g2456
sg76
(lp2472
g69
(g70
g71
NtRp2473
(dp2474
g74
(dp2475
g82
I5
ssg83
g2469
sg76
(lp2476
S''
asbasbasbag69
(g85
g71
NtRp2477
(dp2478
g74
(dp2479
sg83
g79
sg76
(lp2480
g69
(g90
g71
NtRp2481
(dp2482
g74
(dp2483
g94
g95
ssg83
g2477
sg76
(lp2484
S'raw_extension'
p2485
asbag69
(g90
g71
NtRp2486
(dp2487
g74
(dp2488
g101
g102
ssg83
g2477
sg76
(lp2489
S':'
asbag69
(g90
g71
NtRp2490
(dp2491
g74
(dp2492
sg83
g2477
sg76
(lp2493
g69
(g70
g71
NtRp2494
(dp2495
g74
(dp2496
g82
I5
ssg83
g2490
sg76
(lp2497
g1895
asbasbasbag69
(g85
g71
NtRp2498
(dp2499
g74
(dp2500
sg83
g79
sg76
(lp2501
g69
(g90
g71
NtRp2502
(dp2503
g74
(dp2504
g94
g95
ssg83
g2498
sg76
(lp2505
S'url'
p2506
asbag69
(g90
g71
NtRp2507
(dp2508
g74
(dp2509
g101
g102
ssg83
g2498
sg76
(lp2510
S':'
asbag69
(g90
g71
NtRp2511
(dp2512
g74
(dp2513
sg83
g2498
sg76
(lp2514
g69
(g70
g71
NtRp2515
(dp2516
g74
(dp2517
g82
I5
ssg83
g2511
sg76
(lp2518
g1348
asbasbasbag69
(g85
g71
NtRp2519
(dp2520
g74
(dp2521
sg83
g79
sg76
(lp2522
g69
(g90
g71
NtRp2523
(dp2524
g74
(dp2525
g94
g95
ssg83
g2519
sg76
(lp2526
S'utcnow'
p2527
asbag69
(g90
g71
NtRp2528
(dp2529
g74
(dp2530
g101
g102
ssg83
g2519
sg76
(lp2531
S':'
asbag69
(g90
g71
NtRp2532
(dp2533
g74
(dp2534
sg83
g2519
sg76
(lp2535
g69
(g70
g71
NtRp2536
(dp2537
g74
(dp2538
g82
I5
ssg83
g2532
sg76
(lp2539
S'datetime.datetime(2013, 4, 13, 8, 19, 27, 626912)'
p2540
asbasbasbag69
(g85
g71
NtRp2541
(dp2542
g74
(dp2543
sg83
g79
sg76
(lp2544
g69
(g90
g71
NtRp2545
(dp2546
g74
(dp2547
g94
g95
ssg83
g2541
sg76
(lp2548
S'uuid'
p2549
asbag69
(g90
g71
NtRp2550
(dp2551
g74
(dp2552
g101
g102
ssg83
g2541
sg76
(lp2553
S':'
asbag69
(g90
g71
NtRp2554
(dp2555
g74
(dp2556
sg83
g2541
sg76
(lp2557
g69
(g70
g71
NtRp2558
(dp2559
g74
(dp2560
g82
I5
ssg83
g2554
sg76
(lp2561
S'OnlineExamination/127.0.0.1.2013-04-13.13-49-27.d254cfbf-d97b-4a05-8f5b-e6a7e72d59ee'
p2562
asbasbasbag69
(g85
g71
NtRp2563
(dp2564
g74
(dp2565
sg83
g79
sg76
(lp2566
g69
(g90
g71
NtRp2567
(dp2568
g74
(dp2569
g94
g95
ssg83
g2563
sg76
(lp2570
S'vars'
p2571
asbag69
(g90
g71
NtRp2572
(dp2573
g74
(dp2574
g101
g102
ssg83
g2563
sg76
(lp2575
S':'
asbag69
(g90
g71
NtRp2576
(dp2577
g74
(dp2578
sg83
g2563
sg76
(lp2579
g69
(g70
g71
NtRp2580
(dp2581
g74
(dp2582
g82
I5
ssg83
g2576
sg76
(lp2583
g69
(g78
g71
NtRp2584
(dp2585
g74
(dp2586
g82
I4
ssg83
Nsg76
(lp2587
sbasbasbasbag69
(g85
g71
NtRp2588
(dp2589
g74
(dp2590
sg83
g79
sg76
(lp2591
g69
(g90
g71
NtRp2592
(dp2593
g74
(dp2594
g94
g95
ssg83
g2588
sg76
(lp2595
S'wsgi'
p2596
asbag69
(g90
g71
NtRp2597
(dp2598
g74
(dp2599
g101
g102
ssg83
g2588
sg76
(lp2600
S':'
asbag69
(g90
g71
NtRp2601
(dp2602
g74
(dp2603
sg83
g2588
sg76
(lp2604
g69
(g70
g71
NtRp2605
(dp2606
g74
(dp2607
g82
I5
ssg83
g2601
sg76
(lp2608
g69
(g78
g71
NtRp2609
(dp2610
g74
(dp2611
g82
I4
ssg83
Nsg76
(lp2612
g69
(g85
g71
NtRp2613
(dp2614
g74
(dp2615
sg83
g2609
sg76
(lp2616
g69
(g90
g71
NtRp2617
(dp2618
g74
(dp2619
g94
g95
ssg83
g2613
sg76
(lp2620
S'environ'
p2621
asbag69
(g90
g71
NtRp2622
(dp2623
g74
(dp2624
g101
g102
ssg83
g2613
sg76
(lp2625
S':'
asbag69
(g90
g71
NtRp2626
(dp2627
g74
(dp2628
sg83
g2613
sg76
(lp2629
g69
(g70
g71
NtRp2630
(dp2631
g74
(dp2632
g82
I4
ssg83
g2626
sg76
(lp2633
g69
(g78
g71
NtRp2634
(dp2635
g74
(dp2636
g82
I3
ssg83
Nsg76
(lp2637
g69
(g85
g71
NtRp2638
(dp2639
g74
(dp2640
sg83
g2634
sg76
(lp2641
g69
(g90
g71
NtRp2642
(dp2643
g74
(dp2644
g94
g95
ssg83
g2638
sg76
(lp2645
S'HTTP_ACCEPT'
p2646
asbag69
(g90
g71
NtRp2647
(dp2648
g74
(dp2649
g101
g102
ssg83
g2638
sg76
(lp2650
S':'
asbag69
(g90
g71
NtRp2651
(dp2652
g74
(dp2653
sg83
g2638
sg76
(lp2654
g69
(g70
g71
NtRp2655
(dp2656
g74
(dp2657
g82
I3
ssg83
g2651
sg76
(lp2658
g1040
asbasbasbag69
(g85
g71
NtRp2659
(dp2660
g74
(dp2661
sg83
g2634
sg76
(lp2662
g69
(g90
g71
NtRp2663
(dp2664
g74
(dp2665
g94
g95
ssg83
g2659
sg76
(lp2666
S'HTTP_ACCEPT_ENCODING'
p2667
asbag69
(g90
g71
NtRp2668
(dp2669
g74
(dp2670
g101
g102
ssg83
g2659
sg76
(lp2671
S':'
asbag69
(g90
g71
NtRp2672
(dp2673
g74
(dp2674
sg83
g2659
sg76
(lp2675
g69
(g70
g71
NtRp2676
(dp2677
g74
(dp2678
g82
I3
ssg83
g2672
sg76
(lp2679
g1062
asbasbasbag69
(g85
g71
NtRp2680
(dp2681
g74
(dp2682
sg83
g2634
sg76
(lp2683
g69
(g90
g71
NtRp2684
(dp2685
g74
(dp2686
g94
g95
ssg83
g2680
sg76
(lp2687
S'HTTP_ACCEPT_LANGUAGE'
p2688
asbag69
(g90
g71
NtRp2689
(dp2690
g74
(dp2691
g101
g102
ssg83
g2680
sg76
(lp2692
S':'
asbag69
(g90
g71
NtRp2693
(dp2694
g74
(dp2695
sg83
g2680
sg76
(lp2696
g69
(g70
g71
NtRp2697
(dp2698
g74
(dp2699
g82
I3
ssg83
g2693
sg76
(lp2700
g1084
asbasbasbag69
(g85
g71
NtRp2701
(dp2702
g74
(dp2703
sg83
g2634
sg76
(lp2704
g69
(g90
g71
NtRp2705
(dp2706
g74
(dp2707
g94
g95
ssg83
g2701
sg76
(lp2708
S'HTTP_CONNECTION'
p2709
asbag69
(g90
g71
NtRp2710
(dp2711
g74
(dp2712
g101
g102
ssg83
g2701
sg76
(lp2713
S':'
asbag69
(g90
g71
NtRp2714
(dp2715
g74
(dp2716
sg83
g2701
sg76
(lp2717
g69
(g70
g71
NtRp2718
(dp2719
g74
(dp2720
g82
I3
ssg83
g2714
sg76
(lp2721
g1106
asbasbasbag69
(g85
g71
NtRp2722
(dp2723
g74
(dp2724
sg83
g2634
sg76
(lp2725
g69
(g90
g71
NtRp2726
(dp2727
g74
(dp2728
g94
g95
ssg83
g2722
sg76
(lp2729
S'HTTP_COOKIE'
p2730
asbag69
(g90
g71
NtRp2731
(dp2732
g74
(dp2733
g101
g102
ssg83
g2722
sg76
(lp2734
S':'
asbag69
(g90
g71
NtRp2735
(dp2736
g74
(dp2737
sg83
g2722
sg76
(lp2738
g69
(g70
g71
NtRp2739
(dp2740
g74
(dp2741
g82
I3
ssg83
g2735
sg76
(lp2742
g1128
asbasbasbag69
(g85
g71
NtRp2743
(dp2744
g74
(dp2745
sg83
g2634
sg76
(lp2746
g69
(g90
g71
NtRp2747
(dp2748
g74
(dp2749
g94
g95
ssg83
g2743
sg76
(lp2750
S'HTTP_HOST'
p2751
asbag69
(g90
g71
NtRp2752
(dp2753
g74
(dp2754
g101
g102
ssg83
g2743
sg76
(lp2755
S':'
asbag69
(g90
g71
NtRp2756
(dp2757
g74
(dp2758
sg83
g2743
sg76
(lp2759
g69
(g70
g71
NtRp2760
(dp2761
g74
(dp2762
g82
I3
ssg83
g2756
sg76
(lp2763
g1150
asbasbasbag69
(g85
g71
NtRp2764
(dp2765
g74
(dp2766
sg83
g2634
sg76
(lp2767
g69
(g90
g71
NtRp2768
(dp2769
g74
(dp2770
g94
g95
ssg83
g2764
sg76
(lp2771
S'HTTP_REFERER'
p2772
asbag69
(g90
g71
NtRp2773
(dp2774
g74
(dp2775
g101
g102
ssg83
g2764
sg76
(lp2776
S':'
asbag69
(g90
g71
NtRp2777
(dp2778
g74
(dp2779
sg83
g2764
sg76
(lp2780
g69
(g70
g71
NtRp2781
(dp2782
g74
(dp2783
g82
I3
ssg83
g2777
sg76
(lp2784
g1172
asbasbasbag69
(g85
g71
NtRp2785
(dp2786
g74
(dp2787
sg83
g2634
sg76
(lp2788
g69
(g90
g71
NtRp2789
(dp2790
g74
(dp2791
g94
g95
ssg83
g2785
sg76
(lp2792
S'HTTP_USER_AGENT'
p2793
asbag69
(g90
g71
NtRp2794
(dp2795
g74
(dp2796
g101
g102
ssg83
g2785
sg76
(lp2797
S':'
asbag69
(g90
g71
NtRp2798
(dp2799
g74
(dp2800
sg83
g2785
sg76
(lp2801
g69
(g70
g71
NtRp2802
(dp2803
g74
(dp2804
g82
I3
ssg83
g2798
sg76
(lp2805
g1194
asbasbasbag69
(g85
g71
NtRp2806
(dp2807
g74
(dp2808
sg83
g2634
sg76
(lp2809
g69
(g90
g71
NtRp2810
(dp2811
g74
(dp2812
g94
g95
ssg83
g2806
sg76
(lp2813
S'PATH_INFO'
p2814
asbag69
(g90
g71
NtRp2815
(dp2816
g74
(dp2817
g101
g102
ssg83
g2806
sg76
(lp2818
S':'
asbag69
(g90
g71
NtRp2819
(dp2820
g74
(dp2821
sg83
g2806
sg76
(lp2822
g69
(g70
g71
NtRp2823
(dp2824
g74
(dp2825
g82
I3
ssg83
g2819
sg76
(lp2826
g1348
asbasbasbag69
(g85
g71
NtRp2827
(dp2828
g74
(dp2829
sg83
g2634
sg76
(lp2830
g69
(g90
g71
NtRp2831
(dp2832
g74
(dp2833
g94
g95
ssg83
g2827
sg76
(lp2834
S'QUERY_STRING'
p2835
asbag69
(g90
g71
NtRp2836
(dp2837
g74
(dp2838
g101
g102
ssg83
g2827
sg76
(lp2839
S':'
asbag69
(g90
g71
NtRp2840
(dp2841
g74
(dp2842
sg83
g2827
sg76
(lp2843
g69
(g70
g71
NtRp2844
(dp2845
g74
(dp2846
g82
I3
ssg83
g2840
sg76
(lp2847
S''
asbasbasbag69
(g85
g71
NtRp2848
(dp2849
g74
(dp2850
sg83
g2634
sg76
(lp2851
g69
(g90
g71
NtRp2852
(dp2853
g74
(dp2854
g94
g95
ssg83
g2848
sg76
(lp2855
S'REMOTE_ADDR'
p2856
asbag69
(g90
g71
NtRp2857
(dp2858
g74
(dp2859
g101
g102
ssg83
g2848
sg76
(lp2860
S':'
asbag69
(g90
g71
NtRp2861
(dp2862
g74
(dp2863
sg83
g2848
sg76
(lp2864
g69
(g70
g71
NtRp2865
(dp2866
g74
(dp2867
g82
I3
ssg83
g2861
sg76
(lp2868
g224
asbasbasbag69
(g85
g71
NtRp2869
(dp2870
g74
(dp2871
sg83
g2634
sg76
(lp2872
g69
(g90
g71
NtRp2873
(dp2874
g74
(dp2875
g94
g95
ssg83
g2869
sg76
(lp2876
S'REMOTE_PORT'
p2877
asbag69
(g90
g71
NtRp2878
(dp2879
g74
(dp2880
g101
g102
ssg83
g2869
sg76
(lp2881
S':'
asbag69
(g90
g71
NtRp2882
(dp2883
g74
(dp2884
sg83
g2869
sg76
(lp2885
g69
(g70
g71
NtRp2886
(dp2887
g74
(dp2888
g82
I3
ssg83
g2882
sg76
(lp2889
g1412
asbasbasbag69
(g85
g71
NtRp2890
(dp2891
g74
(dp2892
sg83
g2634
sg76
(lp2893
g69
(g90
g71
NtRp2894
(dp2895
g74
(dp2896
g94
g95
ssg83
g2890
sg76
(lp2897
S'REQUEST_METHOD'
p2898
asbag69
(g90
g71
NtRp2899
(dp2900
g74
(dp2901
g101
g102
ssg83
g2890
sg76
(lp2902
S':'
asbag69
(g90
g71
NtRp2903
(dp2904
g74
(dp2905
sg83
g2890
sg76
(lp2906
g69
(g70
g71
NtRp2907
(dp2908
g74
(dp2909
g82
I3
ssg83
g2903
sg76
(lp2910
g1434
asbasbasbag69
(g85
g71
NtRp2911
(dp2912
g74
(dp2913
sg83
g2634
sg76
(lp2914
g69
(g90
g71
NtRp2915
(dp2916
g74
(dp2917
g94
g95
ssg83
g2911
sg76
(lp2918
S'REQUEST_URI'
p2919
asbag69
(g90
g71
NtRp2920
(dp2921
g74
(dp2922
g101
g102
ssg83
g2911
sg76
(lp2923
S':'
asbag69
(g90
g71
NtRp2924
(dp2925
g74
(dp2926
sg83
g2911
sg76
(lp2927
g69
(g70
g71
NtRp2928
(dp2929
g74
(dp2930
g82
I3
ssg83
g2924
sg76
(lp2931
g1348
asbasbasbag69
(g85
g71
NtRp2932
(dp2933
g74
(dp2934
sg83
g2634
sg76
(lp2935
g69
(g90
g71
NtRp2936
(dp2937
g74
(dp2938
g94
g95
ssg83
g2932
sg76
(lp2939
S'SCRIPT_NAME'
p2940
asbag69
(g90
g71
NtRp2941
(dp2942
g74
(dp2943
g101
g102
ssg83
g2932
sg76
(lp2944
S':'
asbag69
(g90
g71
NtRp2945
(dp2946
g74
(dp2947
sg83
g2932
sg76
(lp2948
g69
(g70
g71
NtRp2949
(dp2950
g74
(dp2951
g82
I3
ssg83
g2945
sg76
(lp2952
S''
asbasbasbag69
(g85
g71
NtRp2953
(dp2954
g74
(dp2955
sg83
g2634
sg76
(lp2956
g69
(g90
g71
NtRp2957
(dp2958
g74
(dp2959
g94
g95
ssg83
g2953
sg76
(lp2960
S'SERVER_NAME'
p2961
asbag69
(g90
g71
NtRp2962
(dp2963
g74
(dp2964
g101
g102
ssg83
g2953
sg76
(lp2965
S':'
asbag69
(g90
g71
NtRp2966
(dp2967
g74
(dp2968
sg83
g2953
sg76
(lp2969
g69
(g70
g71
NtRp2970
(dp2971
g74
(dp2972
g82
I3
ssg83
g2966
sg76
(lp2973
g1498
asbasbasbag69
(g85
g71
NtRp2974
(dp2975
g74
(dp2976
sg83
g2634
sg76
(lp2977
g69
(g90
g71
NtRp2978
(dp2979
g74
(dp2980
g94
g95
ssg83
g2974
sg76
(lp2981
S'SERVER_PORT'
p2982
asbag69
(g90
g71
NtRp2983
(dp2984
g74
(dp2985
g101
g102
ssg83
g2974
sg76
(lp2986
S':'
asbag69
(g90
g71
NtRp2987
(dp2988
g74
(dp2989
sg83
g2974
sg76
(lp2990
g69
(g70
g71
NtRp2991
(dp2992
g74
(dp2993
g82
I3
ssg83
g2987
sg76
(lp2994
g1520
asbasbasbag69
(g85
g71
NtRp2995
(dp2996
g74
(dp2997
sg83
g2634
sg76
(lp2998
g69
(g90
g71
NtRp2999
(dp3000
g74
(dp3001
g94
g95
ssg83
g2995
sg76
(lp3002
S'SERVER_PROTOCOL'
p3003
asbag69
(g90
g71
NtRp3004
(dp3005
g74
(dp3006
g101
g102
ssg83
g2995
sg76
(lp3007
S':'
asbag69
(g90
g71
NtRp3008
(dp3009
g74
(dp3010
sg83
g2995
sg76
(lp3011
g69
(g70
g71
NtRp3012
(dp3013
g74
(dp3014
g82
I3
ssg83
g3008
sg76
(lp3015
g1542
asbasbasbag69
(g85
g71
NtRp3016
(dp3017
g74
(dp3018
sg83
g2634
sg76
(lp3019
g69
(g90
g71
NtRp3020
(dp3021
g74
(dp3022
g94
g95
ssg83
g3016
sg76
(lp3023
S'SERVER_SOFTWARE'
p3024
asbag69
(g90
g71
NtRp3025
(dp3026
g74
(dp3027
g101
g102
ssg83
g3016
sg76
(lp3028
S':'
asbag69
(g90
g71
NtRp3029
(dp3030
g74
(dp3031
sg83
g3016
sg76
(lp3032
g69
(g70
g71
NtRp3033
(dp3034
g74
(dp3035
g82
I3
ssg83
g3029
sg76
(lp3036
g1564
asbasbasbag69
(g85
g71
NtRp3037
(dp3038
g74
(dp3039
sg83
g2634
sg76
(lp3040
g69
(g90
g71
NtRp3041
(dp3042
g74
(dp3043
g94
g95
ssg83
g3037
sg76
(lp3044
S'wsgi.errors'
p3045
asbag69
(g90
g71
NtRp3046
(dp3047
g74
(dp3048
g101
g102
ssg83
g3037
sg76
(lp3049
S':'
asbag69
(g90
g71
NtRp3050
(dp3051
g74
(dp3052
sg83
g3037
sg76
(lp3053
g69
(g70
g71
NtRp3054
(dp3055
g74
(dp3056
g82
I3
ssg83
g3050
sg76
(lp3057
S"<open file '<stderr>', mode 'w' at 0x7f253778a270>"
p3058
asbasbasbag69
(g85
g71
NtRp3059
(dp3060
g74
(dp3061
sg83
g2634
sg76
(lp3062
g69
(g90
g71
NtRp3063
(dp3064
g74
(dp3065
g94
g95
ssg83
g3059
sg76
(lp3066
S'wsgi.file_wrapper'
p3067
asbag69
(g90
g71
NtRp3068
(dp3069
g74
(dp3070
g101
g102
ssg83
g3059
sg76
(lp3071
S':'
asbag69
(g90
g71
NtRp3072
(dp3073
g74
(dp3074
sg83
g3059
sg76
(lp3075
g69
(g70
g71
NtRp3076
(dp3077
g74
(dp3078
g82
I3
ssg83
g3072
sg76
(lp3079
S'<class wsgiref.util.FileWrapper at 0x3231c18>'
p3080
asbasbasbag69
(g85
g71
NtRp3081
(dp3082
g74
(dp3083
sg83
g2634
sg76
(lp3084
g69
(g90
g71
NtRp3085
(dp3086
g74
(dp3087
g94
g95
ssg83
g3081
sg76
(lp3088
S'wsgi.input'
p3089
asbag69
(g90
g71
NtRp3090
(dp3091
g74
(dp3092
g101
g102
ssg83
g3081
sg76
(lp3093
S':'
asbag69
(g90
g71
NtRp3094
(dp3095
g74
(dp3096
sg83
g3081
sg76
(lp3097
g69
(g70
g71
NtRp3098
(dp3099
g74
(dp3100
g82
I3
ssg83
g3094
sg76
(lp3101
S'<cStringIO.StringO object at 0x7f2500501ab0>'
p3102
asbasbasbag69
(g85
g71
NtRp3103
(dp3104
g74
(dp3105
sg83
g2634
sg76
(lp3106
g69
(g90
g71
NtRp3107
(dp3108
g74
(dp3109
g94
g95
ssg83
g3103
sg76
(lp3110
S'wsgi.multiprocess'
p3111
asbag69
(g90
g71
NtRp3112
(dp3113
g74
(dp3114
g101
g102
ssg83
g3103
sg76
(lp3115
S':'
asbag69
(g90
g71
NtRp3116
(dp3117
g74
(dp3118
sg83
g3103
sg76
(lp3119
g69
(g70
g71
NtRp3120
(dp3121
g74
(dp3122
g82
I3
ssg83
g3116
sg76
(lp3123
g112
asbasbasbag69
(g85
g71
NtRp3124
(dp3125
g74
(dp3126
sg83
g2634
sg76
(lp3127
g69
(g90
g71
NtRp3128
(dp3129
g74
(dp3130
g94
g95
ssg83
g3124
sg76
(lp3131
S'wsgi.multithread'
p3132
asbag69
(g90
g71
NtRp3133
(dp3134
g74
(dp3135
g101
g102
ssg83
g3124
sg76
(lp3136
S':'
asbag69
(g90
g71
NtRp3137
(dp3138
g74
(dp3139
sg83
g3124
sg76
(lp3140
g69
(g70
g71
NtRp3141
(dp3142
g74
(dp3143
g82
I3
ssg83
g3137
sg76
(lp3144
g1781
asbasbasbag69
(g85
g71
NtRp3145
(dp3146
g74
(dp3147
sg83
g2634
sg76
(lp3148
g69
(g90
g71
NtRp3149
(dp3150
g74
(dp3151
g94
g95
ssg83
g3145
sg76
(lp3152
S'wsgi.run_once'
p3153
asbag69
(g90
g71
NtRp3154
(dp3155
g74
(dp3156
g101
g102
ssg83
g3145
sg76
(lp3157
S':'
asbag69
(g90
g71
NtRp3158
(dp3159
g74
(dp3160
sg83
g3145
sg76
(lp3161
g69
(g70
g71
NtRp3162
(dp3163
g74
(dp3164
g82
I3
ssg83
g3158
sg76
(lp3165
g112
asbasbasbag69
(g85
g71
NtRp3166
(dp3167
g74
(dp3168
sg83
g2634
sg76
(lp3169
g69
(g90
g71
NtRp3170
(dp3171
g74
(dp3172
g94
g95
ssg83
g3166
sg76
(lp3173
S'wsgi.url_scheme'
p3174
asbag69
(g90
g71
NtRp3175
(dp3176
g74
(dp3177
g101
g102
ssg83
g3166
sg76
(lp3178
S':'
asbag69
(g90
g71
NtRp3179
(dp3180
g74
(dp3181
sg83
g3166
sg76
(lp3182
g69
(g70
g71
NtRp3183
(dp3184
g74
(dp3185
g82
I3
ssg83
g3179
sg76
(lp3186
g1824
asbasbasbag69
(g85
g71
NtRp3187
(dp3188
g74
(dp3189
sg83
g2634
sg76
(lp3190
g69
(g90
g71
NtRp3191
(dp3192
g74
(dp3193
g94
g95
ssg83
g3187
sg76
(lp3194
S'wsgi.version'
p3195
asbag69
(g90
g71
NtRp3196
(dp3197
g74
(dp3198
g101
g102
ssg83
g3187
sg76
(lp3199
S':'
asbag69
(g90
g71
NtRp3200
(dp3201
g74
(dp3202
sg83
g3187
sg76
(lp3203
g69
(g70
g71
NtRp3204
(dp3205
g74
(dp3206
g82
I3
ssg83
g3200
sg76
(lp3207
S'1'
asbasbasbasbasbasbasbasbasbasbasbasbasbsS'frames'
p3208
(lp3209
(dp3210
S'file'
p3211
S'/home/saurabh/web2py/gluon/restricted.py'
p3212
sS'dump'
p3213
(dp3214
S'code'
p3215
S"'# -*- coding: utf-8 -*-\\n# this file is released ...orm)\\n\\nresponse._vars=response._caller(give_exam)\\n'"
p3216
sS'layer'
p3217
S"'/home/saurabh/web2py/applications/OnlineExamination/controllers/default.py'"
p3218
sS'global compile2'
p3219
S'<function compile2>'
p3220
sS'ccode'
p3221
S'undefined'
p3222
ssS'lnum'
p3223
I211
sS'lines'
p3224
(dp3225
I206
S"    environment['__name__'] = '__restricted__'"
p3226
sI207
S'    try:'
p3227
sI208
S'        if isinstance(code, types.CodeType):'
p3228
sI209
S'            ccode = code'
p3229
sI210
S'        else:'
p3230
sI211
S'            ccode = compile2(code, layer)'
p3231
sI212
S'        exec ccode in environment'
p3232
sI213
S'    except HTTP:'
p3233
sI214
S'        raise'
p3234
sI215
S'    except RestrictedError:'
p3235
ssS'call'
p3236
S"(code='# -*- coding: utf-8 -*-\\n# this file is released ...orm)\\n\\nresponse._vars=response._caller(give_exam)\\n', environment={'A': <class 'gluon.html.A'>, 'Auth': <class 'gluon.tools.Auth'>, 'B': <class 'gluon.html.B'>, 'BEAUTIFY': <class 'gluon.html.BEAUTIFY'>, 'BODY': <class 'gluon.html.BODY'>, 'BR': <class 'gluon.html.BR'>, 'BUTTON': <class 'gluon.html.BUTTON'>, 'CAT': <class 'gluon.html.CAT'>, 'CENTER': <class 'gluon.html.CENTER'>, 'CLEANUP': <class 'gluon.validators.CLEANUP'>, ...}, layer='/home/saurabh/web2py/applications/OnlineExamination/controllers/default.py')"
p3237
sS'func'
p3238
S'restricted'
p3239
sa(dp3240
g3211
S'/home/saurabh/web2py/gluon/restricted.py'
p3241
sg3213
(dp3242
S'builtincompile'
p3243
S'<built-in function compile>'
p3244
sS'code'
p3245
S"'# -*- coding: utf-8 -*-\\n# this file is released ...orm)\\n\\nresponse._vars=response._caller(give_exam)\\n'"
p3246
sS'code.rstrip'
p3247
S'<built-in method rstrip of str object>'
p3248
sS').replace'
p3249
g3222
sS'layer'
p3250
S"'/home/saurabh/web2py/applications/OnlineExamination/controllers/default.py'"
p3251
ssg3223
I194
sg3224
(dp3252
I192
S"    The +'\\n' is necessary else compile fails when code ends in a comment."
p3253
sI193
S'    """'
p3254
sI194
S"    return compile(code.rstrip().replace('\\r\\n', '\\n') + '\\n', layer, 'exec')"
p3255
sI195
S''
sI196
S''
sI197
S"def restricted(code, environment=None, layer='Unknown'):"
p3256
sI198
S'    """'
p3257
sI189
S''
sI190
S'def compile2(code, layer):'
p3258
sI191
S'    """'
p3259
ssg3236
S"(code='# -*- coding: utf-8 -*-\\n# this file is released ...orm)\\n\\nresponse._vars=response._caller(give_exam)\\n', layer='/home/saurabh/web2py/applications/OnlineExamination/controllers/default.py')"
p3260
sg3238
S'compile2'
p3261
sasS'pyver'
p3262
S'Python 2.7.3: /usr/bin/python'
p3263
sS'session'
p3264
g69
(g70
g71
NtRp3265
(dp3266
g74
(dp3267
sg76
(lp3268
g69
(g78
g71
NtRp3269
(dp3270
g74
(dp3271
g82
I5
ssg83
Nsg76
(lp3272
g69
(g85
g71
NtRp3273
(dp3274
g74
(dp3275
sg83
g3269
sg76
(lp3276
g69
(g90
g71
NtRp3277
(dp3278
g74
(dp3279
g94
g95
ssg83
g3273
sg76
(lp3280
S'auth'
p3281
asbag69
(g90
g71
NtRp3282
(dp3283
g74
(dp3284
g101
g102
ssg83
g3273
sg76
(lp3285
S':'
asbag69
(g90
g71
NtRp3286
(dp3287
g74
(dp3288
sg83
g3273
sg76
(lp3289
g69
(g70
g71
NtRp3290
(dp3291
g74
(dp3292
g82
I5
ssg83
g3286
sg76
(lp3293
g69
(g78
g71
NtRp3294
(dp3295
g74
(dp3296
g82
I4
ssg83
Nsg76
(lp3297
g69
(g85
g71
NtRp3298
(dp3299
g74
(dp3300
sg83
g3294
sg76
(lp3301
g69
(g90
g71
NtRp3302
(dp3303
g74
(dp3304
g94
g95
ssg83
g3298
sg76
(lp3305
S'expiration'
p3306
asbag69
(g90
g71
NtRp3307
(dp3308
g74
(dp3309
g101
g102
ssg83
g3298
sg76
(lp3310
S':'
asbag69
(g90
g71
NtRp3311
(dp3312
g74
(dp3313
sg83
g3298
sg76
(lp3314
g69
(g70
g71
NtRp3315
(dp3316
g74
(dp3317
g82
I4
ssg83
g3311
sg76
(lp3318
S'3600'
p3319
asbasbasbag69
(g85
g71
NtRp3320
(dp3321
g74
(dp3322
sg83
g3294
sg76
(lp3323
g69
(g90
g71
NtRp3324
(dp3325
g74
(dp3326
g94
g95
ssg83
g3320
sg76
(lp3327
S'hmac_key'
p3328
asbag69
(g90
g71
NtRp3329
(dp3330
g74
(dp3331
g101
g102
ssg83
g3320
sg76
(lp3332
S':'
asbag69
(g90
g71
NtRp3333
(dp3334
g74
(dp3335
sg83
g3320
sg76
(lp3336
g69
(g70
g71
NtRp3337
(dp3338
g74
(dp3339
g82
I4
ssg83
g3333
sg76
(lp3340
S'2de99667-174f-4740-9c37-4e632ef3fc86'
p3341
asbasbasbag69
(g85
g71
NtRp3342
(dp3343
g74
(dp3344
sg83
g3294
sg76
(lp3345
g69
(g90
g71
NtRp3346
(dp3347
g74
(dp3348
g94
g95
ssg83
g3342
sg76
(lp3349
S'last_visit'
p3350
asbag69
(g90
g71
NtRp3351
(dp3352
g74
(dp3353
g101
g102
ssg83
g3342
sg76
(lp3354
S':'
asbag69
(g90
g71
NtRp3355
(dp3356
g74
(dp3357
sg83
g3342
sg76
(lp3358
g69
(g70
g71
NtRp3359
(dp3360
g74
(dp3361
g82
I4
ssg83
g3355
sg76
(lp3362
S'datetime.datetime(2013, 4, 13, 13, 47, 29, 542955)'
p3363
asbasbasbag69
(g85
g71
NtRp3364
(dp3365
g74
(dp3366
sg83
g3294
sg76
(lp3367
g69
(g90
g71
NtRp3368
(dp3369
g74
(dp3370
g94
g95
ssg83
g3364
sg76
(lp3371
S'user'
p3372
asbag69
(g90
g71
NtRp3373
(dp3374
g74
(dp3375
g101
g102
ssg83
g3364
sg76
(lp3376
S':'
asbag69
(g90
g71
NtRp3377
(dp3378
g74
(dp3379
sg83
g3364
sg76
(lp3380
g69
(g70
g71
NtRp3381
(dp3382
g74
(dp3383
g82
I4
ssg83
g3377
sg76
(lp3384
g69
(g78
g71
NtRp3385
(dp3386
g74
(dp3387
g82
I3
ssg83
Nsg76
(lp3388
g69
(g85
g71
NtRp3389
(dp3390
g74
(dp3391
sg83
g3385
sg76
(lp3392
g69
(g90
g71
NtRp3393
(dp3394
g74
(dp3395
g94
g95
ssg83
g3389
sg76
(lp3396
S'email'
p3397
asbag69
(g90
g71
NtRp3398
(dp3399
g74
(dp3400
g101
g102
ssg83
g3389
sg76
(lp3401
S':'
asbag69
(g90
g71
NtRp3402
(dp3403
g74
(dp3404
sg83
g3389
sg76
(lp3405
g69
(g70
g71
NtRp3406
(dp3407
g74
(dp3408
g82
I3
ssg83
g3402
sg76
(lp3409
S'am@gmail.com'
p3410
asbasbasbag69
(g85
g71
NtRp3411
(dp3412
g74
(dp3413
sg83
g3385
sg76
(lp3414
g69
(g90
g71
NtRp3415
(dp3416
g74
(dp3417
g94
g95
ssg83
g3411
sg76
(lp3418
S'first_name'
p3419
asbag69
(g90
g71
NtRp3420
(dp3421
g74
(dp3422
g101
g102
ssg83
g3411
sg76
(lp3423
S':'
asbag69
(g90
g71
NtRp3424
(dp3425
g74
(dp3426
sg83
g3411
sg76
(lp3427
g69
(g70
g71
NtRp3428
(dp3429
g74
(dp3430
g82
I3
ssg83
g3424
sg76
(lp3431
S'Aabhas'
p3432
asbasbasbag69
(g85
g71
NtRp3433
(dp3434
g74
(dp3435
sg83
g3385
sg76
(lp3436
g69
(g90
g71
NtRp3437
(dp3438
g74
(dp3439
g94
g95
ssg83
g3433
sg76
(lp3440
S'id'
p3441
asbag69
(g90
g71
NtRp3442
(dp3443
g74
(dp3444
g101
g102
ssg83
g3433
sg76
(lp3445
S':'
asbag69
(g90
g71
NtRp3446
(dp3447
g74
(dp3448
sg83
g3433
sg76
(lp3449
g69
(g70
g71
NtRp3450
(dp3451
g74
(dp3452
g82
I3
ssg83
g3446
sg76
(lp3453
S'27'
p3454
asbasbasbag69
(g85
g71
NtRp3455
(dp3456
g74
(dp3457
sg83
g3385
sg76
(lp3458
g69
(g90
g71
NtRp3459
(dp3460
g74
(dp3461
g94
g95
ssg83
g3455
sg76
(lp3462
S'last_name'
p3463
asbag69
(g90
g71
NtRp3464
(dp3465
g74
(dp3466
g101
g102
ssg83
g3455
sg76
(lp3467
S':'
asbag69
(g90
g71
NtRp3468
(dp3469
g74
(dp3470
sg83
g3455
sg76
(lp3471
g69
(g70
g71
NtRp3472
(dp3473
g74
(dp3474
g82
I3
ssg83
g3468
sg76
(lp3475
S'Majumdar'
p3476
asbasbasbag69
(g85
g71
NtRp3477
(dp3478
g74
(dp3479
sg83
g3385
sg76
(lp3480
g69
(g90
g71
NtRp3481
(dp3482
g74
(dp3483
g94
g95
ssg83
g3477
sg76
(lp3484
S'registration_id'
p3485
asbag69
(g90
g71
NtRp3486
(dp3487
g74
(dp3488
g101
g102
ssg83
g3477
sg76
(lp3489
S':'
asbag69
(g90
g71
NtRp3490
(dp3491
g74
(dp3492
sg83
g3477
sg76
(lp3493
g69
(g70
g71
NtRp3494
(dp3495
g74
(dp3496
g82
I3
ssg83
g3490
sg76
(lp3497
S''
asbasbasbag69
(g85
g71
NtRp3498
(dp3499
g74
(dp3500
sg83
g3385
sg76
(lp3501
g69
(g90
g71
NtRp3502
(dp3503
g74
(dp3504
g94
g95
ssg83
g3498
sg76
(lp3505
S'registration_key'
p3506
asbag69
(g90
g71
NtRp3507
(dp3508
g74
(dp3509
g101
g102
ssg83
g3498
sg76
(lp3510
S':'
asbag69
(g90
g71
NtRp3511
(dp3512
g74
(dp3513
sg83
g3498
sg76
(lp3514
g69
(g70
g71
NtRp3515
(dp3516
g74
(dp3517
g82
I3
ssg83
g3511
sg76
(lp3518
S''
asbasbasbag69
(g85
g71
NtRp3519
(dp3520
g74
(dp3521
sg83
g3385
sg76
(lp3522
g69
(g90
g71
NtRp3523
(dp3524
g74
(dp3525
g94
g95
ssg83
g3519
sg76
(lp3526
S'reset_password_key'
p3527
asbag69
(g90
g71
NtRp3528
(dp3529
g74
(dp3530
g101
g102
ssg83
g3519
sg76
(lp3531
S':'
asbag69
(g90
g71
NtRp3532
(dp3533
g74
(dp3534
sg83
g3519
sg76
(lp3535
g69
(g70
g71
NtRp3536
(dp3537
g74
(dp3538
g82
I3
ssg83
g3532
sg76
(lp3539
S''
asbasbasbasbasbasbasbag69
(g85
g71
NtRp3540
(dp3541
g74
(dp3542
sg83
g3294
sg76
(lp3543
g69
(g90
g71
NtRp3544
(dp3545
g74
(dp3546
g94
g95
ssg83
g3540
sg76
(lp3547
S'user_groups'
p3548
asbag69
(g90
g71
NtRp3549
(dp3550
g74
(dp3551
g101
g102
ssg83
g3540
sg76
(lp3552
S':'
asbag69
(g90
g71
NtRp3553
(dp3554
g74
(dp3555
sg83
g3540
sg76
(lp3556
g69
(g70
g71
NtRp3557
(dp3558
g74
(dp3559
g82
I4
ssg83
g3553
sg76
(lp3560
g69
(g78
g71
NtRp3561
(dp3562
g74
(dp3563
g82
I3
ssg83
Nsg76
(lp3564
g69
(g85
g71
NtRp3565
(dp3566
g74
(dp3567
sg83
g3561
sg76
(lp3568
g69
(g90
g71
NtRp3569
(dp3570
g74
(dp3571
g94
g95
ssg83
g3565
sg76
(lp3572
S'28'
p3573
asbag69
(g90
g71
NtRp3574
(dp3575
g74
(dp3576
g101
g102
ssg83
g3565
sg76
(lp3577
S':'
asbag69
(g90
g71
NtRp3578
(dp3579
g74
(dp3580
sg83
g3565
sg76
(lp3581
g69
(g70
g71
NtRp3582
(dp3583
g74
(dp3584
g82
I3
ssg83
g3578
sg76
(lp3585
S'user_27'
p3586
asbasbasbasbasbasbasbasbasbasbasbag69
(g85
g71
NtRp3587
(dp3588
g74
(dp3589
sg83
g3269
sg76
(lp3590
g69
(g90
g71
NtRp3591
(dp3592
g74
(dp3593
g94
g95
ssg83
g3587
sg76
(lp3594
S'flash'
p3595
asbag69
(g90
g71
NtRp3596
(dp3597
g74
(dp3598
g101
g102
ssg83
g3587
sg76
(lp3599
S':'
asbag69
(g90
g71
NtRp3600
(dp3601
g74
(dp3602
sg83
g3587
sg76
(lp3603
g69
(g70
g71
NtRp3604
(dp3605
g74
(dp3606
g82
I5
ssg83
g3600
sg76
(lp3607
S'None'
p3608
asbasbasbag69
(g85
g71
NtRp3609
(dp3610
g74
(dp3611
sg83
g3269
sg76
(lp3612
g69
(g90
g71
NtRp3613
(dp3614
g74
(dp3615
g94
g95
ssg83
g3609
sg76
(lp3616
S'last_orderby'
p3617
asbag69
(g90
g71
NtRp3618
(dp3619
g74
(dp3620
g101
g102
ssg83
g3609
sg76
(lp3621
S':'
asbag69
(g90
g71
NtRp3622
(dp3623
g74
(dp3624
sg83
g3609
sg76
(lp3625
g69
(g70
g71
NtRp3626
(dp3627
g74
(dp3628
g82
I5
ssg83
g3622
sg76
(lp3629
S'None'
p3630
asbasbasbag69
(g85
g71
NtRp3631
(dp3632
g74
(dp3633
sg83
g3269
sg76
(lp3634
g69
(g90
g71
NtRp3635
(dp3636
g74
(dp3637
g94
g95
ssg83
g3631
sg76
(lp3638
S'last_query'
p3639
asbag69
(g90
g71
NtRp3640
(dp3641
g74
(dp3642
g101
g102
ssg83
g3631
sg76
(lp3643
S':'
asbag69
(g90
g71
NtRp3644
(dp3645
g74
(dp3646
sg83
g3631
sg76
(lp3647
g69
(g70
g71
NtRp3648
(dp3649
g74
(dp3650
g82
I5
ssg83
g3644
sg76
(lp3651
S'db.student.id>0'
p3652
asbasbasbasbasbsS'etype'
p3653
S"<type 'exceptions.IndentationError'>"
p3654
sS'date'
p3655
S'Sat Apr 13 13:49:27 2013'
p3656
sS'response'
p3657
g69
(g70
g71
NtRp3658
(dp3659
g74
(dp3660
sg76
(lp3661
g69
(g78
g71
NtRp3662
(dp3663
g74
(dp3664
g82
I5
ssg83
Nsg76
(lp3665
g69
(g85
g71
NtRp3666
(dp3667
g74
(dp3668
sg83
g3662
sg76
(lp3669
g69
(g90
g71
NtRp3670
(dp3671
g74
(dp3672
g94
g95
ssg83
g3666
sg76
(lp3673
g167
asbag69
(g90
g71
NtRp3674
(dp3675
g74
(dp3676
g101
g102
ssg83
g3666
sg76
(lp3677
S':'
asbag69
(g90
g71
NtRp3678
(dp3679
g74
(dp3680
sg83
g3666
sg76
(lp3681
g69
(g70
g71
NtRp3682
(dp3683
g74
(dp3684
g82
I5
ssg83
g3678
sg76
(lp3685
S'<cStringIO.StringO object at 0x7f25244461f0>'
p3686
asbasbasbag69
(g85
g71
NtRp3687
(dp3688
g74
(dp3689
sg83
g3662
sg76
(lp3690
g69
(g90
g71
NtRp3691
(dp3692
g74
(dp3693
g94
g95
ssg83
g3687
sg76
(lp3694
g255
asbag69
(g90
g71
NtRp3695
(dp3696
g74
(dp3697
g101
g102
ssg83
g3687
sg76
(lp3698
S':'
asbag69
(g90
g71
NtRp3699
(dp3700
g74
(dp3701
sg83
g3687
sg76
(lp3702
g69
(g70
g71
NtRp3703
(dp3704
g74
(dp3705
g82
I5
ssg83
g3699
sg76
(lp3706
g69
(g78
g71
NtRp3707
(dp3708
g74
(dp3709
g82
I4
ssg83
Nsg76
(lp3710
g69
(g85
g71
NtRp3711
(dp3712
g74
(dp3713
sg83
g3707
sg76
(lp3714
g69
(g90
g71
NtRp3715
(dp3716
g74
(dp3717
g94
g95
ssg83
g3711
sg76
(lp3718
S'session_id_onlineexamination'
p3719
asbag69
(g90
g71
NtRp3720
(dp3721
g74
(dp3722
g101
g102
ssg83
g3711
sg76
(lp3723
S':'
asbag69
(g90
g71
NtRp3724
(dp3725
g74
(dp3726
sg83
g3711
sg76
(lp3727
g69
(g70
g71
NtRp3728
(dp3729
g74
(dp3730
g82
I4
ssg83
g3724
sg76
(lp3731
g487
ag69
(g78
g71
NtRp3732
(dp3733
g74
(dp3734
g82
I3
ssg83
Nsg76
(lp3735
g69
(g85
g71
NtRp3736
(dp3737
g74
(dp3738
sg83
g3732
sg76
(lp3739
g69
(g90
g71
NtRp3740
(dp3741
g74
(dp3742
g94
g95
ssg83
g3736
sg76
(lp3743
g306
asbag69
(g90
g71
NtRp3744
(dp3745
g74
(dp3746
g101
g102
ssg83
g3736
sg76
(lp3747
S':'
asbag69
(g90
g71
NtRp3748
(dp3749
g74
(dp3750
sg83
g3736
sg76
(lp3751
g69
(g70
g71
NtRp3752
(dp3753
g74
(dp3754
g82
I3
ssg83
g3748
sg76
(lp3755
S''
asbasbasbag69
(g85
g71
NtRp3756
(dp3757
g74
(dp3758
sg83
g3732
sg76
(lp3759
g69
(g90
g71
NtRp3760
(dp3761
g74
(dp3762
g94
g95
ssg83
g3756
sg76
(lp3763
g327
asbag69
(g90
g71
NtRp3764
(dp3765
g74
(dp3766
g101
g102
ssg83
g3756
sg76
(lp3767
S':'
asbag69
(g90
g71
NtRp3768
(dp3769
g74
(dp3770
sg83
g3756
sg76
(lp3771
g69
(g70
g71
NtRp3772
(dp3773
g74
(dp3774
g82
I3
ssg83
g3768
sg76
(lp3775
S''
asbasbasbag69
(g85
g71
NtRp3776
(dp3777
g74
(dp3778
sg83
g3732
sg76
(lp3779
g69
(g90
g71
NtRp3780
(dp3781
g74
(dp3782
g94
g95
ssg83
g3776
sg76
(lp3783
g348
asbag69
(g90
g71
NtRp3784
(dp3785
g74
(dp3786
g101
g102
ssg83
g3776
sg76
(lp3787
S':'
asbag69
(g90
g71
NtRp3788
(dp3789
g74
(dp3790
sg83
g3776
sg76
(lp3791
g69
(g70
g71
NtRp3792
(dp3793
g74
(dp3794
g82
I3
ssg83
g3788
sg76
(lp3795
S''
asbasbasbag69
(g85
g71
NtRp3796
(dp3797
g74
(dp3798
sg83
g3732
sg76
(lp3799
g69
(g90
g71
NtRp3800
(dp3801
g74
(dp3802
g94
g95
ssg83
g3796
sg76
(lp3803
g369
asbag69
(g90
g71
NtRp3804
(dp3805
g74
(dp3806
g101
g102
ssg83
g3796
sg76
(lp3807
S':'
asbag69
(g90
g71
NtRp3808
(dp3809
g74
(dp3810
sg83
g3796
sg76
(lp3811
g69
(g70
g71
NtRp3812
(dp3813
g74
(dp3814
g82
I3
ssg83
g3808
sg76
(lp3815
S''
asbasbasbag69
(g85
g71
NtRp3816
(dp3817
g74
(dp3818
sg83
g3732
sg76
(lp3819
g69
(g90
g71
NtRp3820
(dp3821
g74
(dp3822
g94
g95
ssg83
g3816
sg76
(lp3823
g390
asbag69
(g90
g71
NtRp3824
(dp3825
g74
(dp3826
g101
g102
ssg83
g3816
sg76
(lp3827
S':'
asbag69
(g90
g71
NtRp3828
(dp3829
g74
(dp3830
sg83
g3816
sg76
(lp3831
g69
(g70
g71
NtRp3832
(dp3833
g74
(dp3834
g82
I3
ssg83
g3828
sg76
(lp3835
S''
asbasbasbag69
(g85
g71
NtRp3836
(dp3837
g74
(dp3838
sg83
g3732
sg76
(lp3839
g69
(g90
g71
NtRp3840
(dp3841
g74
(dp3842
g94
g95
ssg83
g3836
sg76
(lp3843
g411
asbag69
(g90
g71
NtRp3844
(dp3845
g74
(dp3846
g101
g102
ssg83
g3836
sg76
(lp3847
S':'
asbag69
(g90
g71
NtRp3848
(dp3849
g74
(dp3850
sg83
g3836
sg76
(lp3851
g69
(g70
g71
NtRp3852
(dp3853
g74
(dp3854
g82
I3
ssg83
g3848
sg76
(lp3855
S'/'
asbasbasbag69
(g85
g71
NtRp3856
(dp3857
g74
(dp3858
sg83
g3732
sg76
(lp3859
g69
(g90
g71
NtRp3860
(dp3861
g74
(dp3862
g94
g95
ssg83
g3856
sg76
(lp3863
g432
asbag69
(g90
g71
NtRp3864
(dp3865
g74
(dp3866
g101
g102
ssg83
g3856
sg76
(lp3867
S':'
asbag69
(g90
g71
NtRp3868
(dp3869
g74
(dp3870
sg83
g3856
sg76
(lp3871
g69
(g70
g71
NtRp3872
(dp3873
g74
(dp3874
g82
I3
ssg83
g3868
sg76
(lp3875
S''
asbasbasbag69
(g85
g71
NtRp3876
(dp3877
g74
(dp3878
sg83
g3732
sg76
(lp3879
g69
(g90
g71
NtRp3880
(dp3881
g74
(dp3882
g94
g95
ssg83
g3876
sg76
(lp3883
g453
asbag69
(g90
g71
NtRp3884
(dp3885
g74
(dp3886
g101
g102
ssg83
g3876
sg76
(lp3887
S':'
asbag69
(g90
g71
NtRp3888
(dp3889
g74
(dp3890
sg83
g3876
sg76
(lp3891
g69
(g70
g71
NtRp3892
(dp3893
g74
(dp3894
g82
I3
ssg83
g3888
sg76
(lp3895
S''
asbasbasbasbasbasbasbasbasbasbasbag69
(g85
g71
NtRp3896
(dp3897
g74
(dp3898
sg83
g3662
sg76
(lp3899
g69
(g90
g71
NtRp3900
(dp3901
g74
(dp3902
g94
g95
ssg83
g3896
sg76
(lp3903
S'delimiters'
p3904
asbag69
(g90
g71
NtRp3905
(dp3906
g74
(dp3907
g101
g102
ssg83
g3896
sg76
(lp3908
S':'
asbag69
(g90
g71
NtRp3909
(dp3910
g74
(dp3911
sg83
g3896
sg76
(lp3912
g69
(g70
g71
NtRp3913
(dp3914
g74
(dp3915
g82
I5
ssg83
g3909
sg76
(lp3916
g69
(g78
g71
NtRp3917
(dp3918
g74
(dp3919
g82
I4
ssg83
Nsg76
(lp3920
g69
(g85
g71
NtRp3921
(dp3922
g74
(dp3923
sg83
g3917
sg76
(lp3924
g69
(g90
g71
NtRp3925
(dp3926
g74
(dp3927
sg83
g3921
sg76
(lp3928
g69
(g70
g71
NtRp3929
(dp3930
g74
(dp3931
g82
I4
ssg83
g3925
sg76
(lp3932
S'{{'
p3933
asbasbasbag69
(g85
g71
NtRp3934
(dp3935
g74
(dp3936
sg83
g3917
sg76
(lp3937
g69
(g90
g71
NtRp3938
(dp3939
g74
(dp3940
sg83
g3934
sg76
(lp3941
g69
(g70
g71
NtRp3942
(dp3943
g74
(dp3944
g82
I4
ssg83
g3938
sg76
(lp3945
S'}}'
p3946
asbasbasbasbasbasbasbag69
(g85
g71
NtRp3947
(dp3948
g74
(dp3949
sg83
g3662
sg76
(lp3950
g69
(g90
g71
NtRp3951
(dp3952
g74
(dp3953
g94
g95
ssg83
g3947
sg76
(lp3954
S'files'
p3955
asbag69
(g90
g71
NtRp3956
(dp3957
g74
(dp3958
g101
g102
ssg83
g3947
sg76
(lp3959
S':'
asbag69
(g90
g71
NtRp3960
(dp3961
g74
(dp3962
sg83
g3947
sg76
(lp3963
g69
(g70
g71
NtRp3964
(dp3965
g74
(dp3966
g82
I5
ssg83
g3960
sg76
(lp3967
g69
(g78
g71
NtRp3968
(dp3969
g74
(dp3970
g82
I4
ssg83
Nsg76
(lp3971
sbasbasbasbag69
(g85
g71
NtRp3972
(dp3973
g74
(dp3974
sg83
g3662
sg76
(lp3975
g69
(g90
g71
NtRp3976
(dp3977
g74
(dp3978
g94
g95
ssg83
g3972
sg76
(lp3979
S'flash'
p3980
asbag69
(g90
g71
NtRp3981
(dp3982
g74
(dp3983
g101
g102
ssg83
g3972
sg76
(lp3984
S':'
asbag69
(g90
g71
NtRp3985
(dp3986
g74
(dp3987
sg83
g3972
sg76
(lp3988
g69
(g70
g71
NtRp3989
(dp3990
g74
(dp3991
g82
I5
ssg83
g3985
sg76
(lp3992
S''
asbasbasbag69
(g85
g71
NtRp3993
(dp3994
g74
(dp3995
sg83
g3662
sg76
(lp3996
g69
(g90
g71
NtRp3997
(dp3998
g74
(dp3999
g94
g95
ssg83
g3993
sg76
(lp4000
S'generic_patterns'
p4001
asbag69
(g90
g71
NtRp4002
(dp4003
g74
(dp4004
g101
g102
ssg83
g3993
sg76
(lp4005
S':'
asbag69
(g90
g71
NtRp4006
(dp4007
g74
(dp4008
sg83
g3993
sg76
(lp4009
g69
(g70
g71
NtRp4010
(dp4011
g74
(dp4012
g82
I5
ssg83
g4006
sg76
(lp4013
g69
(g78
g71
NtRp4014
(dp4015
g74
(dp4016
g82
I4
ssg83
Nsg76
(lp4017
g69
(g85
g71
NtRp4018
(dp4019
g74
(dp4020
sg83
g4014
sg76
(lp4021
g69
(g90
g71
NtRp4022
(dp4023
g74
(dp4024
sg83
g4018
sg76
(lp4025
g69
(g70
g71
NtRp4026
(dp4027
g74
(dp4028
g82
I4
ssg83
g4022
sg76
(lp4029
S'*'
asbasbasbasbasbasbasbag69
(g85
g71
NtRp4030
(dp4031
g74
(dp4032
sg83
g3662
sg76
(lp4033
g69
(g90
g71
NtRp4034
(dp4035
g74
(dp4036
g94
g95
ssg83
g4030
sg76
(lp4037
S'google_analytics_id'
p4038
asbag69
(g90
g71
NtRp4039
(dp4040
g74
(dp4041
g101
g102
ssg83
g4030
sg76
(lp4042
S':'
asbag69
(g90
g71
NtRp4043
(dp4044
g74
(dp4045
sg83
g4030
sg76
(lp4046
g69
(g70
g71
NtRp4047
(dp4048
g74
(dp4049
g82
I5
ssg83
g4043
sg76
(lp4050
S'None'
p4051
asbasbasbag69
(g85
g71
NtRp4052
(dp4053
g74
(dp4054
sg83
g3662
sg76
(lp4055
g69
(g90
g71
NtRp4056
(dp4057
g74
(dp4058
g94
g95
ssg83
g4052
sg76
(lp4059
S'headers'
p4060
asbag69
(g90
g71
NtRp4061
(dp4062
g74
(dp4063
g101
g102
ssg83
g4052
sg76
(lp4064
S':'
asbag69
(g90
g71
NtRp4065
(dp4066
g74
(dp4067
sg83
g4052
sg76
(lp4068
g69
(g70
g71
NtRp4069
(dp4070
g74
(dp4071
g82
I5
ssg83
g4065
sg76
(lp4072
g69
(g78
g71
NtRp4073
(dp4074
g74
(dp4075
g82
I4
ssg83
Nsg76
(lp4076
g69
(g85
g71
NtRp4077
(dp4078
g74
(dp4079
sg83
g4073
sg76
(lp4080
g69
(g90
g71
NtRp4081
(dp4082
g74
(dp4083
g94
g95
ssg83
g4077
sg76
(lp4084
S'X-Powered-By'
p4085
asbag69
(g90
g71
NtRp4086
(dp4087
g74
(dp4088
g101
g102
ssg83
g4077
sg76
(lp4089
S':'
asbag69
(g90
g71
NtRp4090
(dp4091
g74
(dp4092
sg83
g4077
sg76
(lp4093
g69
(g70
g71
NtRp4094
(dp4095
g74
(dp4096
g82
I4
ssg83
g4090
sg76
(lp4097
S'web2py'
p4098
asbasbasbasbasbasbasbag69
(g85
g71
NtRp4099
(dp4100
g74
(dp4101
sg83
g3662
sg76
(lp4102
g69
(g90
g71
NtRp4103
(dp4104
g74
(dp4105
g94
g95
ssg83
g4099
sg76
(lp4106
S'logo'
p4107
asbag69
(g90
g71
NtRp4108
(dp4109
g74
(dp4110
g101
g102
ssg83
g4099
sg76
(lp4111
S':'
asbag69
(g90
g71
NtRp4112
(dp4113
g74
(dp4114
sg83
g4099
sg76
(lp4115
g69
(g70
g71
NtRp4116
(dp4117
g74
(dp4118
g82
I5
ssg83
g4112
sg76
(lp4119
g69
(cgluon.html
A
p4120
g71
NtRp4121
(dp4122
g74
(dp4123
S'_class'
p4124
S'brand'
p4125
sS'_href'
p4126
S'http://www.web2py.com/'
p4127
ssg83
Nsg76
(lp4128
g69
(cgluon.html
B
p4129
g71
NtRp4130
(dp4131
g74
(dp4132
sg83
g4121
sg76
(lp4133
S'web'
p4134
ag69
(cgluon.html
SPAN
p4135
g71
NtRp4136
(dp4137
g74
(dp4138
sg83
g4130
sg76
(lp4139
I2
asbaS'py'
p4140
asbacgluon.html
XML_unpickle
p4141
(S's\r\x00\x00\x00&trade;&nbsp;'
tRp4142
asbasbasbasbag69
(g85
g71
NtRp4143
(dp4144
g74
(dp4145
sg83
g3662
sg76
(lp4146
g69
(g90
g71
NtRp4147
(dp4148
g74
(dp4149
g94
g95
ssg83
g4143
sg76
(lp4150
S'menu'
p4151
asbag69
(g90
g71
NtRp4152
(dp4153
g74
(dp4154
g101
g102
ssg83
g4143
sg76
(lp4155
S':'
asbag69
(g90
g71
NtRp4156
(dp4157
g74
(dp4158
sg83
g4143
sg76
(lp4159
g69
(g70
g71
NtRp4160
(dp4161
g74
(dp4162
g82
I5
ssg83
g4156
sg76
(lp4163
g69
(g78
g71
NtRp4164
(dp4165
g74
(dp4166
g82
I4
ssg83
Nsg76
(lp4167
g69
(g85
g71
NtRp4168
(dp4169
g74
(dp4170
sg83
g4164
sg76
(lp4171
g69
(g90
g71
NtRp4172
(dp4173
g74
(dp4174
sg83
g4168
sg76
(lp4175
g69
(g70
g71
NtRp4176
(dp4177
g74
(dp4178
g82
I4
ssg83
g4172
sg76
(lp4179
g69
(g78
g71
NtRp4180
(dp4181
g74
(dp4182
g82
I3
ssg83
Nsg76
(lp4183
g69
(g85
g71
NtRp4184
(dp4185
g74
(dp4186
sg83
g4180
sg76
(lp4187
g69
(g90
g71
NtRp4188
(dp4189
g74
(dp4190
sg83
g4184
sg76
(lp4191
g69
(g70
g71
NtRp4192
(dp4193
g74
(dp4194
g82
I3
ssg83
g4188
sg76
(lp4195
cgluon.languages
lazyT_unpickle
p4196
(S's\x04\x00\x00\x00Home'
tRp4197
asbasbasbag69
(g85
g71
NtRp4198
(dp4199
g74
(dp4200
sg83
g4180
sg76
(lp4201
g69
(g90
g71
NtRp4202
(dp4203
g74
(dp4204
sg83
g4198
sg76
(lp4205
g69
(g70
g71
NtRp4206
(dp4207
g74
(dp4208
g82
I3
ssg83
g4202
sg76
(lp4209
g112
asbasbasbag69
(g85
g71
NtRp4210
(dp4211
g74
(dp4212
sg83
g4180
sg76
(lp4213
g69
(g90
g71
NtRp4214
(dp4215
g74
(dp4216
sg83
g4210
sg76
(lp4217
g69
(g70
g71
NtRp4218
(dp4219
g74
(dp4220
g82
I3
ssg83
g4214
sg76
(lp4221
S'/OnlineExamination/default/index'
p4222
asbasbasbag69
(g85
g71
NtRp4223
(dp4224
g74
(dp4225
sg83
g4180
sg76
(lp4226
g69
(g90
g71
NtRp4227
(dp4228
g74
(dp4229
sg83
g4223
sg76
(lp4230
g69
(g70
g71
NtRp4231
(dp4232
g74
(dp4233
g82
I3
ssg83
g4227
sg76
(lp4234
g69
(g78
g71
NtRp4235
(dp4236
g74
(dp4237
g82
I2
ssg83
Nsg76
(lp4238
sbasbasbasbasbasbasbasbag69
(g85
g71
NtRp4239
(dp4240
g74
(dp4241
sg83
g4164
sg76
(lp4242
g69
(g90
g71
NtRp4243
(dp4244
g74
(dp4245
sg83
g4239
sg76
(lp4246
g69
(g70
g71
NtRp4247
(dp4248
g74
(dp4249
g82
I4
ssg83
g4243
sg76
(lp4250
g69
(g78
g71
NtRp4251
(dp4252
g74
(dp4253
g82
I3
ssg83
Nsg76
(lp4254
g69
(g85
g71
NtRp4255
(dp4256
g74
(dp4257
sg83
g4251
sg76
(lp4258
g69
(g90
g71
NtRp4259
(dp4260
g74
(dp4261
sg83
g4255
sg76
(lp4262
g69
(g70
g71
NtRp4263
(dp4264
g74
(dp4265
g82
I3
ssg83
g4259
sg76
(lp4266
g69
(g4135
g71
NtRp4267
(dp4268
g74
(dp4269
g4124
S'highlighted'
p4270
ssg83
Nsg76
(lp4271
g4098
asbasbasbasbag69
(g85
g71
NtRp4272
(dp4273
g74
(dp4274
sg83
g4251
sg76
(lp4275
g69
(g90
g71
NtRp4276
(dp4277
g74
(dp4278
sg83
g4272
sg76
(lp4279
g69
(g70
g71
NtRp4280
(dp4281
g74
(dp4282
g82
I3
ssg83
g4276
sg76
(lp4283
g112
asbasbasbag69
(g85
g71
NtRp4284
(dp4285
g74
(dp4286
sg83
g4251
sg76
(lp4287
g69
(g90
g71
NtRp4288
(dp4289
g74
(dp4290
sg83
g4284
sg76
(lp4291
g69
(g70
g71
NtRp4292
(dp4293
g74
(dp4294
g82
I3
ssg83
g4288
sg76
(lp4295
S'http://web2py.com'
p4296
asbasbasbag69
(g85
g71
NtRp4297
(dp4298
g74
(dp4299
sg83
g4251
sg76
(lp4300
g69
(g90
g71
NtRp4301
(dp4302
g74
(dp4303
sg83
g4297
sg76
(lp4304
g69
(g70
g71
NtRp4305
(dp4306
g74
(dp4307
g82
I3
ssg83
g4301
sg76
(lp4308
g69
(g78
g71
NtRp4309
(dp4310
g74
(dp4311
g82
I2
ssg83
Nsg76
(lp4312
g69
(g85
g71
NtRp4313
(dp4314
g74
(dp4315
sg83
g4309
sg76
(lp4316
g69
(g90
g71
NtRp4317
(dp4318
g74
(dp4319
sg83
g4313
sg76
(lp4320
g69
(g70
g71
NtRp4321
(dp4322
g74
(dp4323
g82
I2
ssg83
g4317
sg76
(lp4324
g69
(g78
g71
NtRp4325
(dp4326
g74
(dp4327
g82
I1
ssg83
Nsg76
(lp4328
g69
(g85
g71
NtRp4329
(dp4330
g74
(dp4331
sg83
g4325
sg76
(lp4332
g69
(g90
g71
NtRp4333
(dp4334
g74
(dp4335
sg83
g4329
sg76
(lp4336
g69
(g70
g71
NtRp4337
(dp4338
g74
(dp4339
g82
I1
ssg83
g4333
sg76
(lp4340
g4196
(S's\x08\x00\x00\x00My Sites'
tRp4341
asbasbasbag69
(g85
g71
NtRp4342
(dp4343
g74
(dp4344
sg83
g4325
sg76
(lp4345
g69
(g90
g71
NtRp4346
(dp4347
g74
(dp4348
sg83
g4342
sg76
(lp4349
g69
(g70
g71
NtRp4350
(dp4351
g74
(dp4352
g82
I1
ssg83
g4346
sg76
(lp4353
I00
asbasbasbag69
(g85
g71
NtRp4354
(dp4355
g74
(dp4356
sg83
g4325
sg76
(lp4357
g69
(g90
g71
NtRp4358
(dp4359
g74
(dp4360
sg83
g4354
sg76
(lp4361
g69
(g70
g71
NtRp4362
(dp4363
g74
(dp4364
g82
I1
ssg83
g4358
sg76
(lp4365
S'/admin/default/site'
p4366
asbasbasbasbasbasbasbag69
(g85
g71
NtRp4367
(dp4368
g74
(dp4369
sg83
g4309
sg76
(lp4370
g69
(g90
g71
NtRp4371
(dp4372
g74
(dp4373
sg83
g4367
sg76
(lp4374
g69
(g70
g71
NtRp4375
(dp4376
g74
(dp4377
g82
I2
ssg83
g4371
sg76
(lp4378
g69
(g78
g71
NtRp4379
(dp4380
g74
(dp4381
g82
I1
ssg83
Nsg76
(lp4382
g69
(g85
g71
NtRp4383
(dp4384
g74
(dp4385
sg83
g4379
sg76
(lp4386
g69
(g90
g71
NtRp4387
(dp4388
g74
(dp4389
sg83
g4383
sg76
(lp4390
g69
(g70
g71
NtRp4391
(dp4392
g74
(dp4393
g82
I1
ssg83
g4387
sg76
(lp4394
g4196
(S's\x08\x00\x00\x00This App'
tRp4395
asbasbasbag69
(g85
g71
NtRp4396
(dp4397
g74
(dp4398
sg83
g4379
sg76
(lp4399
g69
(g90
g71
NtRp4400
(dp4401
g74
(dp4402
sg83
g4396
sg76
(lp4403
g69
(g70
g71
NtRp4404
(dp4405
g74
(dp4406
g82
I1
ssg83
g4400
sg76
(lp4407
I00
asbasbasbag69
(g85
g71
NtRp4408
(dp4409
g74
(dp4410
sg83
g4379
sg76
(lp4411
g69
(g90
g71
NtRp4412
(dp4413
g74
(dp4414
sg83
g4408
sg76
(lp4415
g69
(g70
g71
NtRp4416
(dp4417
g74
(dp4418
g82
I1
ssg83
g4412
sg76
(lp4419
S'/admin/default/design/OnlineExamination'
p4420
asbasbasbag69
(g85
g71
NtRp4421
(dp4422
g74
(dp4423
sg83
g4379
sg76
(lp4424
g69
(g90
g71
NtRp4425
(dp4426
g74
(dp4427
sg83
g4421
sg76
(lp4428
g69
(g70
g71
NtRp4429
(dp4430
g74
(dp4431
g82
I1
ssg83
g4425
sg76
(lp4432
(lp4433
(g4196
(S's\n\x00\x00\x00Controller'
tRp4434
I00
S'/admin/default/edit/OnlineExamination/controllers/default.py'
tp4435
a(g4196
(S's\x04\x00\x00\x00View'
tRp4436
I00
S'/admin/default/edit/OnlineExamination/views/default/give_exam.html'
tp4437
a(g4196
(S's\x06\x00\x00\x00Layout'
tRp4438
I00
S'/admin/default/edit/OnlineExamination/views/layout.html'
tp4439
a(g4196
(S's\n\x00\x00\x00Stylesheet'
tRp4440
I00
S'/admin/default/edit/OnlineExamination/static/css/web2py.css'
tp4441
a(g4196
(S's\x08\x00\x00\x00DB Model'
tRp4442
I00
S'/admin/default/edit/OnlineExamination/models/db.py'
tp4443
a(g4196
(S's\n\x00\x00\x00Menu Model'
tRp4444
I00
S'/admin/default/edit/OnlineExamination/models/menu.py'
tp4445
a(g4196
(S's\x08\x00\x00\x00Database'
tRp4446
I00
S'/OnlineExamination/appadmin/index'
tp4447
a(g4196
(S's\x06\x00\x00\x00Errors'
tRp4448
I00
S'/admin/default/errors/OnlineExamination'
tp4449
a(g4196
(S's\x05\x00\x00\x00About'
tRp4450
I00
S'/admin/default/about/OnlineExamination'
tp4451
aasbasbasbasbasbasbasbag69
(g85
g71
NtRp4452
(dp4453
g74
(dp4454
sg83
g4309
sg76
(lp4455
g69
(g90
g71
NtRp4456
(dp4457
g74
(dp4458
sg83
g4452
sg76
(lp4459
g69
(g70
g71
NtRp4460
(dp4461
g74
(dp4462
g82
I2
ssg83
g4456
sg76
(lp4463
g69
(g78
g71
NtRp4464
(dp4465
g74
(dp4466
g82
I1
ssg83
Nsg76
(lp4467
g69
(g85
g71
NtRp4468
(dp4469
g74
(dp4470
sg83
g4464
sg76
(lp4471
g69
(g90
g71
NtRp4472
(dp4473
g74
(dp4474
sg83
g4468
sg76
(lp4475
g69
(g70
g71
NtRp4476
(dp4477
g74
(dp4478
g82
I1
ssg83
g4472
sg76
(lp4479
S'web2py.com'
p4480
asbasbasbag69
(g85
g71
NtRp4481
(dp4482
g74
(dp4483
sg83
g4464
sg76
(lp4484
g69
(g90
g71
NtRp4485
(dp4486
g74
(dp4487
sg83
g4481
sg76
(lp4488
g69
(g70
g71
NtRp4489
(dp4490
g74
(dp4491
g82
I1
ssg83
g4485
sg76
(lp4492
I00
asbasbasbag69
(g85
g71
NtRp4493
(dp4494
g74
(dp4495
sg83
g4464
sg76
(lp4496
g69
(g90
g71
NtRp4497
(dp4498
g74
(dp4499
sg83
g4493
sg76
(lp4500
g69
(g70
g71
NtRp4501
(dp4502
g74
(dp4503
g82
I1
ssg83
g4497
sg76
(lp4504
S'http://www.web2py.com'
p4505
asbasbasbag69
(g85
g71
NtRp4506
(dp4507
g74
(dp4508
sg83
g4464
sg76
(lp4509
g69
(g90
g71
NtRp4510
(dp4511
g74
(dp4512
sg83
g4506
sg76
(lp4513
g69
(g70
g71
NtRp4514
(dp4515
g74
(dp4516
g82
I1
ssg83
g4510
sg76
(lp4517
(lp4518
(g4196
(S's\x08\x00\x00\x00Download'
tRp4519
I00
S'http://www.web2py.com/examples/default/download'
p4520
tp4521
a(g4196
(S's\x07\x00\x00\x00Support'
tRp4522
I00
S'http://www.web2py.com/examples/default/support'
p4523
tp4524
a(g4196
(S's\x04\x00\x00\x00Demo'
tRp4525
I00
S'http://web2py.com/demo_admin'
p4526
tp4527
a(g4196
(S's\x0e\x00\x00\x00Quick Examples'
tRp4528
I00
S'http://web2py.com/examples/default/examples'
p4529
tp4530
a(g4196
(S's\x03\x00\x00\x00FAQ'
tRp4531
I00
S'http://web2py.com/AlterEgo'
p4532
tp4533
a(g4196
(S's\x06\x00\x00\x00Videos'
tRp4534
I00
S'http://www.web2py.com/examples/default/videos/'
p4535
tp4536
a(g4196
(S's\x11\x00\x00\x00Free Applications'
tRp4537
I00
S'http://web2py.com/appliances'
p4538
tp4539
a(g4196
(S's\x07\x00\x00\x00Plugins'
tRp4540
I00
S'http://web2py.com/plugins'
p4541
tp4542
a(g4196
(S's\x07\x00\x00\x00Layouts'
tRp4543
I00
S'http://web2py.com/layouts'
p4544
tp4545
a(g4196
(S's\x07\x00\x00\x00Recipes'
tRp4546
I00
S'http://web2pyslices.com/'
p4547
tp4548
a(g4196
(S's\x08\x00\x00\x00Semantic'
tRp4549
I00
S'http://web2py.com/semantic'
p4550
tp4551
aasbasbasbasbasbasbasbag69
(g85
g71
NtRp4552
(dp4553
g74
(dp4554
sg83
g4309
sg76
(lp4555
g69
(g90
g71
NtRp4556
(dp4557
g74
(dp4558
sg83
g4552
sg76
(lp4559
g69
(g70
g71
NtRp4560
(dp4561
g74
(dp4562
g82
I2
ssg83
g4556
sg76
(lp4563
g69
(g78
g71
NtRp4564
(dp4565
g74
(dp4566
g82
I1
ssg83
Nsg76
(lp4567
g69
(g85
g71
NtRp4568
(dp4569
g74
(dp4570
sg83
g4564
sg76
(lp4571
g69
(g90
g71
NtRp4572
(dp4573
g74
(dp4574
sg83
g4568
sg76
(lp4575
g69
(g70
g71
NtRp4576
(dp4577
g74
(dp4578
g82
I1
ssg83
g4572
sg76
(lp4579
g4196
(S's\r\x00\x00\x00Documentation'
tRp4580
asbasbasbag69
(g85
g71
NtRp4581
(dp4582
g74
(dp4583
sg83
g4564
sg76
(lp4584
g69
(g90
g71
NtRp4585
(dp4586
g74
(dp4587
sg83
g4581
sg76
(lp4588
g69
(g70
g71
NtRp4589
(dp4590
g74
(dp4591
g82
I1
ssg83
g4585
sg76
(lp4592
I00
asbasbasbag69
(g85
g71
NtRp4593
(dp4594
g74
(dp4595
sg83
g4564
sg76
(lp4596
g69
(g90
g71
NtRp4597
(dp4598
g74
(dp4599
sg83
g4593
sg76
(lp4600
g69
(g70
g71
NtRp4601
(dp4602
g74
(dp4603
g82
I1
ssg83
g4597
sg76
(lp4604
S'http://www.web2py.com/book'
p4605
asbasbasbag69
(g85
g71
NtRp4606
(dp4607
g74
(dp4608
sg83
g4564
sg76
(lp4609
g69
(g90
g71
NtRp4610
(dp4611
g74
(dp4612
sg83
g4606
sg76
(lp4613
g69
(g70
g71
NtRp4614
(dp4615
g74
(dp4616
g82
I1
ssg83
g4610
sg76
(lp4617
(lp4618
(g4196
(S's\x07\x00\x00\x00Preface'
tRp4619
I00
S'http://www.web2py.com/book/default/chapter/00'
p4620
tp4621
a(g4196
(S's\x0c\x00\x00\x00Introduction'
tRp4622
I00
S'http://www.web2py.com/book/default/chapter/01'
p4623
tp4624
a(g4196
(S's\x06\x00\x00\x00Python'
tRp4625
I00
S'http://www.web2py.com/book/default/chapter/02'
p4626
tp4627
a(g4196
(S's\x08\x00\x00\x00Overview'
tRp4628
I00
S'http://www.web2py.com/book/default/chapter/03'
p4629
tp4630
a(g4196
(S's\x08\x00\x00\x00The Core'
tRp4631
I00
S'http://www.web2py.com/book/default/chapter/04'
p4632
tp4633
a(g4196
(S's\t\x00\x00\x00The Views'
tRp4634
I00
S'http://www.web2py.com/book/default/chapter/05'
p4635
tp4636
a(g4196
(S's\x08\x00\x00\x00Database'
tRp4637
I00
S'http://www.web2py.com/book/default/chapter/06'
p4638
tp4639
a(g4196
(S's\x14\x00\x00\x00Forms and Validators'
tRp4640
I00
S'http://www.web2py.com/book/default/chapter/07'
p4641
tp4642
a(g4196
(S's\r\x00\x00\x00Email and SMS'
tRp4643
I00
S'http://www.web2py.com/book/default/chapter/08'
p4644
tp4645
a(g4196
(S's\x0e\x00\x00\x00Access Control'
tRp4646
I00
S'http://www.web2py.com/book/default/chapter/09'
p4647
tp4648
a(g4196
(S's\x08\x00\x00\x00Services'
tRp4649
I00
S'http://www.web2py.com/book/default/chapter/10'
p4650
tp4651
a(g4196
(S's\x0c\x00\x00\x00Ajax Recipes'
tRp4652
I00
S'http://www.web2py.com/book/default/chapter/11'
p4653
tp4654
a(g4196
(S's\x16\x00\x00\x00Components and Plugins'
tRp4655
I00
S'http://www.web2py.com/book/default/chapter/12'
p4656
tp4657
a(g4196
(S's\x12\x00\x00\x00Deployment Recipes'
tRp4658
I00
S'http://www.web2py.com/book/default/chapter/13'
p4659
tp4660
a(g4196
(S's\r\x00\x00\x00Other Recipes'
tRp4661
I00
S'http://www.web2py.com/book/default/chapter/14'
p4662
tp4663
a(g4196
(S's\r\x00\x00\x00Buy this book'
tRp4664
I00
S'http://stores.lulu.com/web2py'
p4665
tp4666
aasbasbasbasbasbasbasbag69
(g85
g71
NtRp4667
(dp4668
g74
(dp4669
sg83
g4309
sg76
(lp4670
g69
(g90
g71
NtRp4671
(dp4672
g74
(dp4673
sg83
g4667
sg76
(lp4674
g69
(g70
g71
NtRp4675
(dp4676
g74
(dp4677
g82
I2
ssg83
g4671
sg76
(lp4678
g69
(g78
g71
NtRp4679
(dp4680
g74
(dp4681
g82
I1
ssg83
Nsg76
(lp4682
g69
(g85
g71
NtRp4683
(dp4684
g74
(dp4685
sg83
g4679
sg76
(lp4686
g69
(g90
g71
NtRp4687
(dp4688
g74
(dp4689
sg83
g4683
sg76
(lp4690
g69
(g70
g71
NtRp4691
(dp4692
g74
(dp4693
g82
I1
ssg83
g4687
sg76
(lp4694
g4196
(S's\t\x00\x00\x00Community'
tRp4695
asbasbasbag69
(g85
g71
NtRp4696
(dp4697
g74
(dp4698
sg83
g4679
sg76
(lp4699
g69
(g90
g71
NtRp4700
(dp4701
g74
(dp4702
sg83
g4696
sg76
(lp4703
g69
(g70
g71
NtRp4704
(dp4705
g74
(dp4706
g82
I1
ssg83
g4700
sg76
(lp4707
I00
asbasbasbag69
(g85
g71
NtRp4708
(dp4709
g74
(dp4710
sg83
g4679
sg76
(lp4711
g69
(g90
g71
NtRp4712
(dp4713
g74
(dp4714
sg83
g4708
sg76
(lp4715
g69
(g70
g71
NtRp4716
(dp4717
g74
(dp4718
g82
I1
ssg83
g4712
sg76
(lp4719
Nasbasbasbag69
(g85
g71
NtRp4720
(dp4721
g74
(dp4722
sg83
g4679
sg76
(lp4723
g69
(g90
g71
NtRp4724
(dp4725
g74
(dp4726
sg83
g4720
sg76
(lp4727
g69
(g70
g71
NtRp4728
(dp4729
g74
(dp4730
g82
I1
ssg83
g4724
sg76
(lp4731
(lp4732
(g4196
(S's\x06\x00\x00\x00Groups'
tRp4733
I00
S'http://www.web2py.com/examples/default/usergroups'
p4734
tp4735
a(g4196
(S's\x07\x00\x00\x00Twitter'
tRp4736
I00
S'http://twitter.com/web2py'
p4737
tp4738
a(g4196
(S's\t\x00\x00\x00Live Chat'
tRp4739
I00
S'http://webchat.freenode.net/?channels=web2py'
p4740
tp4741
aasbasbasbasbasbasbasbag69
(g85
g71
NtRp4742
(dp4743
g74
(dp4744
sg83
g4309
sg76
(lp4745
g69
(g90
g71
NtRp4746
(dp4747
g74
(dp4748
sg83
g4742
sg76
(lp4749
g69
(g70
g71
NtRp4750
(dp4751
g74
(dp4752
g82
I2
ssg83
g4746
sg76
(lp4753
g69
(g78
g71
NtRp4754
(dp4755
g74
(dp4756
g82
I1
ssg83
Nsg76
(lp4757
g69
(g85
g71
NtRp4758
(dp4759
g74
(dp4760
sg83
g4754
sg76
(lp4761
g69
(g90
g71
NtRp4762
(dp4763
g74
(dp4764
sg83
g4758
sg76
(lp4765
g69
(g70
g71
NtRp4766
(dp4767
g74
(dp4768
g82
I1
ssg83
g4762
sg76
(lp4769
g4196
(S's\x07\x00\x00\x00Plugins'
tRp4770
asbasbasbag69
(g85
g71
NtRp4771
(dp4772
g74
(dp4773
sg83
g4754
sg76
(lp4774
g69
(g90
g71
NtRp4775
(dp4776
g74
(dp4777
sg83
g4771
sg76
(lp4778
g69
(g70
g71
NtRp4779
(dp4780
g74
(dp4781
g82
I1
ssg83
g4775
sg76
(lp4782
I00
asbasbasbag69
(g85
g71
NtRp4783
(dp4784
g74
(dp4785
sg83
g4754
sg76
(lp4786
g69
(g90
g71
NtRp4787
(dp4788
g74
(dp4789
sg83
g4783
sg76
(lp4790
g69
(g70
g71
NtRp4791
(dp4792
g74
(dp4793
g82
I1
ssg83
g4787
sg76
(lp4794
Nasbasbasbag69
(g85
g71
NtRp4795
(dp4796
g74
(dp4797
sg83
g4754
sg76
(lp4798
g69
(g90
g71
NtRp4799
(dp4800
g74
(dp4801
sg83
g4795
sg76
(lp4802
g69
(g70
g71
NtRp4803
(dp4804
g74
(dp4805
g82
I1
ssg83
g4799
sg76
(lp4806
(lp4807
(S'plugin_wiki'
p4808
I00
S'http://web2py.com/examples/default/download'
p4809
tp4810
a(g4196
(S's\r\x00\x00\x00Other Plugins'
tRp4811
I00
g4541
tp4812
a(g4196
(S's\x0e\x00\x00\x00Layout Plugins'
tRp4813
I00
g4544
tp4814
aasbasbasbasbasbasbasbasbasbasbasbasbasbasbasbasbasbasbasbag69
(g85
g71
NtRp4815
(dp4816
g74
(dp4817
sg83
g3662
sg76
(lp4818
g69
(g90
g71
NtRp4819
(dp4820
g74
(dp4821
g94
g95
ssg83
g4815
sg76
(lp4822
S'meta'
p4823
asbag69
(g90
g71
NtRp4824
(dp4825
g74
(dp4826
g101
g102
ssg83
g4815
sg76
(lp4827
S':'
asbag69
(g90
g71
NtRp4828
(dp4829
g74
(dp4830
sg83
g4815
sg76
(lp4831
g69
(g70
g71
NtRp4832
(dp4833
g74
(dp4834
g82
I5
ssg83
g4828
sg76
(lp4835
g69
(g78
g71
NtRp4836
(dp4837
g74
(dp4838
g82
I4
ssg83
Nsg76
(lp4839
g69
(g85
g71
NtRp4840
(dp4841
g74
(dp4842
sg83
g4836
sg76
(lp4843
g69
(g90
g71
NtRp4844
(dp4845
g74
(dp4846
g94
g95
ssg83
g4840
sg76
(lp4847
S'author'
p4848
asbag69
(g90
g71
NtRp4849
(dp4850
g74
(dp4851
g101
g102
ssg83
g4840
sg76
(lp4852
S':'
asbag69
(g90
g71
NtRp4853
(dp4854
g74
(dp4855
sg83
g4840
sg76
(lp4856
g69
(g70
g71
NtRp4857
(dp4858
g74
(dp4859
g82
I4
ssg83
g4853
sg76
(lp4860
S'Your Name <you@example.com>'
p4861
asbasbasbag69
(g85
g71
NtRp4862
(dp4863
g74
(dp4864
sg83
g4836
sg76
(lp4865
g69
(g90
g71
NtRp4866
(dp4867
g74
(dp4868
g94
g95
ssg83
g4862
sg76
(lp4869
S'description'
p4870
asbag69
(g90
g71
NtRp4871
(dp4872
g74
(dp4873
g101
g102
ssg83
g4862
sg76
(lp4874
S':'
asbag69
(g90
g71
NtRp4875
(dp4876
g74
(dp4877
sg83
g4862
sg76
(lp4878
g69
(g70
g71
NtRp4879
(dp4880
g74
(dp4881
g82
I4
ssg83
g4875
sg76
(lp4882
S'a cool new app'
p4883
asbasbasbag69
(g85
g71
NtRp4884
(dp4885
g74
(dp4886
sg83
g4836
sg76
(lp4887
g69
(g90
g71
NtRp4888
(dp4889
g74
(dp4890
g94
g95
ssg83
g4884
sg76
(lp4891
S'generator'
p4892
asbag69
(g90
g71
NtRp4893
(dp4894
g74
(dp4895
g101
g102
ssg83
g4884
sg76
(lp4896
S':'
asbag69
(g90
g71
NtRp4897
(dp4898
g74
(dp4899
sg83
g4884
sg76
(lp4900
g69
(g70
g71
NtRp4901
(dp4902
g74
(dp4903
g82
I4
ssg83
g4897
sg76
(lp4904
S'Web2py Web Framework'
p4905
asbasbasbag69
(g85
g71
NtRp4906
(dp4907
g74
(dp4908
sg83
g4836
sg76
(lp4909
g69
(g90
g71
NtRp4910
(dp4911
g74
(dp4912
g94
g95
ssg83
g4906
sg76
(lp4913
S'keywords'
p4914
asbag69
(g90
g71
NtRp4915
(dp4916
g74
(dp4917
g101
g102
ssg83
g4906
sg76
(lp4918
S':'
asbag69
(g90
g71
NtRp4919
(dp4920
g74
(dp4921
sg83
g4906
sg76
(lp4922
g69
(g70
g71
NtRp4923
(dp4924
g74
(dp4925
g82
I4
ssg83
g4919
sg76
(lp4926
S'web2py, python, framework'
p4927
asbasbasbasbasbasbasbag69
(g85
g71
NtRp4928
(dp4929
g74
(dp4930
sg83
g3662
sg76
(lp4931
g69
(g90
g71
NtRp4932
(dp4933
g74
(dp4934
g94
g95
ssg83
g4928
sg76
(lp4935
S'models_to_run'
p4936
asbag69
(g90
g71
NtRp4937
(dp4938
g74
(dp4939
g101
g102
ssg83
g4928
sg76
(lp4940
S':'
asbag69
(g90
g71
NtRp4941
(dp4942
g74
(dp4943
sg83
g4928
sg76
(lp4944
g69
(g70
g71
NtRp4945
(dp4946
g74
(dp4947
g82
I5
ssg83
g4941
sg76
(lp4948
g69
(g78
g71
NtRp4949
(dp4950
g74
(dp4951
g82
I4
ssg83
Nsg76
(lp4952
g69
(g85
g71
NtRp4953
(dp4954
g74
(dp4955
sg83
g4949
sg76
(lp4956
g69
(g90
g71
NtRp4957
(dp4958
g74
(dp4959
sg83
g4953
sg76
(lp4960
g69
(g70
g71
NtRp4961
(dp4962
g74
(dp4963
g82
I4
ssg83
g4957
sg76
(lp4964
S'^\\w+\\.py$'
p4965
asbasbasbag69
(g85
g71
NtRp4966
(dp4967
g74
(dp4968
sg83
g4949
sg76
(lp4969
g69
(g90
g71
NtRp4970
(dp4971
g74
(dp4972
sg83
g4966
sg76
(lp4973
g69
(g70
g71
NtRp4974
(dp4975
g74
(dp4976
g82
I4
ssg83
g4970
sg76
(lp4977
S'^default/\\w+\\.py$'
p4978
asbasbasbag69
(g85
g71
NtRp4979
(dp4980
g74
(dp4981
sg83
g4949
sg76
(lp4982
g69
(g90
g71
NtRp4983
(dp4984
g74
(dp4985
sg83
g4979
sg76
(lp4986
g69
(g70
g71
NtRp4987
(dp4988
g74
(dp4989
g82
I4
ssg83
g4983
sg76
(lp4990
S'^default/give_exam/\\w+\\.py$'
p4991
asbasbasbasbasbasbasbag69
(g85
g71
NtRp4992
(dp4993
g74
(dp4994
sg83
g3662
sg76
(lp4995
g69
(g90
g71
NtRp4996
(dp4997
g74
(dp4998
g94
g95
ssg83
g4992
sg76
(lp4999
S'postprocessing'
p5000
asbag69
(g90
g71
NtRp5001
(dp5002
g74
(dp5003
g101
g102
ssg83
g4992
sg76
(lp5004
S':'
asbag69
(g90
g71
NtRp5005
(dp5006
g74
(dp5007
sg83
g4992
sg76
(lp5008
g69
(g70
g71
NtRp5009
(dp5010
g74
(dp5011
g82
I5
ssg83
g5005
sg76
(lp5012
g69
(g78
g71
NtRp5013
(dp5014
g74
(dp5015
g82
I4
ssg83
Nsg76
(lp5016
sbasbasbasbag69
(g85
g71
NtRp5017
(dp5018
g74
(dp5019
sg83
g3662
sg76
(lp5020
g69
(g90
g71
NtRp5021
(dp5022
g74
(dp5023
g94
g95
ssg83
g5017
sg76
(lp5024
S'session_cookie_expires'
p5025
asbag69
(g90
g71
NtRp5026
(dp5027
g74
(dp5028
g101
g102
ssg83
g5017
sg76
(lp5029
S':'
asbag69
(g90
g71
NtRp5030
(dp5031
g74
(dp5032
sg83
g5017
sg76
(lp5033
g69
(g70
g71
NtRp5034
(dp5035
g74
(dp5036
g82
I5
ssg83
g5030
sg76
(lp5037
S'None'
p5038
asbasbasbag69
(g85
g71
NtRp5039
(dp5040
g74
(dp5041
sg83
g3662
sg76
(lp5042
g69
(g90
g71
NtRp5043
(dp5044
g74
(dp5045
g94
g95
ssg83
g5039
sg76
(lp5046
S'session_data_name'
p5047
asbag69
(g90
g71
NtRp5048
(dp5049
g74
(dp5050
g101
g102
ssg83
g5039
sg76
(lp5051
S':'
asbag69
(g90
g71
NtRp5052
(dp5053
g74
(dp5054
sg83
g5039
sg76
(lp5055
g69
(g70
g71
NtRp5056
(dp5057
g74
(dp5058
g82
I5
ssg83
g5052
sg76
(lp5059
S'session_data_onlineexamination'
p5060
asbasbasbag69
(g85
g71
NtRp5061
(dp5062
g74
(dp5063
sg83
g3662
sg76
(lp5064
g69
(g90
g71
NtRp5065
(dp5066
g74
(dp5067
g94
g95
ssg83
g5061
sg76
(lp5068
S'session_file'
p5069
asbag69
(g90
g71
NtRp5070
(dp5071
g74
(dp5072
g101
g102
ssg83
g5061
sg76
(lp5073
S':'
asbag69
(g90
g71
NtRp5074
(dp5075
g74
(dp5076
sg83
g5061
sg76
(lp5077
g69
(g70
g71
NtRp5078
(dp5079
g74
(dp5080
g82
I5
ssg83
g5074
sg76
(lp5081
S"<open file '/home/saurabh/web2py/applications/OnlineExamination/sessions/127.0.0.1-d2228566-6160-4d2f-a4b5-d7a6fcc4e876', mode 'rb+' at 0x7f25242b0d20>"
p5082
asbasbasbag69
(g85
g71
NtRp5083
(dp5084
g74
(dp5085
sg83
g3662
sg76
(lp5086
g69
(g90
g71
NtRp5087
(dp5088
g74
(dp5089
g94
g95
ssg83
g5083
sg76
(lp5090
S'session_filename'
p5091
asbag69
(g90
g71
NtRp5092
(dp5093
g74
(dp5094
g101
g102
ssg83
g5083
sg76
(lp5095
S':'
asbag69
(g90
g71
NtRp5096
(dp5097
g74
(dp5098
sg83
g5083
sg76
(lp5099
g69
(g70
g71
NtRp5100
(dp5101
g74
(dp5102
g82
I5
ssg83
g5096
sg76
(lp5103
S'/home/saurabh/web2py/applications/OnlineExamination/sessions/127.0.0.1-d2228566-6160-4d2f-a4b5-d7a6fcc4e876'
p5104
asbasbasbag69
(g85
g71
NtRp5105
(dp5106
g74
(dp5107
sg83
g3662
sg76
(lp5108
g69
(g90
g71
NtRp5109
(dp5110
g74
(dp5111
g94
g95
ssg83
g5105
sg76
(lp5112
S'session_id'
p5113
asbag69
(g90
g71
NtRp5114
(dp5115
g74
(dp5116
g101
g102
ssg83
g5105
sg76
(lp5117
S':'
asbag69
(g90
g71
NtRp5118
(dp5119
g74
(dp5120
sg83
g5105
sg76
(lp5121
g69
(g70
g71
NtRp5122
(dp5123
g74
(dp5124
g82
I5
ssg83
g5118
sg76
(lp5125
g487
asbasbasbag69
(g85
g71
NtRp5126
(dp5127
g74
(dp5128
sg83
g3662
sg76
(lp5129
g69
(g90
g71
NtRp5130
(dp5131
g74
(dp5132
g94
g95
ssg83
g5126
sg76
(lp5133
S'session_id_name'
p5134
asbag69
(g90
g71
NtRp5135
(dp5136
g74
(dp5137
g101
g102
ssg83
g5126
sg76
(lp5138
S':'
asbag69
(g90
g71
NtRp5139
(dp5140
g74
(dp5141
sg83
g5126
sg76
(lp5142
g69
(g70
g71
NtRp5143
(dp5144
g74
(dp5145
g82
I5
ssg83
g5139
sg76
(lp5146
g3719
asbasbasbag69
(g85
g71
NtRp5147
(dp5148
g74
(dp5149
sg83
g3662
sg76
(lp5150
g69
(g90
g71
NtRp5151
(dp5152
g74
(dp5153
g94
g95
ssg83
g5147
sg76
(lp5154
S'session_locked'
p5155
asbag69
(g90
g71
NtRp5156
(dp5157
g74
(dp5158
g101
g102
ssg83
g5147
sg76
(lp5159
S':'
asbag69
(g90
g71
NtRp5160
(dp5161
g74
(dp5162
sg83
g5147
sg76
(lp5163
g69
(g70
g71
NtRp5164
(dp5165
g74
(dp5166
g82
I5
ssg83
g5160
sg76
(lp5167
g1781
asbasbasbag69
(g85
g71
NtRp5168
(dp5169
g74
(dp5170
sg83
g3662
sg76
(lp5171
g69
(g90
g71
NtRp5172
(dp5173
g74
(dp5174
g94
g95
ssg83
g5168
sg76
(lp5175
S'session_new'
p5176
asbag69
(g90
g71
NtRp5177
(dp5178
g74
(dp5179
g101
g102
ssg83
g5168
sg76
(lp5180
S':'
asbag69
(g90
g71
NtRp5181
(dp5182
g74
(dp5183
sg83
g5168
sg76
(lp5184
g69
(g70
g71
NtRp5185
(dp5186
g74
(dp5187
g82
I5
ssg83
g5181
sg76
(lp5188
g112
asbasbasbag69
(g85
g71
NtRp5189
(dp5190
g74
(dp5191
sg83
g3662
sg76
(lp5192
g69
(g90
g71
NtRp5193
(dp5194
g74
(dp5195
g94
g95
ssg83
g5189
sg76
(lp5196
S'session_storage_type'
p5197
asbag69
(g90
g71
NtRp5198
(dp5199
g74
(dp5200
g101
g102
ssg83
g5189
sg76
(lp5201
S':'
asbag69
(g90
g71
NtRp5202
(dp5203
g74
(dp5204
sg83
g5189
sg76
(lp5205
g69
(g70
g71
NtRp5206
(dp5207
g74
(dp5208
g82
I5
ssg83
g5202
sg76
(lp5209
g3211
asbasbasbag69
(g85
g71
NtRp5210
(dp5211
g74
(dp5212
sg83
g3662
sg76
(lp5213
g69
(g90
g71
NtRp5214
(dp5215
g74
(dp5216
g94
g95
ssg83
g5210
sg76
(lp5217
S'status'
p5218
asbag69
(g90
g71
NtRp5219
(dp5220
g74
(dp5221
g101
g102
ssg83
g5210
sg76
(lp5222
S':'
asbag69
(g90
g71
NtRp5223
(dp5224
g74
(dp5225
sg83
g5210
sg76
(lp5226
g69
(g70
g71
NtRp5227
(dp5228
g74
(dp5229
g82
I5
ssg83
g5223
sg76
(lp5230
S'200'
p5231
asbasbasbag69
(g85
g71
NtRp5232
(dp5233
g74
(dp5234
sg83
g3662
sg76
(lp5235
g69
(g90
g71
NtRp5236
(dp5237
g74
(dp5238
g94
g95
ssg83
g5232
sg76
(lp5239
S'subtitle'
p5240
asbag69
(g90
g71
NtRp5241
(dp5242
g74
(dp5243
g101
g102
ssg83
g5232
sg76
(lp5244
S':'
asbag69
(g90
g71
NtRp5245
(dp5246
g74
(dp5247
sg83
g5232
sg76
(lp5248
g69
(g70
g71
NtRp5249
(dp5250
g74
(dp5251
g82
I5
ssg83
g5245
sg76
(lp5252
g4196
(S's\x13\x00\x00\x00Online Exam Portal!'
tRp5253
asbasbasbag69
(g85
g71
NtRp5254
(dp5255
g74
(dp5256
sg83
g3662
sg76
(lp5257
g69
(g90
g71
NtRp5258
(dp5259
g74
(dp5260
g94
g95
ssg83
g5254
sg76
(lp5261
S'title'
p5262
asbag69
(g90
g71
NtRp5263
(dp5264
g74
(dp5265
g101
g102
ssg83
g5254
sg76
(lp5266
S':'
asbag69
(g90
g71
NtRp5267
(dp5268
g74
(dp5269
sg83
g5254
sg76
(lp5270
g69
(g70
g71
NtRp5271
(dp5272
g74
(dp5273
g82
I5
ssg83
g5267
sg76
(lp5274
S'Onlineexamination'
p5275
asbasbasbag69
(g85
g71
NtRp5276
(dp5277
g74
(dp5278
sg83
g3662
sg76
(lp5279
g69
(g90
g71
NtRp5280
(dp5281
g74
(dp5282
g94
g95
ssg83
g5276
sg76
(lp5283
S'view'
p5284
asbag69
(g90
g71
NtRp5285
(dp5286
g74
(dp5287
g101
g102
ssg83
g5276
sg76
(lp5288
S':'
asbag69
(g90
g71
NtRp5289
(dp5290
g74
(dp5291
sg83
g5276
sg76
(lp5292
g69
(g70
g71
NtRp5293
(dp5294
g74
(dp5295
g82
I5
ssg83
g5289
sg76
(lp5296
S'default/give_exam.html'
p5297
asbasbasbasbasbsS'locals'
p5298
(dp5299
g4
S"'/home/saurabh/web2py/applications/OnlineExamination/controllers/default.py'"
p5300
sg6
S"'# -*- coding: utf-8 -*-\\n# this file is released ...orm)\\n\\nresponse._vars=response._caller(give_exam)\\n'"
p5301
sssS'traceback'
p5302
S'Traceback (most recent call last):\n  File "/home/saurabh/web2py/gluon/restricted.py", line 211, in restricted\n    ccode = compile2(code, layer)\n  File "/home/saurabh/web2py/gluon/restricted.py", line 194, in compile2\n    return compile(code.rstrip().replace(\'\\r\\n\', \'\\n\') + \'\\n\', layer, \'exec\')\n  File "/home/saurabh/web2py/applications/OnlineExamination/controllers/default.py", line 111\n    a=auth.user.email\n                    ^\nIndentationError: unindent does not match any outer indentation level\n'
p5303
s.