(dp1
S'output'
p2
S"<type 'exceptions.IndentationError'> unindent does not match any outer indentation level (default.py, line 33)"
p3
sS'layer'
p4
S'/home/saurabh/web2py/applications/OnlineExamination/controllers/default.py'
p5
sS'code'
p6
S'# -*- coding: utf-8 -*-\n# this file is released under public domain and you can use without limitations\n\n#########################################################################\n## This is a samples controller\n## - index is the default action of any application\n## - user is required for authentication and authorization\n## - download is for downloading files uploaded in the db (does streaming)\n## - call exposes all registered services (none by default)\n#########################################################################\n\n\ndef index():\n    """\n    example action using the internationalization operator T and flash\n    rendered by views/default/index.html or views/generic.html\n\n    if you need a simple wiki simple replace the two lines below with:\n    return auth.wiki()\n    """\n    response.flash = T("Welcome To Online Examination")\n    if(auth.user):\n\t print \'count is updated\'\n\t db(auth.user.email==db.student.email).update(coun=1)\n    return dict(message=T(\'Hello World\'))\n\n@auth.requires_login()\n@auth.requires_membership(\'IIIT_FACULTY_DEPARTMENT\')\ndef teacher_index():\n    if(auth.user):\n\t print \'count is updated\'\n\t db(auth.user.email==db.student.email).update(coun=1)\n     return locals()\n\n\n@auth.requires_login()\ndef student_index():\n    if(auth.user):\n\t print \'count is updated\'\n\t db(auth.user.email==db.student.email).update(coun=1)\n     return locals()\n\n@auth.requires_login()\ndef performance():\n     redirect(URL(\'show_paper\'))\n\ndef user():\n    """\n    exposes:\n    http://..../[app]/default/user/login\n    http://..../[app]/default/user/logout\n    http://..../[app]/default/user/register\n    http://..../[app]/default/user/profile\n    http://..../[app]/default/user/retrieve_password\n    http://..../[app]/default/user/change_password\n    use @auth.requires_login()\n        @auth.requires_membership(\'group name\')\n        @auth.requires_permission(\'read\',\'table name\',record_id)\n\n    to decorate functions that need access control\n    """\n    return dict(form=auth())\n\n\ndef download():\n    """\n    allows downloading of uploaded files\n    http://..../[app]/default/download/[filename]\n    """\n    return response.download(request, db)\n\n\ndef call():\n    """\n    exposes services. for example:\n    http://..../[app]/default/call/jsonrpc\n    decorate with @services.jsonrpc the functions to expose\n    supports xml, json, xmlrpc, jsonrpc, amfrpc, rss, csv\n    """\n    return service()\n\n\n@auth.requires_signature()\ndef data():\n    """\n    http://..../[app]/default/data/tables\n    http://..../[app]/default/data/create/[table]\n    http://..../[app]/default/data/read/[table]/[id]\n    http://..../[app]/default/data/update/[table]/[id]\n    http://..../[app]/default/data/delete/[table]/[id]\n    http://..../[app]/default/data/select/[table]\n    http://..../[app]/default/data/search/[table]\n    but URLs must be signed, i.e. linked with\n      A(\'table\',_href=URL(\'data/tables\',user_signature=True))\n    or with the signed load operator\n      LOAD(\'default\',\'data.load\',args=\'tables\',ajax=True,user_signature=True)\n    """\n    return dict(form=crud())\n\n\n\n\n\n#---------------------------------------------------Project Starts---------------------------------------------------------------#\n\n@auth.requires_login()\ndef student_info():\n     a=auth.user.email\n     b=auth.user.first_name\n     c=auth.user.last_name\n     response.flash=\'Logged in as \'+b+\' \'+c\n     form=SQLFORM(db.student)\n     form.vars.email=a\n     if (form.accepts(request,session)):\n\t  response.flash="Personal Information Successfully Added"\n     return dict(form=form)\n\n@auth.requires_login()\n@auth.requires_membership(\'IIIT_FACULTY_DEPARTMENT\')\ndef set_paper():\n     form=SQLFORM(db.questions)\n     form.vars.faculty_id=auth.user.email\n     if form.accepts(request,session):\n\t  response.flash="Question Inserted"\n     return dict(form=form)\n\n\n@auth.requires_login()\ndef exam():\n     p={}\n     CHECK_TEACHER=db((auth.user.id==db.auth_membership.user_id)&(db.auth_membership.group_id==17)).select(db.auth_user.ALL)\n     x=db(db.see.id==8).select(db.see.course)\n     x=x[0][\'course\']\n     k=db(auth.user.email==db.student.email).select(db.student.email)\n     if k:\n\t  t=db((auth.user.email==db.answer.stid) & (x==db.answer.course)).select(db.answer.given)\n\t  print t\n\t  if t:\n\t       if t[0][\'given\']==1:\n\t\t    response.flash=\'You have already given the Examination\'\n\t\t    redirect(\'index\')\n\t  start_time=db(db.times.course==x).select(db.times.start_time)\n          end_time=db(db.times.course==x).select(db.times.end_time)\n          exam_date=db(db.times.course==x).select(db.times.date_of_exam)\n          p=db(auth.user.email==db.student.email).select(db.student.coun)\n\t  print \'p\'\n\t  print p\n          n=p[0][\'coun\']\n\t  print \'it is count\'\n\t  print n\n          que={}\n          que=db((db.questions.course==x)&(db.questions.que_number==n)).select(db.questions.que_number,\n\t       \t\t\t\t            db.questions.question,\n\t\t\t\t\t            db.questions.option_a,\n\t                                            db.questions.option_b,\n\t                                            db.questions.option_c,\n\t                                            db.questions.option_d,\n\t  \t\t\t\t            )\n          if (db((auth.user.id==db.auth_membership.user_id)&(db.auth_membership.group_id==17)).select(db.auth_user.ALL)):\n\t       form=SQLFORM.factory(\n\t\t\t Field(\'ans\',requires=IS_IN_SET([\'A\',\'B\',\'C\',\'D\'],multiple=True),widget=SQLFORM.widgets.checkboxes.widget),\n\t\t\t Field(\'com\',\'text\'))\n\t\t\t      \n\t\t\t \n\t       \n\t  else:\n\t       form=SQLFORM.factory(\n\t\t\t Field(\'ans\',requires=IS_IN_SET([\'A\',\'B\',\'C\',\'D\'],multiple=True),widget=SQLFORM.widgets.checkboxes.widget\n\t\t\t      )\n\t\t\t )\n\t  check=db((auth.user.email==db.answer.stid)&(n==db.answer.que_num)&(db.see.course==db.answer.course)).select(db.answer.ALL)\n\t  if(form.accepts(request,session)):\n\t       response.flash="Answer Submitted"\n\t       if check:\n\t\t    db((auth.user.email==db.answer.stid)&(n==db.answer.que_num)&(x==db.answer.course)).update(op= form.vars.ans,course=x)\n\t       else:\n\t\t    db.answer.insert(que_num=n,stid=auth.user.email,op=form.vars.ans,course=x)\n\t       response.flash=str(form.vars.ans)+"asdasd"\n\t       if CHECK_TEACHER:\n\t\t    if(form.vars.com):\n\t\t\t db.comments.insert(faculty_id=auth.user.email,que=n,course=x,comment_given=form.vars.com)\n\t     \n\t       redirect(\'next\')\n\n     if k:\n\t  if que:\n\t       if CHECK_TEACHER:\n\t\t    com=db((db.comments.que==n)&(db.comments.course==x)).select(db.comments.comment_given)\n\t\t    return dict(que=que,form=form,com=com,start_time=start_time,end_time=end_time,exam_date=exam_date)\n\t       else:\n\t\t    com={}\n\t\t    return dict(que=que,form=form,com=com,start_time=start_time,end_time=end_time,exam_date=exam_date)\n\n\t  else:\n\t       print \'amit has given exam\'\n\t       redirect(URL(\'default\',\'show\'))\n     else:\n\t  redirect(URL(\'default\',\'student_info\'))\n\t  \n\n\n@auth.requires_login()\ndef next():\n     p=db(auth.user.email==db.student.email).select(db.student.coun)\n     x=db(db.see.id==8).select(db.see.course)\n     x=x[0][\'course\']\n     n=p[0][\'coun\']\n     correct=db((db.questions.que_number==n)&(db.questions.course==x)).select(db.questions.ans)\n     given=db((db.answer.stid==auth.user.email)&(db.answer.que_num==n)&(db.answer.course==x)).select(db.answer.op)\n     print given[0][\'op\']\n     if given and given[0][\'op\']!=\'||\':\n\t  print \'aaaaa\'\n\t  if(given!=None and correct[0][\'ans\']==given[0][\'op\']):\n\t       db(db.questions.que_number==n).update(stid=auth.user.email)\n\t       db((db.questions.stid==auth.user.email)&(db.questions.que_number==n)).update(obtained_marks=4)\n\t  elif(correct!=given and given!=None):\n\t       db(db.questions.que_number==n).update(stid=auth.user.email)\n\t       db((db.questions.stid==auth.user.email)&(db.questions.que_number==n)).update(obtained_marks=-1)\n     \n     db(auth.user.email==db.student.email).update(coun=n+1)\n     que=db(db.questions.que_number>0).select(db.questions.que_number)\n     redirect(URL(\'default\',\'exam\'))\n\n\ndef prev():\n     p=db(auth.user.email==db.student.email).select(db.student.coun)\n     n=p[0][\'coun\']\n     if(n-1>0):\n\t  db(auth.user.email==db.student.email).update(coun=n-1)\n     if(n-1>0):\n\t  redirect(URL(\'default\',\'exam\'))\n     else:\n\t  redirect(URL(\'default\',\'exam\'))\ndef courses():\n     return locals()\ndef noq():\n     return locals()\n\ndef list():\n     k=db((db.auth_membership.user_id==db.auth_user.id)&(db.auth_membership.group_id!=17)).select(db.auth_user.first_name,db.auth_user.last_name)\n     return dict(k=k)\n\n\ndef faculty():\n     f=db((db.auth_membership.user_id==db.auth_user.id)&(db.auth_membership.group_id==17)).select(db.auth_user.first_name,db.auth_user.last_name)\n     return dict(f=f)\n\ndef show():\n     x=db(db.see.id==8).select(db.see.course)\n     x=x[0][\'course\']\n     a=auth.user.email\n     k=db((db.questions.stid==a)&(db.questions.course==x)).select(db.questions.obtained_marks)\n     marks=0\n     db((auth.user.email==db.answer.stid)&(x==db.answer.course)).update(given=1)\n     for i in range(len(k)):\n\t  marks=marks+k[i][\'obtained_marks\']\n     db(auth.user.email==db.student.email).update(final_marks=marks)\n     return dict(marks=marks)\n     if (db((auth.user.id==db.auth_membership.user_id)&(db.auth_membership.group_id==17)).select(db.auth_user.ALL)):\n\t  print\'wallah\'\n\ndef give_exam():\n     return locals()\n\ndef which_one():\n     p=request.post_vars[\'id\']\n     db(db.see.id==8).update(course=p)\n     redirect(URL(\'exam\'))\n\n@auth.requires_login()\ndef show_paper():\n     if (db((auth.user.id==db.auth_membership.user_id)&(db.auth_membership.group_id==17)).select(db.auth_user.ALL)):\n\t  query=db.questions.faculty_id==auth.user.email\n\t  grid=SQLFORM.grid(query)\n\t  return locals()\n     else:\n\t  redirect(URL(\'F1\'))\n\t  return locals()\n\n\n@auth.requires_login()\ndef F1():\n     return locals()\n\n\n@auth.requires_login()\ndef F2():\n     x=request.post_vars[\'id\']\n     t=db((auth.user.email==db.answer.stid) & (x==db.answer.course)).select(db.answer.given)\n     if t:\n\t  ans=db((auth.user.email==db.answer.stid) & (db.answer.course==x)).select(db.answer.que_num,db.answer.op)\n\t  ques=db(x==db.questions.course).select(db.questions.ALL)\n\t  return dict(ans=ans,ques=ques)\n     else:\n\t  session.flash="You have not given exam of this course"\n\t  redirect(URL(\'student_index\'))\n     return locals()\n\n\n@auth.requires_login()\n@auth.requires_membership(\'IIIT_FACULTY_DEPARTMENT\')\ndef set_time():\n     form=SQLFORM(db.times)\n     if (form.accepts(request,session)):\n\t  response.flash="Time Setted"\n     return dict(form=form)\n\nresponse._vars=response._caller(user)\n'
p7
sS'snapshot'
p8
(dp9
S'exception'
p10
(dp11
S'__getslice__'
p12
S"<method-wrapper '__getslice__' of exceptions.IndentationError object>"
p13
sS'text'
p14
S"'     return locals()\\n'"
p15
sS'__str__'
p16
S"<method-wrapper '__str__' of exceptions.IndentationError object>"
p17
sS'__reduce__'
p18
S'<built-in method __reduce__ of exceptions.IndentationError object>'
p19
sS'__dict__'
p20
S'{}'
p21
sS'__sizeof__'
p22
S'<built-in method __sizeof__ of exceptions.IndentationError object>'
p23
sS'__init__'
p24
S"<method-wrapper '__init__' of exceptions.IndentationError object>"
p25
sS'__setattr__'
p26
S"<method-wrapper '__setattr__' of exceptions.IndentationError object>"
p27
sS'__reduce_ex__'
p28
S'<built-in method __reduce_ex__ of exceptions.IndentationError object>'
p29
sS'__new__'
p30
S'<built-in method __new__ of type object>'
p31
sS'__format__'
p32
S'<built-in method __format__ of exceptions.IndentationError object>'
p33
sS'__class__'
p34
S"<type 'exceptions.IndentationError'>"
p35
sS'filename'
p36
S"'/home/saurabh/web2py/applications/OnlineExamination/controllers/default.py'"
p37
sS'lineno'
p38
S'33'
p39
sS'msg'
p40
S"'unindent does not match any outer indentation level'"
p41
sS'__doc__'
p42
S"'Improper indentation.'"
p43
sS'__getitem__'
p44
S"<method-wrapper '__getitem__' of exceptions.IndentationError object>"
p45
sS'__setstate__'
p46
S'<built-in method __setstate__ of exceptions.IndentationError object>'
p47
sS'__getattribute__'
p48
S"<method-wrapper '__getattribute__' of exceptions.IndentationError object>"
p49
sS'print_file_and_line'
p50
S'None'
p51
sS'args'
p52
S"('unindent does not match any outer indentation level', ('/home/saurabh/web2py/applications/OnlineExamination/controllers/default.py', 33, 21, '     return locals()\\n'))"
p53
sS'__subclasshook__'
p54
S'<built-in method __subclasshook__ of type object>'
p55
sS'offset'
p56
S'21'
p57
sS'__unicode__'
p58
S'<built-in method __unicode__ of exceptions.IndentationError object>'
p59
sS'__delattr__'
p60
S"<method-wrapper '__delattr__' of exceptions.IndentationError object>"
p61
sS'__repr__'
p62
S"<method-wrapper '__repr__' of exceptions.IndentationError object>"
p63
sS'__hash__'
p64
S"<method-wrapper '__hash__' of exceptions.IndentationError object>"
p65
ssS'evalue'
p66
S'unindent does not match any outer indentation level (default.py, line 33)'
p67
sS'request'
p68
ccopy_reg
_reconstructor
p69
(cgluon.html
BEAUTIFY
p70
c__builtin__
object
p71
NtRp72
(dp73
S'attributes'
p74
(dp75
sS'components'
p76
(lp77
g69
(cgluon.html
TABLE
p78
g71
NtRp79
(dp80
g74
(dp81
S'level'
p82
I5
ssS'parent'
p83
Nsg76
(lp84
g69
(cgluon.html
TR
p85
g71
NtRp86
(dp87
g74
(dp88
sg83
g79
sg76
(lp89
g69
(cgluon.html
TD
p90
g71
NtRp91
(dp92
g74
(dp93
S'_style'
p94
S'font-weight:bold;vertical-align:top'
p95
ssg83
g86
sg76
(lp96
S'ajax'
p97
asbag69
(g90
g71
NtRp98
(dp99
g74
(dp100
S'_valign'
p101
S'top'
p102
ssg83
g86
sg76
(lp103
S':'
asbag69
(g90
g71
NtRp104
(dp105
g74
(dp106
sg83
g86
sg76
(lp107
g69
(g70
g71
NtRp108
(dp109
g74
(dp110
g82
I5
ssg83
g104
sg76
(lp111
S'False'
p112
asbasbasbag69
(g85
g71
NtRp113
(dp114
g74
(dp115
sg83
g79
sg76
(lp116
g69
(g90
g71
NtRp117
(dp118
g74
(dp119
g94
g95
ssg83
g113
sg76
(lp120
S'application'
p121
asbag69
(g90
g71
NtRp122
(dp123
g74
(dp124
g101
g102
ssg83
g113
sg76
(lp125
S':'
asbag69
(g90
g71
NtRp126
(dp127
g74
(dp128
sg83
g113
sg76
(lp129
g69
(g70
g71
NtRp130
(dp131
g74
(dp132
g82
I5
ssg83
g126
sg76
(lp133
S'OnlineExamination'
p134
asbasbasbag69
(g85
g71
NtRp135
(dp136
g74
(dp137
sg83
g79
sg76
(lp138
g69
(g90
g71
NtRp139
(dp140
g74
(dp141
g94
g95
ssg83
g135
sg76
(lp142
g52
asbag69
(g90
g71
NtRp143
(dp144
g74
(dp145
g101
g102
ssg83
g135
sg76
(lp146
S':'
asbag69
(g90
g71
NtRp147
(dp148
g74
(dp149
sg83
g135
sg76
(lp150
g69
(g70
g71
NtRp151
(dp152
g74
(dp153
g82
I5
ssg83
g147
sg76
(lp154
g69
(g78
g71
NtRp155
(dp156
g74
(dp157
g82
I4
ssg83
Nsg76
(lp158
g69
(g85
g71
NtRp159
(dp160
g74
(dp161
sg83
g155
sg76
(lp162
g69
(g90
g71
NtRp163
(dp164
g74
(dp165
sg83
g159
sg76
(lp166
g69
(g70
g71
NtRp167
(dp168
g74
(dp169
g82
I4
ssg83
g163
sg76
(lp170
S'logout'
p171
asbasbasbasbasbasbasbag69
(g85
g71
NtRp172
(dp173
g74
(dp174
sg83
g79
sg76
(lp175
g69
(g90
g71
NtRp176
(dp177
g74
(dp178
g94
g95
ssg83
g172
sg76
(lp179
S'body'
p180
asbag69
(g90
g71
NtRp181
(dp182
g74
(dp183
g101
g102
ssg83
g172
sg76
(lp184
S':'
asbag69
(g90
g71
NtRp185
(dp186
g74
(dp187
sg83
g172
sg76
(lp188
g69
(g70
g71
NtRp189
(dp190
g74
(dp191
g82
I5
ssg83
g185
sg76
(lp192
S'<cStringIO.StringO object at 0x7f25043a2ca8>'
p193
asbasbasbag69
(g85
g71
NtRp194
(dp195
g74
(dp196
sg83
g79
sg76
(lp197
g69
(g90
g71
NtRp198
(dp199
g74
(dp200
g94
g95
ssg83
g194
sg76
(lp201
S'cid'
p202
asbag69
(g90
g71
NtRp203
(dp204
g74
(dp205
g101
g102
ssg83
g194
sg76
(lp206
S':'
asbag69
(g90
g71
NtRp207
(dp208
g74
(dp209
sg83
g194
sg76
(lp210
g69
(g70
g71
NtRp211
(dp212
g74
(dp213
g82
I5
ssg83
g207
sg76
(lp214
S'None'
p215
asbasbasbag69
(g85
g71
NtRp216
(dp217
g74
(dp218
sg83
g79
sg76
(lp219
g69
(g90
g71
NtRp220
(dp221
g74
(dp222
g94
g95
ssg83
g216
sg76
(lp223
S'client'
p224
asbag69
(g90
g71
NtRp225
(dp226
g74
(dp227
g101
g102
ssg83
g216
sg76
(lp228
S':'
asbag69
(g90
g71
NtRp229
(dp230
g74
(dp231
sg83
g216
sg76
(lp232
g69
(g70
g71
NtRp233
(dp234
g74
(dp235
g82
I5
ssg83
g229
sg76
(lp236
S'127.0.0.1'
p237
asbasbasbag69
(g85
g71
NtRp238
(dp239
g74
(dp240
sg83
g79
sg76
(lp241
g69
(g90
g71
NtRp242
(dp243
g74
(dp244
g94
g95
ssg83
g238
sg76
(lp245
S'controller'
p246
asbag69
(g90
g71
NtRp247
(dp248
g74
(dp249
g101
g102
ssg83
g238
sg76
(lp250
S':'
asbag69
(g90
g71
NtRp251
(dp252
g74
(dp253
sg83
g238
sg76
(lp254
g69
(g70
g71
NtRp255
(dp256
g74
(dp257
g82
I5
ssg83
g251
sg76
(lp258
S'default'
p259
asbasbasbag69
(g85
g71
NtRp260
(dp261
g74
(dp262
sg83
g79
sg76
(lp263
g69
(g90
g71
NtRp264
(dp265
g74
(dp266
g94
g95
ssg83
g260
sg76
(lp267
S'cookies'
p268
asbag69
(g90
g71
NtRp269
(dp270
g74
(dp271
g101
g102
ssg83
g260
sg76
(lp272
S':'
asbag69
(g90
g71
NtRp273
(dp274
g74
(dp275
sg83
g260
sg76
(lp276
g69
(g70
g71
NtRp277
(dp278
g74
(dp279
g82
I5
ssg83
g273
sg76
(lp280
g69
(g78
g71
NtRp281
(dp282
g74
(dp283
g82
I4
ssg83
Nsg76
(lp284
g69
(g85
g71
NtRp285
(dp286
g74
(dp287
sg83
g281
sg76
(lp288
g69
(g90
g71
NtRp289
(dp290
g74
(dp291
g94
g95
ssg83
g285
sg76
(lp292
S'session_id_admin'
p293
asbag69
(g90
g71
NtRp294
(dp295
g74
(dp296
g101
g102
ssg83
g285
sg76
(lp297
S':'
asbag69
(g90
g71
NtRp298
(dp299
g74
(dp300
sg83
g285
sg76
(lp301
g69
(g70
g71
NtRp302
(dp303
g74
(dp304
g82
I4
ssg83
g298
sg76
(lp305
S'127.0.0.1-64b5e907-3927-4fd1-97ee-d50706e5ee41'
p306
ag69
(g78
g71
NtRp307
(dp308
g74
(dp309
g82
I3
ssg83
Nsg76
(lp310
g69
(g85
g71
NtRp311
(dp312
g74
(dp313
sg83
g307
sg76
(lp314
g69
(g90
g71
NtRp315
(dp316
g74
(dp317
g94
g95
ssg83
g311
sg76
(lp318
S'comment'
p319
asbag69
(g90
g71
NtRp320
(dp321
g74
(dp322
g101
g102
ssg83
g311
sg76
(lp323
S':'
asbag69
(g90
g71
NtRp324
(dp325
g74
(dp326
sg83
g311
sg76
(lp327
g69
(g70
g71
NtRp328
(dp329
g74
(dp330
g82
I3
ssg83
g324
sg76
(lp331
S''
asbasbasbag69
(g85
g71
NtRp332
(dp333
g74
(dp334
sg83
g307
sg76
(lp335
g69
(g90
g71
NtRp336
(dp337
g74
(dp338
g94
g95
ssg83
g332
sg76
(lp339
S'domain'
p340
asbag69
(g90
g71
NtRp341
(dp342
g74
(dp343
g101
g102
ssg83
g332
sg76
(lp344
S':'
asbag69
(g90
g71
NtRp345
(dp346
g74
(dp347
sg83
g332
sg76
(lp348
g69
(g70
g71
NtRp349
(dp350
g74
(dp351
g82
I3
ssg83
g345
sg76
(lp352
S''
asbasbasbag69
(g85
g71
NtRp353
(dp354
g74
(dp355
sg83
g307
sg76
(lp356
g69
(g90
g71
NtRp357
(dp358
g74
(dp359
g94
g95
ssg83
g353
sg76
(lp360
S'expires'
p361
asbag69
(g90
g71
NtRp362
(dp363
g74
(dp364
g101
g102
ssg83
g353
sg76
(lp365
S':'
asbag69
(g90
g71
NtRp366
(dp367
g74
(dp368
sg83
g353
sg76
(lp369
g69
(g70
g71
NtRp370
(dp371
g74
(dp372
g82
I3
ssg83
g366
sg76
(lp373
S''
asbasbasbag69
(g85
g71
NtRp374
(dp375
g74
(dp376
sg83
g307
sg76
(lp377
g69
(g90
g71
NtRp378
(dp379
g74
(dp380
g94
g95
ssg83
g374
sg76
(lp381
S'httponly'
p382
asbag69
(g90
g71
NtRp383
(dp384
g74
(dp385
g101
g102
ssg83
g374
sg76
(lp386
S':'
asbag69
(g90
g71
NtRp387
(dp388
g74
(dp389
sg83
g374
sg76
(lp390
g69
(g70
g71
NtRp391
(dp392
g74
(dp393
g82
I3
ssg83
g387
sg76
(lp394
S''
asbasbasbag69
(g85
g71
NtRp395
(dp396
g74
(dp397
sg83
g307
sg76
(lp398
g69
(g90
g71
NtRp399
(dp400
g74
(dp401
g94
g95
ssg83
g395
sg76
(lp402
S'max-age'
p403
asbag69
(g90
g71
NtRp404
(dp405
g74
(dp406
g101
g102
ssg83
g395
sg76
(lp407
S':'
asbag69
(g90
g71
NtRp408
(dp409
g74
(dp410
sg83
g395
sg76
(lp411
g69
(g70
g71
NtRp412
(dp413
g74
(dp414
g82
I3
ssg83
g408
sg76
(lp415
S''
asbasbasbag69
(g85
g71
NtRp416
(dp417
g74
(dp418
sg83
g307
sg76
(lp419
g69
(g90
g71
NtRp420
(dp421
g74
(dp422
g94
g95
ssg83
g416
sg76
(lp423
S'path'
p424
asbag69
(g90
g71
NtRp425
(dp426
g74
(dp427
g101
g102
ssg83
g416
sg76
(lp428
S':'
asbag69
(g90
g71
NtRp429
(dp430
g74
(dp431
sg83
g416
sg76
(lp432
g69
(g70
g71
NtRp433
(dp434
g74
(dp435
g82
I3
ssg83
g429
sg76
(lp436
S''
asbasbasbag69
(g85
g71
NtRp437
(dp438
g74
(dp439
sg83
g307
sg76
(lp440
g69
(g90
g71
NtRp441
(dp442
g74
(dp443
g94
g95
ssg83
g437
sg76
(lp444
S'secure'
p445
asbag69
(g90
g71
NtRp446
(dp447
g74
(dp448
g101
g102
ssg83
g437
sg76
(lp449
S':'
asbag69
(g90
g71
NtRp450
(dp451
g74
(dp452
sg83
g437
sg76
(lp453
g69
(g70
g71
NtRp454
(dp455
g74
(dp456
g82
I3
ssg83
g450
sg76
(lp457
S''
asbasbasbag69
(g85
g71
NtRp458
(dp459
g74
(dp460
sg83
g307
sg76
(lp461
g69
(g90
g71
NtRp462
(dp463
g74
(dp464
g94
g95
ssg83
g458
sg76
(lp465
S'version'
p466
asbag69
(g90
g71
NtRp467
(dp468
g74
(dp469
g101
g102
ssg83
g458
sg76
(lp470
S':'
asbag69
(g90
g71
NtRp471
(dp472
g74
(dp473
sg83
g458
sg76
(lp474
g69
(g70
g71
NtRp475
(dp476
g74
(dp477
g82
I3
ssg83
g471
sg76
(lp478
S''
asbasbasbasbasbasbasbag69
(g85
g71
NtRp479
(dp480
g74
(dp481
sg83
g281
sg76
(lp482
g69
(g90
g71
NtRp483
(dp484
g74
(dp485
g94
g95
ssg83
g479
sg76
(lp486
S'session_id_onlineexamination'
p487
asbag69
(g90
g71
NtRp488
(dp489
g74
(dp490
g101
g102
ssg83
g479
sg76
(lp491
S':'
asbag69
(g90
g71
NtRp492
(dp493
g74
(dp494
sg83
g479
sg76
(lp495
g69
(g70
g71
NtRp496
(dp497
g74
(dp498
g82
I4
ssg83
g492
sg76
(lp499
S'127.0.0.1-d2228566-6160-4d2f-a4b5-d7a6fcc4e876'
p500
ag69
(g78
g71
NtRp501
(dp502
g74
(dp503
g82
I3
ssg83
Nsg76
(lp504
g69
(g85
g71
NtRp505
(dp506
g74
(dp507
sg83
g501
sg76
(lp508
g69
(g90
g71
NtRp509
(dp510
g74
(dp511
g94
g95
ssg83
g505
sg76
(lp512
g319
asbag69
(g90
g71
NtRp513
(dp514
g74
(dp515
g101
g102
ssg83
g505
sg76
(lp516
S':'
asbag69
(g90
g71
NtRp517
(dp518
g74
(dp519
sg83
g505
sg76
(lp520
g69
(g70
g71
NtRp521
(dp522
g74
(dp523
g82
I3
ssg83
g517
sg76
(lp524
S''
asbasbasbag69
(g85
g71
NtRp525
(dp526
g74
(dp527
sg83
g501
sg76
(lp528
g69
(g90
g71
NtRp529
(dp530
g74
(dp531
g94
g95
ssg83
g525
sg76
(lp532
g340
asbag69
(g90
g71
NtRp533
(dp534
g74
(dp535
g101
g102
ssg83
g525
sg76
(lp536
S':'
asbag69
(g90
g71
NtRp537
(dp538
g74
(dp539
sg83
g525
sg76
(lp540
g69
(g70
g71
NtRp541
(dp542
g74
(dp543
g82
I3
ssg83
g537
sg76
(lp544
S''
asbasbasbag69
(g85
g71
NtRp545
(dp546
g74
(dp547
sg83
g501
sg76
(lp548
g69
(g90
g71
NtRp549
(dp550
g74
(dp551
g94
g95
ssg83
g545
sg76
(lp552
g361
asbag69
(g90
g71
NtRp553
(dp554
g74
(dp555
g101
g102
ssg83
g545
sg76
(lp556
S':'
asbag69
(g90
g71
NtRp557
(dp558
g74
(dp559
sg83
g545
sg76
(lp560
g69
(g70
g71
NtRp561
(dp562
g74
(dp563
g82
I3
ssg83
g557
sg76
(lp564
S''
asbasbasbag69
(g85
g71
NtRp565
(dp566
g74
(dp567
sg83
g501
sg76
(lp568
g69
(g90
g71
NtRp569
(dp570
g74
(dp571
g94
g95
ssg83
g565
sg76
(lp572
g382
asbag69
(g90
g71
NtRp573
(dp574
g74
(dp575
g101
g102
ssg83
g565
sg76
(lp576
S':'
asbag69
(g90
g71
NtRp577
(dp578
g74
(dp579
sg83
g565
sg76
(lp580
g69
(g70
g71
NtRp581
(dp582
g74
(dp583
g82
I3
ssg83
g577
sg76
(lp584
S''
asbasbasbag69
(g85
g71
NtRp585
(dp586
g74
(dp587
sg83
g501
sg76
(lp588
g69
(g90
g71
NtRp589
(dp590
g74
(dp591
g94
g95
ssg83
g585
sg76
(lp592
g403
asbag69
(g90
g71
NtRp593
(dp594
g74
(dp595
g101
g102
ssg83
g585
sg76
(lp596
S':'
asbag69
(g90
g71
NtRp597
(dp598
g74
(dp599
sg83
g585
sg76
(lp600
g69
(g70
g71
NtRp601
(dp602
g74
(dp603
g82
I3
ssg83
g597
sg76
(lp604
S''
asbasbasbag69
(g85
g71
NtRp605
(dp606
g74
(dp607
sg83
g501
sg76
(lp608
g69
(g90
g71
NtRp609
(dp610
g74
(dp611
g94
g95
ssg83
g605
sg76
(lp612
g424
asbag69
(g90
g71
NtRp613
(dp614
g74
(dp615
g101
g102
ssg83
g605
sg76
(lp616
S':'
asbag69
(g90
g71
NtRp617
(dp618
g74
(dp619
sg83
g605
sg76
(lp620
g69
(g70
g71
NtRp621
(dp622
g74
(dp623
g82
I3
ssg83
g617
sg76
(lp624
S''
asbasbasbag69
(g85
g71
NtRp625
(dp626
g74
(dp627
sg83
g501
sg76
(lp628
g69
(g90
g71
NtRp629
(dp630
g74
(dp631
g94
g95
ssg83
g625
sg76
(lp632
g445
asbag69
(g90
g71
NtRp633
(dp634
g74
(dp635
g101
g102
ssg83
g625
sg76
(lp636
S':'
asbag69
(g90
g71
NtRp637
(dp638
g74
(dp639
sg83
g625
sg76
(lp640
g69
(g70
g71
NtRp641
(dp642
g74
(dp643
g82
I3
ssg83
g637
sg76
(lp644
S''
asbasbasbag69
(g85
g71
NtRp645
(dp646
g74
(dp647
sg83
g501
sg76
(lp648
g69
(g90
g71
NtRp649
(dp650
g74
(dp651
g94
g95
ssg83
g645
sg76
(lp652
g466
asbag69
(g90
g71
NtRp653
(dp654
g74
(dp655
g101
g102
ssg83
g645
sg76
(lp656
S':'
asbag69
(g90
g71
NtRp657
(dp658
g74
(dp659
sg83
g645
sg76
(lp660
g69
(g70
g71
NtRp661
(dp662
g74
(dp663
g82
I3
ssg83
g657
sg76
(lp664
S''
asbasbasbasbasbasbasbag69
(g85
g71
NtRp665
(dp666
g74
(dp667
sg83
g281
sg76
(lp668
g69
(g90
g71
NtRp669
(dp670
g74
(dp671
g94
g95
ssg83
g665
sg76
(lp672
S'session_id_welcome'
p673
asbag69
(g90
g71
NtRp674
(dp675
g74
(dp676
g101
g102
ssg83
g665
sg76
(lp677
S':'
asbag69
(g90
g71
NtRp678
(dp679
g74
(dp680
sg83
g665
sg76
(lp681
g69
(g70
g71
NtRp682
(dp683
g74
(dp684
g82
I4
ssg83
g678
sg76
(lp685
S'127.0.0.1-73ea7aea-dc43-4078-a44c-3ba780ff4d9e'
p686
ag69
(g78
g71
NtRp687
(dp688
g74
(dp689
g82
I3
ssg83
Nsg76
(lp690
g69
(g85
g71
NtRp691
(dp692
g74
(dp693
sg83
g687
sg76
(lp694
g69
(g90
g71
NtRp695
(dp696
g74
(dp697
g94
g95
ssg83
g691
sg76
(lp698
g319
asbag69
(g90
g71
NtRp699
(dp700
g74
(dp701
g101
g102
ssg83
g691
sg76
(lp702
S':'
asbag69
(g90
g71
NtRp703
(dp704
g74
(dp705
sg83
g691
sg76
(lp706
g69
(g70
g71
NtRp707
(dp708
g74
(dp709
g82
I3
ssg83
g703
sg76
(lp710
S''
asbasbasbag69
(g85
g71
NtRp711
(dp712
g74
(dp713
sg83
g687
sg76
(lp714
g69
(g90
g71
NtRp715
(dp716
g74
(dp717
g94
g95
ssg83
g711
sg76
(lp718
g340
asbag69
(g90
g71
NtRp719
(dp720
g74
(dp721
g101
g102
ssg83
g711
sg76
(lp722
S':'
asbag69
(g90
g71
NtRp723
(dp724
g74
(dp725
sg83
g711
sg76
(lp726
g69
(g70
g71
NtRp727
(dp728
g74
(dp729
g82
I3
ssg83
g723
sg76
(lp730
S''
asbasbasbag69
(g85
g71
NtRp731
(dp732
g74
(dp733
sg83
g687
sg76
(lp734
g69
(g90
g71
NtRp735
(dp736
g74
(dp737
g94
g95
ssg83
g731
sg76
(lp738
g361
asbag69
(g90
g71
NtRp739
(dp740
g74
(dp741
g101
g102
ssg83
g731
sg76
(lp742
S':'
asbag69
(g90
g71
NtRp743
(dp744
g74
(dp745
sg83
g731
sg76
(lp746
g69
(g70
g71
NtRp747
(dp748
g74
(dp749
g82
I3
ssg83
g743
sg76
(lp750
S''
asbasbasbag69
(g85
g71
NtRp751
(dp752
g74
(dp753
sg83
g687
sg76
(lp754
g69
(g90
g71
NtRp755
(dp756
g74
(dp757
g94
g95
ssg83
g751
sg76
(lp758
g382
asbag69
(g90
g71
NtRp759
(dp760
g74
(dp761
g101
g102
ssg83
g751
sg76
(lp762
S':'
asbag69
(g90
g71
NtRp763
(dp764
g74
(dp765
sg83
g751
sg76
(lp766
g69
(g70
g71
NtRp767
(dp768
g74
(dp769
g82
I3
ssg83
g763
sg76
(lp770
S''
asbasbasbag69
(g85
g71
NtRp771
(dp772
g74
(dp773
sg83
g687
sg76
(lp774
g69
(g90
g71
NtRp775
(dp776
g74
(dp777
g94
g95
ssg83
g771
sg76
(lp778
g403
asbag69
(g90
g71
NtRp779
(dp780
g74
(dp781
g101
g102
ssg83
g771
sg76
(lp782
S':'
asbag69
(g90
g71
NtRp783
(dp784
g74
(dp785
sg83
g771
sg76
(lp786
g69
(g70
g71
NtRp787
(dp788
g74
(dp789
g82
I3
ssg83
g783
sg76
(lp790
S''
asbasbasbag69
(g85
g71
NtRp791
(dp792
g74
(dp793
sg83
g687
sg76
(lp794
g69
(g90
g71
NtRp795
(dp796
g74
(dp797
g94
g95
ssg83
g791
sg76
(lp798
g424
asbag69
(g90
g71
NtRp799
(dp800
g74
(dp801
g101
g102
ssg83
g791
sg76
(lp802
S':'
asbag69
(g90
g71
NtRp803
(dp804
g74
(dp805
sg83
g791
sg76
(lp806
g69
(g70
g71
NtRp807
(dp808
g74
(dp809
g82
I3
ssg83
g803
sg76
(lp810
S''
asbasbasbag69
(g85
g71
NtRp811
(dp812
g74
(dp813
sg83
g687
sg76
(lp814
g69
(g90
g71
NtRp815
(dp816
g74
(dp817
g94
g95
ssg83
g811
sg76
(lp818
g445
asbag69
(g90
g71
NtRp819
(dp820
g74
(dp821
g101
g102
ssg83
g811
sg76
(lp822
S':'
asbag69
(g90
g71
NtRp823
(dp824
g74
(dp825
sg83
g811
sg76
(lp826
g69
(g70
g71
NtRp827
(dp828
g74
(dp829
g82
I3
ssg83
g823
sg76
(lp830
S''
asbasbasbag69
(g85
g71
NtRp831
(dp832
g74
(dp833
sg83
g687
sg76
(lp834
g69
(g90
g71
NtRp835
(dp836
g74
(dp837
g94
g95
ssg83
g831
sg76
(lp838
g466
asbag69
(g90
g71
NtRp839
(dp840
g74
(dp841
g101
g102
ssg83
g831
sg76
(lp842
S':'
asbag69
(g90
g71
NtRp843
(dp844
g74
(dp845
sg83
g831
sg76
(lp846
g69
(g70
g71
NtRp847
(dp848
g74
(dp849
g82
I3
ssg83
g843
sg76
(lp850
S''
asbasbasbasbasbasbasbasbasbasbasbag69
(g85
g71
NtRp851
(dp852
g74
(dp853
sg83
g79
sg76
(lp854
g69
(g90
g71
NtRp855
(dp856
g74
(dp857
g94
g95
ssg83
g851
sg76
(lp858
S'env'
p859
asbag69
(g90
g71
NtRp860
(dp861
g74
(dp862
g101
g102
ssg83
g851
sg76
(lp863
S':'
asbag69
(g90
g71
NtRp864
(dp865
g74
(dp866
sg83
g851
sg76
(lp867
g69
(g70
g71
NtRp868
(dp869
g74
(dp870
g82
I5
ssg83
g864
sg76
(lp871
g69
(g78
g71
NtRp872
(dp873
g74
(dp874
g82
I4
ssg83
Nsg76
(lp875
g69
(g85
g71
NtRp876
(dp877
g74
(dp878
sg83
g872
sg76
(lp879
g69
(g90
g71
NtRp880
(dp881
g74
(dp882
g94
g95
ssg83
g876
sg76
(lp883
S'app_folders'
p884
asbag69
(g90
g71
NtRp885
(dp886
g74
(dp887
g101
g102
ssg83
g876
sg76
(lp888
S':'
asbag69
(g90
g71
NtRp889
(dp890
g74
(dp891
sg83
g876
sg76
(lp892
g69
(g70
g71
NtRp893
(dp894
g74
(dp895
g82
I4
ssg83
g889
sg76
(lp896
S"set(['/home/saurabh/web2py/applications/admin/', '/home/saurabh/web2py/applications/OnlineExamination/', '/home/saurabh/web2py/applications/welcome/'])"
p897
asbasbasbag69
(g85
g71
NtRp898
(dp899
g74
(dp900
sg83
g872
sg76
(lp901
g69
(g90
g71
NtRp902
(dp903
g74
(dp904
g94
g95
ssg83
g898
sg76
(lp905
S'applications_parent'
p906
asbag69
(g90
g71
NtRp907
(dp908
g74
(dp909
g101
g102
ssg83
g898
sg76
(lp910
S':'
asbag69
(g90
g71
NtRp911
(dp912
g74
(dp913
sg83
g898
sg76
(lp914
g69
(g70
g71
NtRp915
(dp916
g74
(dp917
g82
I4
ssg83
g911
sg76
(lp918
S'/home/saurabh/web2py'
p919
asbasbasbag69
(g85
g71
NtRp920
(dp921
g74
(dp922
sg83
g872
sg76
(lp923
g69
(g90
g71
NtRp924
(dp925
g74
(dp926
g94
g95
ssg83
g920
sg76
(lp927
S'cmd_args'
p928
asbag69
(g90
g71
NtRp929
(dp930
g74
(dp931
g101
g102
ssg83
g920
sg76
(lp932
S':'
asbag69
(g90
g71
NtRp933
(dp934
g74
(dp935
sg83
g920
sg76
(lp936
g69
(g70
g71
NtRp937
(dp938
g74
(dp939
g82
I4
ssg83
g933
sg76
(lp940
g69
(g78
g71
NtRp941
(dp942
g74
(dp943
g82
I3
ssg83
Nsg76
(lp944
sbasbasbasbag69
(g85
g71
NtRp945
(dp946
g74
(dp947
sg83
g872
sg76
(lp948
g69
(g90
g71
NtRp949
(dp950
g74
(dp951
g94
g95
ssg83
g945
sg76
(lp952
S'cmd_options'
p953
asbag69
(g90
g71
NtRp954
(dp955
g74
(dp956
g101
g102
ssg83
g945
sg76
(lp957
S':'
asbag69
(g90
g71
NtRp958
(dp959
g74
(dp960
sg83
g945
sg76
(lp961
g69
(g70
g71
NtRp962
(dp963
g74
(dp964
g82
I4
ssg83
g958
sg76
(lp965
S"<Values at 0x32c78c0: {'verbose': False, 'ip': '127.0.0.1', 'with_scheduler': False, 'ips': [], 'shutdown_timeout': 5, 'taskbar': False, 'port': 8000, 'maxthreads': None, 'softcron': False, 'server_name': 'saurabh-Inspiron-N4050', 'bpython': False, 'nogui': False, 'pid_filename': 'httpserver.pid', 'extcron': False, 'runcron': False, 'run_system_tests': False, 'test': None, 'folder': '/home/saurabh/web2py', 'config': '', 'minthreads': None, 'winservice': '', 'shell': None, 'run': '', 'log_filename': 'httpserver.log', 'debuglevel': 30, 'args': [''], 'socket_timeout': 5, 'ssl_ca_certificate': None, 'scheduler': None, 'profiler_filename': None, 'ssl_private_key': '', 'scheduler_groups': None, 'password': '<ask>', 'request_queue_size': 5, 'ssl_certificate': '', 'cronjob': False, 'numthreads': None, 'quiet': False, 'interfaces': None, 'import_models': False, 'timeout': 10, 'plain': False, 'nobanner': False}>"
p966
asbasbasbag69
(g85
g71
NtRp967
(dp968
g74
(dp969
sg83
g872
sg76
(lp970
g69
(g90
g71
NtRp971
(dp972
g74
(dp973
g94
g95
ssg83
g967
sg76
(lp974
S'db_sessions'
p975
asbag69
(g90
g71
NtRp976
(dp977
g74
(dp978
g101
g102
ssg83
g967
sg76
(lp979
S':'
asbag69
(g90
g71
NtRp980
(dp981
g74
(dp982
sg83
g967
sg76
(lp983
g69
(g70
g71
NtRp984
(dp985
g74
(dp986
g82
I4
ssg83
g980
sg76
(lp987
S'set([])'
p988
asbasbasbag69
(g85
g71
NtRp989
(dp990
g74
(dp991
sg83
g872
sg76
(lp992
g69
(g90
g71
NtRp993
(dp994
g74
(dp995
g94
g95
ssg83
g989
sg76
(lp996
S'debugging'
p997
asbag69
(g90
g71
NtRp998
(dp999
g74
(dp1000
g101
g102
ssg83
g989
sg76
(lp1001
S':'
asbag69
(g90
g71
NtRp1002
(dp1003
g74
(dp1004
sg83
g989
sg76
(lp1005
g69
(g70
g71
NtRp1006
(dp1007
g74
(dp1008
g82
I4
ssg83
g1002
sg76
(lp1009
g112
asbasbasbag69
(g85
g71
NtRp1010
(dp1011
g74
(dp1012
sg83
g872
sg76
(lp1013
g69
(g90
g71
NtRp1014
(dp1015
g74
(dp1016
g94
g95
ssg83
g1010
sg76
(lp1017
S'gluon_parent'
p1018
asbag69
(g90
g71
NtRp1019
(dp1020
g74
(dp1021
g101
g102
ssg83
g1010
sg76
(lp1022
S':'
asbag69
(g90
g71
NtRp1023
(dp1024
g74
(dp1025
sg83
g1010
sg76
(lp1026
g69
(g70
g71
NtRp1027
(dp1028
g74
(dp1029
g82
I4
ssg83
g1023
sg76
(lp1030
S'/home/saurabh/web2py'
p1031
asbasbasbag69
(g85
g71
NtRp1032
(dp1033
g74
(dp1034
sg83
g872
sg76
(lp1035
g69
(g90
g71
NtRp1036
(dp1037
g74
(dp1038
g94
g95
ssg83
g1032
sg76
(lp1039
S'http_accept'
p1040
asbag69
(g90
g71
NtRp1041
(dp1042
g74
(dp1043
g101
g102
ssg83
g1032
sg76
(lp1044
S':'
asbag69
(g90
g71
NtRp1045
(dp1046
g74
(dp1047
sg83
g1032
sg76
(lp1048
g69
(g70
g71
NtRp1049
(dp1050
g74
(dp1051
g82
I4
ssg83
g1045
sg76
(lp1052
S'text/html,application/xhtml+xml,application/xml;q=0.9,*/*;q=0.8'
p1053
asbasbasbag69
(g85
g71
NtRp1054
(dp1055
g74
(dp1056
sg83
g872
sg76
(lp1057
g69
(g90
g71
NtRp1058
(dp1059
g74
(dp1060
g94
g95
ssg83
g1054
sg76
(lp1061
S'http_accept_encoding'
p1062
asbag69
(g90
g71
NtRp1063
(dp1064
g74
(dp1065
g101
g102
ssg83
g1054
sg76
(lp1066
S':'
asbag69
(g90
g71
NtRp1067
(dp1068
g74
(dp1069
sg83
g1054
sg76
(lp1070
g69
(g70
g71
NtRp1071
(dp1072
g74
(dp1073
g82
I4
ssg83
g1067
sg76
(lp1074
S'gzip, deflate'
p1075
asbasbasbag69
(g85
g71
NtRp1076
(dp1077
g74
(dp1078
sg83
g872
sg76
(lp1079
g69
(g90
g71
NtRp1080
(dp1081
g74
(dp1082
g94
g95
ssg83
g1076
sg76
(lp1083
S'http_accept_language'
p1084
asbag69
(g90
g71
NtRp1085
(dp1086
g74
(dp1087
g101
g102
ssg83
g1076
sg76
(lp1088
S':'
asbag69
(g90
g71
NtRp1089
(dp1090
g74
(dp1091
sg83
g1076
sg76
(lp1092
g69
(g70
g71
NtRp1093
(dp1094
g74
(dp1095
g82
I4
ssg83
g1089
sg76
(lp1096
S'en-US,en;q=0.5'
p1097
asbasbasbag69
(g85
g71
NtRp1098
(dp1099
g74
(dp1100
sg83
g872
sg76
(lp1101
g69
(g90
g71
NtRp1102
(dp1103
g74
(dp1104
g94
g95
ssg83
g1098
sg76
(lp1105
S'http_connection'
p1106
asbag69
(g90
g71
NtRp1107
(dp1108
g74
(dp1109
g101
g102
ssg83
g1098
sg76
(lp1110
S':'
asbag69
(g90
g71
NtRp1111
(dp1112
g74
(dp1113
sg83
g1098
sg76
(lp1114
g69
(g70
g71
NtRp1115
(dp1116
g74
(dp1117
g82
I4
ssg83
g1111
sg76
(lp1118
S'keep-alive'
p1119
asbasbasbag69
(g85
g71
NtRp1120
(dp1121
g74
(dp1122
sg83
g872
sg76
(lp1123
g69
(g90
g71
NtRp1124
(dp1125
g74
(dp1126
g94
g95
ssg83
g1120
sg76
(lp1127
S'http_cookie'
p1128
asbag69
(g90
g71
NtRp1129
(dp1130
g74
(dp1131
g101
g102
ssg83
g1120
sg76
(lp1132
S':'
asbag69
(g90
g71
NtRp1133
(dp1134
g74
(dp1135
sg83
g1120
sg76
(lp1136
g69
(g70
g71
NtRp1137
(dp1138
g74
(dp1139
g82
I4
ssg83
g1133
sg76
(lp1140
S'session_id_welcome=127.0.0.1-73ea7aea-dc43-4078-a44c-3ba780ff4d9e; session_id_admin=127.0.0.1-64b5e907-3927-4fd1-97ee-d50706e5ee41; session_id_onlineexamination=127.0.0.1-d2228566-6160-4d2f-a4b5-d7a6fcc4e876'
p1141
asbasbasbag69
(g85
g71
NtRp1142
(dp1143
g74
(dp1144
sg83
g872
sg76
(lp1145
g69
(g90
g71
NtRp1146
(dp1147
g74
(dp1148
g94
g95
ssg83
g1142
sg76
(lp1149
S'http_host'
p1150
asbag69
(g90
g71
NtRp1151
(dp1152
g74
(dp1153
g101
g102
ssg83
g1142
sg76
(lp1154
S':'
asbag69
(g90
g71
NtRp1155
(dp1156
g74
(dp1157
sg83
g1142
sg76
(lp1158
g69
(g70
g71
NtRp1159
(dp1160
g74
(dp1161
g82
I4
ssg83
g1155
sg76
(lp1162
S'127.0.0.1:8000'
p1163
asbasbasbag69
(g85
g71
NtRp1164
(dp1165
g74
(dp1166
sg83
g872
sg76
(lp1167
g69
(g90
g71
NtRp1168
(dp1169
g74
(dp1170
g94
g95
ssg83
g1164
sg76
(lp1171
S'http_referer'
p1172
asbag69
(g90
g71
NtRp1173
(dp1174
g74
(dp1175
g101
g102
ssg83
g1164
sg76
(lp1176
S':'
asbag69
(g90
g71
NtRp1177
(dp1178
g74
(dp1179
sg83
g1164
sg76
(lp1180
g69
(g70
g71
NtRp1181
(dp1182
g74
(dp1183
g82
I4
ssg83
g1177
sg76
(lp1184
S'http://127.0.0.1:8000/OnlineExamination/default/give_exam.html'
p1185
asbasbasbag69
(g85
g71
NtRp1186
(dp1187
g74
(dp1188
sg83
g872
sg76
(lp1189
g69
(g90
g71
NtRp1190
(dp1191
g74
(dp1192
g94
g95
ssg83
g1186
sg76
(lp1193
S'http_user_agent'
p1194
asbag69
(g90
g71
NtRp1195
(dp1196
g74
(dp1197
g101
g102
ssg83
g1186
sg76
(lp1198
S':'
asbag69
(g90
g71
NtRp1199
(dp1200
g74
(dp1201
sg83
g1186
sg76
(lp1202
g69
(g70
g71
NtRp1203
(dp1204
g74
(dp1205
g82
I4
ssg83
g1199
sg76
(lp1206
S'Mozilla/5.0 (X11; Ubuntu; Linux x86_64; rv:20.0) Gecko/20100101 Firefox/20.0'
p1207
asbasbasbag69
(g85
g71
NtRp1208
(dp1209
g74
(dp1210
sg83
g872
sg76
(lp1211
g69
(g90
g71
NtRp1212
(dp1213
g74
(dp1214
g94
g95
ssg83
g1208
sg76
(lp1215
S'is_jython'
p1216
asbag69
(g90
g71
NtRp1217
(dp1218
g74
(dp1219
g101
g102
ssg83
g1208
sg76
(lp1220
S':'
asbag69
(g90
g71
NtRp1221
(dp1222
g74
(dp1223
sg83
g1208
sg76
(lp1224
g69
(g70
g71
NtRp1225
(dp1226
g74
(dp1227
g82
I4
ssg83
g1221
sg76
(lp1228
g112
asbasbasbag69
(g85
g71
NtRp1229
(dp1230
g74
(dp1231
sg83
g872
sg76
(lp1232
g69
(g90
g71
NtRp1233
(dp1234
g74
(dp1235
g94
g95
ssg83
g1229
sg76
(lp1236
S'is_pypy'
p1237
asbag69
(g90
g71
NtRp1238
(dp1239
g74
(dp1240
g101
g102
ssg83
g1229
sg76
(lp1241
S':'
asbag69
(g90
g71
NtRp1242
(dp1243
g74
(dp1244
sg83
g1229
sg76
(lp1245
g69
(g70
g71
NtRp1246
(dp1247
g74
(dp1248
g82
I4
ssg83
g1242
sg76
(lp1249
g112
asbasbasbag69
(g85
g71
NtRp1250
(dp1251
g74
(dp1252
sg83
g872
sg76
(lp1253
g69
(g90
g71
NtRp1254
(dp1255
g74
(dp1256
g94
g95
ssg83
g1250
sg76
(lp1257
S'local_hosts'
p1258
asbag69
(g90
g71
NtRp1259
(dp1260
g74
(dp1261
g101
g102
ssg83
g1250
sg76
(lp1262
S':'
asbag69
(g90
g71
NtRp1263
(dp1264
g74
(dp1265
sg83
g1250
sg76
(lp1266
g69
(g70
g71
NtRp1267
(dp1268
g74
(dp1269
g82
I4
ssg83
g1263
sg76
(lp1270
g69
(g78
g71
NtRp1271
(dp1272
g74
(dp1273
g82
I3
ssg83
Nsg76
(lp1274
g69
(g85
g71
NtRp1275
(dp1276
g74
(dp1277
sg83
g1271
sg76
(lp1278
g69
(g90
g71
NtRp1279
(dp1280
g74
(dp1281
sg83
g1275
sg76
(lp1282
g69
(g70
g71
NtRp1283
(dp1284
g74
(dp1285
g82
I3
ssg83
g1279
sg76
(lp1286
S'127.0.1.1'
p1287
asbasbasbag69
(g85
g71
NtRp1288
(dp1289
g74
(dp1290
sg83
g1271
sg76
(lp1291
g69
(g90
g71
NtRp1292
(dp1293
g74
(dp1294
sg83
g1288
sg76
(lp1295
g69
(g70
g71
NtRp1296
(dp1297
g74
(dp1298
g82
I3
ssg83
g1292
sg76
(lp1299
S'::1'
p1300
asbasbasbag69
(g85
g71
NtRp1301
(dp1302
g74
(dp1303
sg83
g1271
sg76
(lp1304
g69
(g90
g71
NtRp1305
(dp1306
g74
(dp1307
sg83
g1301
sg76
(lp1308
g69
(g70
g71
NtRp1309
(dp1310
g74
(dp1311
g82
I3
ssg83
g1305
sg76
(lp1312
S'saurabh-Inspiron-N4050'
p1313
asbasbasbag69
(g85
g71
NtRp1314
(dp1315
g74
(dp1316
sg83
g1271
sg76
(lp1317
g69
(g90
g71
NtRp1318
(dp1319
g74
(dp1320
sg83
g1314
sg76
(lp1321
g69
(g70
g71
NtRp1322
(dp1323
g74
(dp1324
g82
I3
ssg83
g1318
sg76
(lp1325
S'::ffff:127.0.0.1'
p1326
asbasbasbag69
(g85
g71
NtRp1327
(dp1328
g74
(dp1329
sg83
g1271
sg76
(lp1330
g69
(g90
g71
NtRp1331
(dp1332
g74
(dp1333
sg83
g1327
sg76
(lp1334
g69
(g70
g71
NtRp1335
(dp1336
g74
(dp1337
g82
I3
ssg83
g1331
sg76
(lp1338
S'127.0.0.1'
p1339
asbasbasbasbasbasbasbag69
(g85
g71
NtRp1340
(dp1341
g74
(dp1342
sg83
g872
sg76
(lp1343
g69
(g90
g71
NtRp1344
(dp1345
g74
(dp1346
g94
g95
ssg83
g1340
sg76
(lp1347
S'path_info'
p1348
asbag69
(g90
g71
NtRp1349
(dp1350
g74
(dp1351
g101
g102
ssg83
g1340
sg76
(lp1352
S':'
asbag69
(g90
g71
NtRp1353
(dp1354
g74
(dp1355
sg83
g1340
sg76
(lp1356
g69
(g70
g71
NtRp1357
(dp1358
g74
(dp1359
g82
I4
ssg83
g1353
sg76
(lp1360
S'/OnlineExamination/default/user/logout'
p1361
asbasbasbag69
(g85
g71
NtRp1362
(dp1363
g74
(dp1364
sg83
g872
sg76
(lp1365
g69
(g90
g71
NtRp1366
(dp1367
g74
(dp1368
g94
g95
ssg83
g1362
sg76
(lp1369
S'query_string'
p1370
asbag69
(g90
g71
NtRp1371
(dp1372
g74
(dp1373
g101
g102
ssg83
g1362
sg76
(lp1374
S':'
asbag69
(g90
g71
NtRp1375
(dp1376
g74
(dp1377
sg83
g1362
sg76
(lp1378
g69
(g70
g71
NtRp1379
(dp1380
g74
(dp1381
g82
I4
ssg83
g1375
sg76
(lp1382
S'_next=/OnlineExamination/default/index'
p1383
asbasbasbag69
(g85
g71
NtRp1384
(dp1385
g74
(dp1386
sg83
g872
sg76
(lp1387
g69
(g90
g71
NtRp1388
(dp1389
g74
(dp1390
g94
g95
ssg83
g1384
sg76
(lp1391
S'remote_addr'
p1392
asbag69
(g90
g71
NtRp1393
(dp1394
g74
(dp1395
g101
g102
ssg83
g1384
sg76
(lp1396
S':'
asbag69
(g90
g71
NtRp1397
(dp1398
g74
(dp1399
sg83
g1384
sg76
(lp1400
g69
(g70
g71
NtRp1401
(dp1402
g74
(dp1403
g82
I4
ssg83
g1397
sg76
(lp1404
g237
asbasbasbag69
(g85
g71
NtRp1405
(dp1406
g74
(dp1407
sg83
g872
sg76
(lp1408
g69
(g90
g71
NtRp1409
(dp1410
g74
(dp1411
g94
g95
ssg83
g1405
sg76
(lp1412
S'remote_port'
p1413
asbag69
(g90
g71
NtRp1414
(dp1415
g74
(dp1416
g101
g102
ssg83
g1405
sg76
(lp1417
S':'
asbag69
(g90
g71
NtRp1418
(dp1419
g74
(dp1420
sg83
g1405
sg76
(lp1421
g69
(g70
g71
NtRp1422
(dp1423
g74
(dp1424
g82
I4
ssg83
g1418
sg76
(lp1425
S'33791'
p1426
asbasbasbag69
(g85
g71
NtRp1427
(dp1428
g74
(dp1429
sg83
g872
sg76
(lp1430
g69
(g90
g71
NtRp1431
(dp1432
g74
(dp1433
g94
g95
ssg83
g1427
sg76
(lp1434
S'request_method'
p1435
asbag69
(g90
g71
NtRp1436
(dp1437
g74
(dp1438
g101
g102
ssg83
g1427
sg76
(lp1439
S':'
asbag69
(g90
g71
NtRp1440
(dp1441
g74
(dp1442
sg83
g1427
sg76
(lp1443
g69
(g70
g71
NtRp1444
(dp1445
g74
(dp1446
g82
I4
ssg83
g1440
sg76
(lp1447
S'GET'
p1448
asbasbasbag69
(g85
g71
NtRp1449
(dp1450
g74
(dp1451
sg83
g872
sg76
(lp1452
g69
(g90
g71
NtRp1453
(dp1454
g74
(dp1455
g94
g95
ssg83
g1449
sg76
(lp1456
S'request_uri'
p1457
asbag69
(g90
g71
NtRp1458
(dp1459
g74
(dp1460
g101
g102
ssg83
g1449
sg76
(lp1461
S':'
asbag69
(g90
g71
NtRp1462
(dp1463
g74
(dp1464
sg83
g1449
sg76
(lp1465
g69
(g70
g71
NtRp1466
(dp1467
g74
(dp1468
g82
I4
ssg83
g1462
sg76
(lp1469
S'/OnlineExamination/default/user/logout?_next=/OnlineExamination/default/index'
p1470
asbasbasbag69
(g85
g71
NtRp1471
(dp1472
g74
(dp1473
sg83
g872
sg76
(lp1474
g69
(g90
g71
NtRp1475
(dp1476
g74
(dp1477
g94
g95
ssg83
g1471
sg76
(lp1478
S'script_name'
p1479
asbag69
(g90
g71
NtRp1480
(dp1481
g74
(dp1482
g101
g102
ssg83
g1471
sg76
(lp1483
S':'
asbag69
(g90
g71
NtRp1484
(dp1485
g74
(dp1486
sg83
g1471
sg76
(lp1487
g69
(g70
g71
NtRp1488
(dp1489
g74
(dp1490
g82
I4
ssg83
g1484
sg76
(lp1491
S''
asbasbasbag69
(g85
g71
NtRp1492
(dp1493
g74
(dp1494
sg83
g872
sg76
(lp1495
g69
(g90
g71
NtRp1496
(dp1497
g74
(dp1498
g94
g95
ssg83
g1492
sg76
(lp1499
S'server_name'
p1500
asbag69
(g90
g71
NtRp1501
(dp1502
g74
(dp1503
g101
g102
ssg83
g1492
sg76
(lp1504
S':'
asbag69
(g90
g71
NtRp1505
(dp1506
g74
(dp1507
sg83
g1492
sg76
(lp1508
g69
(g70
g71
NtRp1509
(dp1510
g74
(dp1511
g82
I4
ssg83
g1505
sg76
(lp1512
S'saurabh-Inspiron-N4050'
p1513
asbasbasbag69
(g85
g71
NtRp1514
(dp1515
g74
(dp1516
sg83
g872
sg76
(lp1517
g69
(g90
g71
NtRp1518
(dp1519
g74
(dp1520
g94
g95
ssg83
g1514
sg76
(lp1521
S'server_port'
p1522
asbag69
(g90
g71
NtRp1523
(dp1524
g74
(dp1525
g101
g102
ssg83
g1514
sg76
(lp1526
S':'
asbag69
(g90
g71
NtRp1527
(dp1528
g74
(dp1529
sg83
g1514
sg76
(lp1530
g69
(g70
g71
NtRp1531
(dp1532
g74
(dp1533
g82
I4
ssg83
g1527
sg76
(lp1534
S'8000'
p1535
asbasbasbag69
(g85
g71
NtRp1536
(dp1537
g74
(dp1538
sg83
g872
sg76
(lp1539
g69
(g90
g71
NtRp1540
(dp1541
g74
(dp1542
g94
g95
ssg83
g1536
sg76
(lp1543
S'server_protocol'
p1544
asbag69
(g90
g71
NtRp1545
(dp1546
g74
(dp1547
g101
g102
ssg83
g1536
sg76
(lp1548
S':'
asbag69
(g90
g71
NtRp1549
(dp1550
g74
(dp1551
sg83
g1536
sg76
(lp1552
g69
(g70
g71
NtRp1553
(dp1554
g74
(dp1555
g82
I4
ssg83
g1549
sg76
(lp1556
S'HTTP/1.1'
p1557
asbasbasbag69
(g85
g71
NtRp1558
(dp1559
g74
(dp1560
sg83
g872
sg76
(lp1561
g69
(g90
g71
NtRp1562
(dp1563
g74
(dp1564
g94
g95
ssg83
g1558
sg76
(lp1565
S'server_software'
p1566
asbag69
(g90
g71
NtRp1567
(dp1568
g74
(dp1569
g101
g102
ssg83
g1558
sg76
(lp1570
S':'
asbag69
(g90
g71
NtRp1571
(dp1572
g74
(dp1573
sg83
g1558
sg76
(lp1574
g69
(g70
g71
NtRp1575
(dp1576
g74
(dp1577
g82
I4
ssg83
g1571
sg76
(lp1578
S'Rocket 1.2.6'
p1579
asbasbasbag69
(g85
g71
NtRp1580
(dp1581
g74
(dp1582
sg83
g872
sg76
(lp1583
g69
(g90
g71
NtRp1584
(dp1585
g74
(dp1586
g94
g95
ssg83
g1580
sg76
(lp1587
S'web2py_path'
p1588
asbag69
(g90
g71
NtRp1589
(dp1590
g74
(dp1591
g101
g102
ssg83
g1580
sg76
(lp1592
S':'
asbag69
(g90
g71
NtRp1593
(dp1594
g74
(dp1595
sg83
g1580
sg76
(lp1596
g69
(g70
g71
NtRp1597
(dp1598
g74
(dp1599
g82
I4
ssg83
g1593
sg76
(lp1600
g919
asbasbasbag69
(g85
g71
NtRp1601
(dp1602
g74
(dp1603
sg83
g872
sg76
(lp1604
g69
(g90
g71
NtRp1605
(dp1606
g74
(dp1607
g94
g95
ssg83
g1601
sg76
(lp1608
S'web2py_version'
p1609
asbag69
(g90
g71
NtRp1610
(dp1611
g74
(dp1612
g101
g102
ssg83
g1601
sg76
(lp1613
S':'
asbag69
(g90
g71
NtRp1614
(dp1615
g74
(dp1616
sg83
g1601
sg76
(lp1617
g69
(g70
g71
NtRp1618
(dp1619
g74
(dp1620
g82
I4
ssg83
g1614
sg76
(lp1621
g69
(g78
g71
NtRp1622
(dp1623
g74
(dp1624
g82
I3
ssg83
Nsg76
(lp1625
g69
(g85
g71
NtRp1626
(dp1627
g74
(dp1628
sg83
g1622
sg76
(lp1629
g69
(g90
g71
NtRp1630
(dp1631
g74
(dp1632
sg83
g1626
sg76
(lp1633
g69
(g70
g71
NtRp1634
(dp1635
g74
(dp1636
g82
I3
ssg83
g1630
sg76
(lp1637
S'2'
asbasbasbag69
(g85
g71
NtRp1638
(dp1639
g74
(dp1640
sg83
g1622
sg76
(lp1641
g69
(g90
g71
NtRp1642
(dp1643
g74
(dp1644
sg83
g1638
sg76
(lp1645
g69
(g70
g71
NtRp1646
(dp1647
g74
(dp1648
g82
I3
ssg83
g1642
sg76
(lp1649
S'3'
asbasbasbag69
(g85
g71
NtRp1650
(dp1651
g74
(dp1652
sg83
g1622
sg76
(lp1653
g69
(g90
g71
NtRp1654
(dp1655
g74
(dp1656
sg83
g1650
sg76
(lp1657
g69
(g70
g71
NtRp1658
(dp1659
g74
(dp1660
g82
I3
ssg83
g1654
sg76
(lp1661
S'2'
asbasbasbag69
(g85
g71
NtRp1662
(dp1663
g74
(dp1664
sg83
g1622
sg76
(lp1665
g69
(g90
g71
NtRp1666
(dp1667
g74
(dp1668
sg83
g1662
sg76
(lp1669
g69
(g70
g71
NtRp1670
(dp1671
g74
(dp1672
g82
I3
ssg83
g1666
sg76
(lp1673
S'datetime.datetime(2012, 12, 17, 15, 3, 30)'
p1674
asbasbasbag69
(g85
g71
NtRp1675
(dp1676
g74
(dp1677
sg83
g1622
sg76
(lp1678
g69
(g90
g71
NtRp1679
(dp1680
g74
(dp1681
sg83
g1675
sg76
(lp1682
g69
(g70
g71
NtRp1683
(dp1684
g74
(dp1685
g82
I3
ssg83
g1679
sg76
(lp1686
S'stable'
p1687
asbasbasbasbasbasbasbag69
(g85
g71
NtRp1688
(dp1689
g74
(dp1690
sg83
g872
sg76
(lp1691
g69
(g90
g71
NtRp1692
(dp1693
g74
(dp1694
g94
g95
ssg83
g1688
sg76
(lp1695
S'wsgi_errors'
p1696
asbag69
(g90
g71
NtRp1697
(dp1698
g74
(dp1699
g101
g102
ssg83
g1688
sg76
(lp1700
S':'
asbag69
(g90
g71
NtRp1701
(dp1702
g74
(dp1703
sg83
g1688
sg76
(lp1704
g69
(g70
g71
NtRp1705
(dp1706
g74
(dp1707
g82
I4
ssg83
g1701
sg76
(lp1708
S"<open file '<stderr>', mode 'w' at 0x7f253778a270>"
p1709
asbasbasbag69
(g85
g71
NtRp1710
(dp1711
g74
(dp1712
sg83
g872
sg76
(lp1713
g69
(g90
g71
NtRp1714
(dp1715
g74
(dp1716
g94
g95
ssg83
g1710
sg76
(lp1717
S'wsgi_file_wrapper'
p1718
asbag69
(g90
g71
NtRp1719
(dp1720
g74
(dp1721
g101
g102
ssg83
g1710
sg76
(lp1722
S':'
asbag69
(g90
g71
NtRp1723
(dp1724
g74
(dp1725
sg83
g1710
sg76
(lp1726
g69
(g70
g71
NtRp1727
(dp1728
g74
(dp1729
g82
I4
ssg83
g1723
sg76
(lp1730
S'<class wsgiref.util.FileWrapper at 0x3231c18>'
p1731
asbasbasbag69
(g85
g71
NtRp1732
(dp1733
g74
(dp1734
sg83
g872
sg76
(lp1735
g69
(g90
g71
NtRp1736
(dp1737
g74
(dp1738
g94
g95
ssg83
g1732
sg76
(lp1739
S'wsgi_input'
p1740
asbag69
(g90
g71
NtRp1741
(dp1742
g74
(dp1743
g101
g102
ssg83
g1732
sg76
(lp1744
S':'
asbag69
(g90
g71
NtRp1745
(dp1746
g74
(dp1747
sg83
g1732
sg76
(lp1748
g69
(g70
g71
NtRp1749
(dp1750
g74
(dp1751
g82
I4
ssg83
g1745
sg76
(lp1752
S'<socket._fileobject object at 0x7f251c383450>'
p1753
asbasbasbag69
(g85
g71
NtRp1754
(dp1755
g74
(dp1756
sg83
g872
sg76
(lp1757
g69
(g90
g71
NtRp1758
(dp1759
g74
(dp1760
g94
g95
ssg83
g1754
sg76
(lp1761
S'wsgi_multiprocess'
p1762
asbag69
(g90
g71
NtRp1763
(dp1764
g74
(dp1765
g101
g102
ssg83
g1754
sg76
(lp1766
S':'
asbag69
(g90
g71
NtRp1767
(dp1768
g74
(dp1769
sg83
g1754
sg76
(lp1770
g69
(g70
g71
NtRp1771
(dp1772
g74
(dp1773
g82
I4
ssg83
g1767
sg76
(lp1774
g112
asbasbasbag69
(g85
g71
NtRp1775
(dp1776
g74
(dp1777
sg83
g872
sg76
(lp1778
g69
(g90
g71
NtRp1779
(dp1780
g74
(dp1781
g94
g95
ssg83
g1775
sg76
(lp1782
S'wsgi_multithread'
p1783
asbag69
(g90
g71
NtRp1784
(dp1785
g74
(dp1786
g101
g102
ssg83
g1775
sg76
(lp1787
S':'
asbag69
(g90
g71
NtRp1788
(dp1789
g74
(dp1790
sg83
g1775
sg76
(lp1791
g69
(g70
g71
NtRp1792
(dp1793
g74
(dp1794
g82
I4
ssg83
g1788
sg76
(lp1795
S'True'
p1796
asbasbasbag69
(g85
g71
NtRp1797
(dp1798
g74
(dp1799
sg83
g872
sg76
(lp1800
g69
(g90
g71
NtRp1801
(dp1802
g74
(dp1803
g94
g95
ssg83
g1797
sg76
(lp1804
S'wsgi_run_once'
p1805
asbag69
(g90
g71
NtRp1806
(dp1807
g74
(dp1808
g101
g102
ssg83
g1797
sg76
(lp1809
S':'
asbag69
(g90
g71
NtRp1810
(dp1811
g74
(dp1812
sg83
g1797
sg76
(lp1813
g69
(g70
g71
NtRp1814
(dp1815
g74
(dp1816
g82
I4
ssg83
g1810
sg76
(lp1817
g112
asbasbasbag69
(g85
g71
NtRp1818
(dp1819
g74
(dp1820
sg83
g872
sg76
(lp1821
g69
(g90
g71
NtRp1822
(dp1823
g74
(dp1824
g94
g95
ssg83
g1818
sg76
(lp1825
S'wsgi_url_scheme'
p1826
asbag69
(g90
g71
NtRp1827
(dp1828
g74
(dp1829
g101
g102
ssg83
g1818
sg76
(lp1830
S':'
asbag69
(g90
g71
NtRp1831
(dp1832
g74
(dp1833
sg83
g1818
sg76
(lp1834
g69
(g70
g71
NtRp1835
(dp1836
g74
(dp1837
g82
I4
ssg83
g1831
sg76
(lp1838
S'http'
p1839
asbasbasbag69
(g85
g71
NtRp1840
(dp1841
g74
(dp1842
sg83
g872
sg76
(lp1843
g69
(g90
g71
NtRp1844
(dp1845
g74
(dp1846
g94
g95
ssg83
g1840
sg76
(lp1847
S'wsgi_version'
p1848
asbag69
(g90
g71
NtRp1849
(dp1850
g74
(dp1851
g101
g102
ssg83
g1840
sg76
(lp1852
S':'
asbag69
(g90
g71
NtRp1853
(dp1854
g74
(dp1855
sg83
g1840
sg76
(lp1856
g69
(g70
g71
NtRp1857
(dp1858
g74
(dp1859
g82
I4
ssg83
g1853
sg76
(lp1860
g69
(g78
g71
NtRp1861
(dp1862
g74
(dp1863
g82
I3
ssg83
Nsg76
(lp1864
g69
(g85
g71
NtRp1865
(dp1866
g74
(dp1867
sg83
g1861
sg76
(lp1868
g69
(g90
g71
NtRp1869
(dp1870
g74
(dp1871
sg83
g1865
sg76
(lp1872
g69
(g70
g71
NtRp1873
(dp1874
g74
(dp1875
g82
I3
ssg83
g1869
sg76
(lp1876
S'1'
asbasbasbag69
(g85
g71
NtRp1877
(dp1878
g74
(dp1879
sg83
g1861
sg76
(lp1880
g69
(g90
g71
NtRp1881
(dp1882
g74
(dp1883
sg83
g1877
sg76
(lp1884
g69
(g70
g71
NtRp1885
(dp1886
g74
(dp1887
g82
I3
ssg83
g1881
sg76
(lp1888
S'0'
asbasbasbasbasbasbasbasbasbasbasbag69
(g85
g71
NtRp1889
(dp1890
g74
(dp1891
sg83
g79
sg76
(lp1892
g69
(g90
g71
NtRp1893
(dp1894
g74
(dp1895
g94
g95
ssg83
g1889
sg76
(lp1896
S'extension'
p1897
asbag69
(g90
g71
NtRp1898
(dp1899
g74
(dp1900
g101
g102
ssg83
g1889
sg76
(lp1901
S':'
asbag69
(g90
g71
NtRp1902
(dp1903
g74
(dp1904
sg83
g1889
sg76
(lp1905
g69
(g70
g71
NtRp1906
(dp1907
g74
(dp1908
g82
I5
ssg83
g1902
sg76
(lp1909
S'html'
p1910
asbasbasbag69
(g85
g71
NtRp1911
(dp1912
g74
(dp1913
sg83
g79
sg76
(lp1914
g69
(g90
g71
NtRp1915
(dp1916
g74
(dp1917
g94
g95
ssg83
g1911
sg76
(lp1918
S'folder'
p1919
asbag69
(g90
g71
NtRp1920
(dp1921
g74
(dp1922
g101
g102
ssg83
g1911
sg76
(lp1923
S':'
asbag69
(g90
g71
NtRp1924
(dp1925
g74
(dp1926
sg83
g1911
sg76
(lp1927
g69
(g70
g71
NtRp1928
(dp1929
g74
(dp1930
g82
I5
ssg83
g1924
sg76
(lp1931
S'/home/saurabh/web2py/applications/OnlineExamination/'
p1932
asbasbasbag69
(g85
g71
NtRp1933
(dp1934
g74
(dp1935
sg83
g79
sg76
(lp1936
g69
(g90
g71
NtRp1937
(dp1938
g74
(dp1939
g94
g95
ssg83
g1933
sg76
(lp1940
S'function'
p1941
asbag69
(g90
g71
NtRp1942
(dp1943
g74
(dp1944
g101
g102
ssg83
g1933
sg76
(lp1945
S':'
asbag69
(g90
g71
NtRp1946
(dp1947
g74
(dp1948
sg83
g1933
sg76
(lp1949
g69
(g70
g71
NtRp1950
(dp1951
g74
(dp1952
g82
I5
ssg83
g1946
sg76
(lp1953
S'user'
p1954
asbasbasbag69
(g85
g71
NtRp1955
(dp1956
g74
(dp1957
sg83
g79
sg76
(lp1958
g69
(g90
g71
NtRp1959
(dp1960
g74
(dp1961
g94
g95
ssg83
g1955
sg76
(lp1962
S'get_vars'
p1963
asbag69
(g90
g71
NtRp1964
(dp1965
g74
(dp1966
g101
g102
ssg83
g1955
sg76
(lp1967
S':'
asbag69
(g90
g71
NtRp1968
(dp1969
g74
(dp1970
sg83
g1955
sg76
(lp1971
g69
(g70
g71
NtRp1972
(dp1973
g74
(dp1974
g82
I5
ssg83
g1968
sg76
(lp1975
g69
(g78
g71
NtRp1976
(dp1977
g74
(dp1978
g82
I4
ssg83
Nsg76
(lp1979
sbasbasbasbag69
(g85
g71
NtRp1980
(dp1981
g74
(dp1982
sg83
g79
sg76
(lp1983
g69
(g90
g71
NtRp1984
(dp1985
g74
(dp1986
g94
g95
ssg83
g1980
sg76
(lp1987
S'global_settings'
p1988
asbag69
(g90
g71
NtRp1989
(dp1990
g74
(dp1991
g101
g102
ssg83
g1980
sg76
(lp1992
S':'
asbag69
(g90
g71
NtRp1993
(dp1994
g74
(dp1995
sg83
g1980
sg76
(lp1996
g69
(g70
g71
NtRp1997
(dp1998
g74
(dp1999
g82
I5
ssg83
g1993
sg76
(lp2000
g69
(g78
g71
NtRp2001
(dp2002
g74
(dp2003
g82
I4
ssg83
Nsg76
(lp2004
g69
(g85
g71
NtRp2005
(dp2006
g74
(dp2007
sg83
g2001
sg76
(lp2008
g69
(g90
g71
NtRp2009
(dp2010
g74
(dp2011
g94
g95
ssg83
g2005
sg76
(lp2012
g884
asbag69
(g90
g71
NtRp2013
(dp2014
g74
(dp2015
g101
g102
ssg83
g2005
sg76
(lp2016
S':'
asbag69
(g90
g71
NtRp2017
(dp2018
g74
(dp2019
sg83
g2005
sg76
(lp2020
g69
(g70
g71
NtRp2021
(dp2022
g74
(dp2023
g82
I4
ssg83
g2017
sg76
(lp2024
S"set(['/home/saurabh/web2py/applications/admin/', '/home/saurabh/web2py/applications/OnlineExamination/', '/home/saurabh/web2py/applications/welcome/'])"
p2025
asbasbasbag69
(g85
g71
NtRp2026
(dp2027
g74
(dp2028
sg83
g2001
sg76
(lp2029
g69
(g90
g71
NtRp2030
(dp2031
g74
(dp2032
g94
g95
ssg83
g2026
sg76
(lp2033
g906
asbag69
(g90
g71
NtRp2034
(dp2035
g74
(dp2036
g101
g102
ssg83
g2026
sg76
(lp2037
S':'
asbag69
(g90
g71
NtRp2038
(dp2039
g74
(dp2040
sg83
g2026
sg76
(lp2041
g69
(g70
g71
NtRp2042
(dp2043
g74
(dp2044
g82
I4
ssg83
g2038
sg76
(lp2045
g919
asbasbasbag69
(g85
g71
NtRp2046
(dp2047
g74
(dp2048
sg83
g2001
sg76
(lp2049
g69
(g90
g71
NtRp2050
(dp2051
g74
(dp2052
g94
g95
ssg83
g2046
sg76
(lp2053
g928
asbag69
(g90
g71
NtRp2054
(dp2055
g74
(dp2056
g101
g102
ssg83
g2046
sg76
(lp2057
S':'
asbag69
(g90
g71
NtRp2058
(dp2059
g74
(dp2060
sg83
g2046
sg76
(lp2061
g69
(g70
g71
NtRp2062
(dp2063
g74
(dp2064
g82
I4
ssg83
g2058
sg76
(lp2065
g69
(g78
g71
NtRp2066
(dp2067
g74
(dp2068
g82
I3
ssg83
Nsg76
(lp2069
sbasbasbasbag69
(g85
g71
NtRp2070
(dp2071
g74
(dp2072
sg83
g2001
sg76
(lp2073
g69
(g90
g71
NtRp2074
(dp2075
g74
(dp2076
g94
g95
ssg83
g2070
sg76
(lp2077
g953
asbag69
(g90
g71
NtRp2078
(dp2079
g74
(dp2080
g101
g102
ssg83
g2070
sg76
(lp2081
S':'
asbag69
(g90
g71
NtRp2082
(dp2083
g74
(dp2084
sg83
g2070
sg76
(lp2085
g69
(g70
g71
NtRp2086
(dp2087
g74
(dp2088
g82
I4
ssg83
g2082
sg76
(lp2089
S"<Values at 0x32c78c0: {'verbose': False, 'ip': '127.0.0.1', 'with_scheduler': False, 'ips': [], 'shutdown_timeout': 5, 'taskbar': False, 'port': 8000, 'maxthreads': None, 'softcron': False, 'server_name': 'saurabh-Inspiron-N4050', 'bpython': False, 'nogui': False, 'pid_filename': 'httpserver.pid', 'extcron': False, 'runcron': False, 'run_system_tests': False, 'test': None, 'folder': '/home/saurabh/web2py', 'config': '', 'minthreads': None, 'winservice': '', 'shell': None, 'run': '', 'log_filename': 'httpserver.log', 'debuglevel': 30, 'args': [''], 'socket_timeout': 5, 'ssl_ca_certificate': None, 'scheduler': None, 'profiler_filename': None, 'ssl_private_key': '', 'scheduler_groups': None, 'password': '<ask>', 'request_queue_size': 5, 'ssl_certificate': '', 'cronjob': False, 'numthreads': None, 'quiet': False, 'interfaces': None, 'import_models': False, 'timeout': 10, 'plain': False, 'nobanner': False}>"
p2090
asbasbasbag69
(g85
g71
NtRp2091
(dp2092
g74
(dp2093
sg83
g2001
sg76
(lp2094
g69
(g90
g71
NtRp2095
(dp2096
g74
(dp2097
g94
g95
ssg83
g2091
sg76
(lp2098
g975
asbag69
(g90
g71
NtRp2099
(dp2100
g74
(dp2101
g101
g102
ssg83
g2091
sg76
(lp2102
S':'
asbag69
(g90
g71
NtRp2103
(dp2104
g74
(dp2105
sg83
g2091
sg76
(lp2106
g69
(g70
g71
NtRp2107
(dp2108
g74
(dp2109
g82
I4
ssg83
g2103
sg76
(lp2110
S'set([])'
p2111
asbasbasbag69
(g85
g71
NtRp2112
(dp2113
g74
(dp2114
sg83
g2001
sg76
(lp2115
g69
(g90
g71
NtRp2116
(dp2117
g74
(dp2118
g94
g95
ssg83
g2112
sg76
(lp2119
g997
asbag69
(g90
g71
NtRp2120
(dp2121
g74
(dp2122
g101
g102
ssg83
g2112
sg76
(lp2123
S':'
asbag69
(g90
g71
NtRp2124
(dp2125
g74
(dp2126
sg83
g2112
sg76
(lp2127
g69
(g70
g71
NtRp2128
(dp2129
g74
(dp2130
g82
I4
ssg83
g2124
sg76
(lp2131
g112
asbasbasbag69
(g85
g71
NtRp2132
(dp2133
g74
(dp2134
sg83
g2001
sg76
(lp2135
g69
(g90
g71
NtRp2136
(dp2137
g74
(dp2138
g94
g95
ssg83
g2132
sg76
(lp2139
g1018
asbag69
(g90
g71
NtRp2140
(dp2141
g74
(dp2142
g101
g102
ssg83
g2132
sg76
(lp2143
S':'
asbag69
(g90
g71
NtRp2144
(dp2145
g74
(dp2146
sg83
g2132
sg76
(lp2147
g69
(g70
g71
NtRp2148
(dp2149
g74
(dp2150
g82
I4
ssg83
g2144
sg76
(lp2151
g1031
asbasbasbag69
(g85
g71
NtRp2152
(dp2153
g74
(dp2154
sg83
g2001
sg76
(lp2155
g69
(g90
g71
NtRp2156
(dp2157
g74
(dp2158
g94
g95
ssg83
g2152
sg76
(lp2159
g1216
asbag69
(g90
g71
NtRp2160
(dp2161
g74
(dp2162
g101
g102
ssg83
g2152
sg76
(lp2163
S':'
asbag69
(g90
g71
NtRp2164
(dp2165
g74
(dp2166
sg83
g2152
sg76
(lp2167
g69
(g70
g71
NtRp2168
(dp2169
g74
(dp2170
g82
I4
ssg83
g2164
sg76
(lp2171
g112
asbasbasbag69
(g85
g71
NtRp2172
(dp2173
g74
(dp2174
sg83
g2001
sg76
(lp2175
g69
(g90
g71
NtRp2176
(dp2177
g74
(dp2178
g94
g95
ssg83
g2172
sg76
(lp2179
g1237
asbag69
(g90
g71
NtRp2180
(dp2181
g74
(dp2182
g101
g102
ssg83
g2172
sg76
(lp2183
S':'
asbag69
(g90
g71
NtRp2184
(dp2185
g74
(dp2186
sg83
g2172
sg76
(lp2187
g69
(g70
g71
NtRp2188
(dp2189
g74
(dp2190
g82
I4
ssg83
g2184
sg76
(lp2191
g112
asbasbasbag69
(g85
g71
NtRp2192
(dp2193
g74
(dp2194
sg83
g2001
sg76
(lp2195
g69
(g90
g71
NtRp2196
(dp2197
g74
(dp2198
g94
g95
ssg83
g2192
sg76
(lp2199
g1258
asbag69
(g90
g71
NtRp2200
(dp2201
g74
(dp2202
g101
g102
ssg83
g2192
sg76
(lp2203
S':'
asbag69
(g90
g71
NtRp2204
(dp2205
g74
(dp2206
sg83
g2192
sg76
(lp2207
g69
(g70
g71
NtRp2208
(dp2209
g74
(dp2210
g82
I4
ssg83
g2204
sg76
(lp2211
g69
(g78
g71
NtRp2212
(dp2213
g74
(dp2214
g82
I3
ssg83
Nsg76
(lp2215
g69
(g85
g71
NtRp2216
(dp2217
g74
(dp2218
sg83
g2212
sg76
(lp2219
g69
(g90
g71
NtRp2220
(dp2221
g74
(dp2222
sg83
g2216
sg76
(lp2223
g69
(g70
g71
NtRp2224
(dp2225
g74
(dp2226
g82
I3
ssg83
g2220
sg76
(lp2227
g1287
asbasbasbag69
(g85
g71
NtRp2228
(dp2229
g74
(dp2230
sg83
g2212
sg76
(lp2231
g69
(g90
g71
NtRp2232
(dp2233
g74
(dp2234
sg83
g2228
sg76
(lp2235
g69
(g70
g71
NtRp2236
(dp2237
g74
(dp2238
g82
I3
ssg83
g2232
sg76
(lp2239
g1300
asbasbasbag69
(g85
g71
NtRp2240
(dp2241
g74
(dp2242
sg83
g2212
sg76
(lp2243
g69
(g90
g71
NtRp2244
(dp2245
g74
(dp2246
sg83
g2240
sg76
(lp2247
g69
(g70
g71
NtRp2248
(dp2249
g74
(dp2250
g82
I3
ssg83
g2244
sg76
(lp2251
g1313
asbasbasbag69
(g85
g71
NtRp2252
(dp2253
g74
(dp2254
sg83
g2212
sg76
(lp2255
g69
(g90
g71
NtRp2256
(dp2257
g74
(dp2258
sg83
g2252
sg76
(lp2259
g69
(g70
g71
NtRp2260
(dp2261
g74
(dp2262
g82
I3
ssg83
g2256
sg76
(lp2263
g1326
asbasbasbag69
(g85
g71
NtRp2264
(dp2265
g74
(dp2266
sg83
g2212
sg76
(lp2267
g69
(g90
g71
NtRp2268
(dp2269
g74
(dp2270
sg83
g2264
sg76
(lp2271
g69
(g70
g71
NtRp2272
(dp2273
g74
(dp2274
g82
I3
ssg83
g2268
sg76
(lp2275
g1339
asbasbasbasbasbasbasbag69
(g85
g71
NtRp2276
(dp2277
g74
(dp2278
sg83
g2001
sg76
(lp2279
g69
(g90
g71
NtRp2280
(dp2281
g74
(dp2282
g94
g95
ssg83
g2276
sg76
(lp2283
g1609
asbag69
(g90
g71
NtRp2284
(dp2285
g74
(dp2286
g101
g102
ssg83
g2276
sg76
(lp2287
S':'
asbag69
(g90
g71
NtRp2288
(dp2289
g74
(dp2290
sg83
g2276
sg76
(lp2291
g69
(g70
g71
NtRp2292
(dp2293
g74
(dp2294
g82
I4
ssg83
g2288
sg76
(lp2295
g69
(g78
g71
NtRp2296
(dp2297
g74
(dp2298
g82
I3
ssg83
Nsg76
(lp2299
g69
(g85
g71
NtRp2300
(dp2301
g74
(dp2302
sg83
g2296
sg76
(lp2303
g69
(g90
g71
NtRp2304
(dp2305
g74
(dp2306
sg83
g2300
sg76
(lp2307
g69
(g70
g71
NtRp2308
(dp2309
g74
(dp2310
g82
I3
ssg83
g2304
sg76
(lp2311
S'2'
asbasbasbag69
(g85
g71
NtRp2312
(dp2313
g74
(dp2314
sg83
g2296
sg76
(lp2315
g69
(g90
g71
NtRp2316
(dp2317
g74
(dp2318
sg83
g2312
sg76
(lp2319
g69
(g70
g71
NtRp2320
(dp2321
g74
(dp2322
g82
I3
ssg83
g2316
sg76
(lp2323
S'3'
asbasbasbag69
(g85
g71
NtRp2324
(dp2325
g74
(dp2326
sg83
g2296
sg76
(lp2327
g69
(g90
g71
NtRp2328
(dp2329
g74
(dp2330
sg83
g2324
sg76
(lp2331
g69
(g70
g71
NtRp2332
(dp2333
g74
(dp2334
g82
I3
ssg83
g2328
sg76
(lp2335
S'2'
asbasbasbag69
(g85
g71
NtRp2336
(dp2337
g74
(dp2338
sg83
g2296
sg76
(lp2339
g69
(g90
g71
NtRp2340
(dp2341
g74
(dp2342
sg83
g2336
sg76
(lp2343
g69
(g70
g71
NtRp2344
(dp2345
g74
(dp2346
g82
I3
ssg83
g2340
sg76
(lp2347
S'datetime.datetime(2012, 12, 17, 15, 3, 30)'
p2348
asbasbasbag69
(g85
g71
NtRp2349
(dp2350
g74
(dp2351
sg83
g2296
sg76
(lp2352
g69
(g90
g71
NtRp2353
(dp2354
g74
(dp2355
sg83
g2349
sg76
(lp2356
g69
(g70
g71
NtRp2357
(dp2358
g74
(dp2359
g82
I3
ssg83
g2353
sg76
(lp2360
g1687
asbasbasbasbasbasbasbasbasbasbasbag69
(g85
g71
NtRp2361
(dp2362
g74
(dp2363
sg83
g79
sg76
(lp2364
g69
(g90
g71
NtRp2365
(dp2366
g74
(dp2367
g94
g95
ssg83
g2361
sg76
(lp2368
S'is_https'
p2369
asbag69
(g90
g71
NtRp2370
(dp2371
g74
(dp2372
g101
g102
ssg83
g2361
sg76
(lp2373
S':'
asbag69
(g90
g71
NtRp2374
(dp2375
g74
(dp2376
sg83
g2361
sg76
(lp2377
g69
(g70
g71
NtRp2378
(dp2379
g74
(dp2380
g82
I5
ssg83
g2374
sg76
(lp2381
g112
asbasbasbag69
(g85
g71
NtRp2382
(dp2383
g74
(dp2384
sg83
g79
sg76
(lp2385
g69
(g90
g71
NtRp2386
(dp2387
g74
(dp2388
g94
g95
ssg83
g2382
sg76
(lp2389
S'is_local'
p2390
asbag69
(g90
g71
NtRp2391
(dp2392
g74
(dp2393
g101
g102
ssg83
g2382
sg76
(lp2394
S':'
asbag69
(g90
g71
NtRp2395
(dp2396
g74
(dp2397
sg83
g2382
sg76
(lp2398
g69
(g70
g71
NtRp2399
(dp2400
g74
(dp2401
g82
I5
ssg83
g2395
sg76
(lp2402
g1796
asbasbasbag69
(g85
g71
NtRp2403
(dp2404
g74
(dp2405
sg83
g79
sg76
(lp2406
g69
(g90
g71
NtRp2407
(dp2408
g74
(dp2409
g94
g95
ssg83
g2403
sg76
(lp2410
S'is_restful'
p2411
asbag69
(g90
g71
NtRp2412
(dp2413
g74
(dp2414
g101
g102
ssg83
g2403
sg76
(lp2415
S':'
asbag69
(g90
g71
NtRp2416
(dp2417
g74
(dp2418
sg83
g2403
sg76
(lp2419
g69
(g70
g71
NtRp2420
(dp2421
g74
(dp2422
g82
I5
ssg83
g2416
sg76
(lp2423
g112
asbasbasbag69
(g85
g71
NtRp2424
(dp2425
g74
(dp2426
sg83
g79
sg76
(lp2427
g69
(g90
g71
NtRp2428
(dp2429
g74
(dp2430
g94
g95
ssg83
g2424
sg76
(lp2431
S'now'
p2432
asbag69
(g90
g71
NtRp2433
(dp2434
g74
(dp2435
g101
g102
ssg83
g2424
sg76
(lp2436
S':'
asbag69
(g90
g71
NtRp2437
(dp2438
g74
(dp2439
sg83
g2424
sg76
(lp2440
g69
(g70
g71
NtRp2441
(dp2442
g74
(dp2443
g82
I5
ssg83
g2437
sg76
(lp2444
S'datetime.datetime(2013, 4, 13, 11, 55, 46, 71391)'
p2445
asbasbasbag69
(g85
g71
NtRp2446
(dp2447
g74
(dp2448
sg83
g79
sg76
(lp2449
g69
(g90
g71
NtRp2450
(dp2451
g74
(dp2452
g94
g95
ssg83
g2446
sg76
(lp2453
S'post_vars'
p2454
asbag69
(g90
g71
NtRp2455
(dp2456
g74
(dp2457
g101
g102
ssg83
g2446
sg76
(lp2458
S':'
asbag69
(g90
g71
NtRp2459
(dp2460
g74
(dp2461
sg83
g2446
sg76
(lp2462
g69
(g70
g71
NtRp2463
(dp2464
g74
(dp2465
g82
I5
ssg83
g2459
sg76
(lp2466
g69
(g78
g71
NtRp2467
(dp2468
g74
(dp2469
g82
I4
ssg83
Nsg76
(lp2470
sbasbasbasbag69
(g85
g71
NtRp2471
(dp2472
g74
(dp2473
sg83
g79
sg76
(lp2474
g69
(g90
g71
NtRp2475
(dp2476
g74
(dp2477
g94
g95
ssg83
g2471
sg76
(lp2478
S'raw_args'
p2479
asbag69
(g90
g71
NtRp2480
(dp2481
g74
(dp2482
g101
g102
ssg83
g2471
sg76
(lp2483
S':'
asbag69
(g90
g71
NtRp2484
(dp2485
g74
(dp2486
sg83
g2471
sg76
(lp2487
g69
(g70
g71
NtRp2488
(dp2489
g74
(dp2490
g82
I5
ssg83
g2484
sg76
(lp2491
g171
asbasbasbag69
(g85
g71
NtRp2492
(dp2493
g74
(dp2494
sg83
g79
sg76
(lp2495
g69
(g90
g71
NtRp2496
(dp2497
g74
(dp2498
g94
g95
ssg83
g2492
sg76
(lp2499
S'raw_extension'
p2500
asbag69
(g90
g71
NtRp2501
(dp2502
g74
(dp2503
g101
g102
ssg83
g2492
sg76
(lp2504
S':'
asbag69
(g90
g71
NtRp2505
(dp2506
g74
(dp2507
sg83
g2492
sg76
(lp2508
g69
(g70
g71
NtRp2509
(dp2510
g74
(dp2511
g82
I5
ssg83
g2505
sg76
(lp2512
S'None'
p2513
asbasbasbag69
(g85
g71
NtRp2514
(dp2515
g74
(dp2516
sg83
g79
sg76
(lp2517
g69
(g90
g71
NtRp2518
(dp2519
g74
(dp2520
g94
g95
ssg83
g2514
sg76
(lp2521
S'url'
p2522
asbag69
(g90
g71
NtRp2523
(dp2524
g74
(dp2525
g101
g102
ssg83
g2514
sg76
(lp2526
S':'
asbag69
(g90
g71
NtRp2527
(dp2528
g74
(dp2529
sg83
g2514
sg76
(lp2530
g69
(g70
g71
NtRp2531
(dp2532
g74
(dp2533
g82
I5
ssg83
g2527
sg76
(lp2534
g1361
asbasbasbag69
(g85
g71
NtRp2535
(dp2536
g74
(dp2537
sg83
g79
sg76
(lp2538
g69
(g90
g71
NtRp2539
(dp2540
g74
(dp2541
g94
g95
ssg83
g2535
sg76
(lp2542
S'utcnow'
p2543
asbag69
(g90
g71
NtRp2544
(dp2545
g74
(dp2546
g101
g102
ssg83
g2535
sg76
(lp2547
S':'
asbag69
(g90
g71
NtRp2548
(dp2549
g74
(dp2550
sg83
g2535
sg76
(lp2551
g69
(g70
g71
NtRp2552
(dp2553
g74
(dp2554
g82
I5
ssg83
g2548
sg76
(lp2555
S'datetime.datetime(2013, 4, 13, 6, 25, 46, 71415)'
p2556
asbasbasbag69
(g85
g71
NtRp2557
(dp2558
g74
(dp2559
sg83
g79
sg76
(lp2560
g69
(g90
g71
NtRp2561
(dp2562
g74
(dp2563
g94
g95
ssg83
g2557
sg76
(lp2564
S'uuid'
p2565
asbag69
(g90
g71
NtRp2566
(dp2567
g74
(dp2568
g101
g102
ssg83
g2557
sg76
(lp2569
S':'
asbag69
(g90
g71
NtRp2570
(dp2571
g74
(dp2572
sg83
g2557
sg76
(lp2573
g69
(g70
g71
NtRp2574
(dp2575
g74
(dp2576
g82
I5
ssg83
g2570
sg76
(lp2577
S'OnlineExamination/127.0.0.1.2013-04-13.11-55-46.d629045e-ff09-4c4f-a961-a7078c0e73ba'
p2578
asbasbasbag69
(g85
g71
NtRp2579
(dp2580
g74
(dp2581
sg83
g79
sg76
(lp2582
g69
(g90
g71
NtRp2583
(dp2584
g74
(dp2585
g94
g95
ssg83
g2579
sg76
(lp2586
S'vars'
p2587
asbag69
(g90
g71
NtRp2588
(dp2589
g74
(dp2590
g101
g102
ssg83
g2579
sg76
(lp2591
S':'
asbag69
(g90
g71
NtRp2592
(dp2593
g74
(dp2594
sg83
g2579
sg76
(lp2595
g69
(g70
g71
NtRp2596
(dp2597
g74
(dp2598
g82
I5
ssg83
g2592
sg76
(lp2599
g69
(g78
g71
NtRp2600
(dp2601
g74
(dp2602
g82
I4
ssg83
Nsg76
(lp2603
sbasbasbasbag69
(g85
g71
NtRp2604
(dp2605
g74
(dp2606
sg83
g79
sg76
(lp2607
g69
(g90
g71
NtRp2608
(dp2609
g74
(dp2610
g94
g95
ssg83
g2604
sg76
(lp2611
S'wsgi'
p2612
asbag69
(g90
g71
NtRp2613
(dp2614
g74
(dp2615
g101
g102
ssg83
g2604
sg76
(lp2616
S':'
asbag69
(g90
g71
NtRp2617
(dp2618
g74
(dp2619
sg83
g2604
sg76
(lp2620
g69
(g70
g71
NtRp2621
(dp2622
g74
(dp2623
g82
I5
ssg83
g2617
sg76
(lp2624
g69
(g78
g71
NtRp2625
(dp2626
g74
(dp2627
g82
I4
ssg83
Nsg76
(lp2628
g69
(g85
g71
NtRp2629
(dp2630
g74
(dp2631
sg83
g2625
sg76
(lp2632
g69
(g90
g71
NtRp2633
(dp2634
g74
(dp2635
g94
g95
ssg83
g2629
sg76
(lp2636
S'environ'
p2637
asbag69
(g90
g71
NtRp2638
(dp2639
g74
(dp2640
g101
g102
ssg83
g2629
sg76
(lp2641
S':'
asbag69
(g90
g71
NtRp2642
(dp2643
g74
(dp2644
sg83
g2629
sg76
(lp2645
g69
(g70
g71
NtRp2646
(dp2647
g74
(dp2648
g82
I4
ssg83
g2642
sg76
(lp2649
g69
(g78
g71
NtRp2650
(dp2651
g74
(dp2652
g82
I3
ssg83
Nsg76
(lp2653
g69
(g85
g71
NtRp2654
(dp2655
g74
(dp2656
sg83
g2650
sg76
(lp2657
g69
(g90
g71
NtRp2658
(dp2659
g74
(dp2660
g94
g95
ssg83
g2654
sg76
(lp2661
S'HTTP_ACCEPT'
p2662
asbag69
(g90
g71
NtRp2663
(dp2664
g74
(dp2665
g101
g102
ssg83
g2654
sg76
(lp2666
S':'
asbag69
(g90
g71
NtRp2667
(dp2668
g74
(dp2669
sg83
g2654
sg76
(lp2670
g69
(g70
g71
NtRp2671
(dp2672
g74
(dp2673
g82
I3
ssg83
g2667
sg76
(lp2674
g1053
asbasbasbag69
(g85
g71
NtRp2675
(dp2676
g74
(dp2677
sg83
g2650
sg76
(lp2678
g69
(g90
g71
NtRp2679
(dp2680
g74
(dp2681
g94
g95
ssg83
g2675
sg76
(lp2682
S'HTTP_ACCEPT_ENCODING'
p2683
asbag69
(g90
g71
NtRp2684
(dp2685
g74
(dp2686
g101
g102
ssg83
g2675
sg76
(lp2687
S':'
asbag69
(g90
g71
NtRp2688
(dp2689
g74
(dp2690
sg83
g2675
sg76
(lp2691
g69
(g70
g71
NtRp2692
(dp2693
g74
(dp2694
g82
I3
ssg83
g2688
sg76
(lp2695
g1075
asbasbasbag69
(g85
g71
NtRp2696
(dp2697
g74
(dp2698
sg83
g2650
sg76
(lp2699
g69
(g90
g71
NtRp2700
(dp2701
g74
(dp2702
g94
g95
ssg83
g2696
sg76
(lp2703
S'HTTP_ACCEPT_LANGUAGE'
p2704
asbag69
(g90
g71
NtRp2705
(dp2706
g74
(dp2707
g101
g102
ssg83
g2696
sg76
(lp2708
S':'
asbag69
(g90
g71
NtRp2709
(dp2710
g74
(dp2711
sg83
g2696
sg76
(lp2712
g69
(g70
g71
NtRp2713
(dp2714
g74
(dp2715
g82
I3
ssg83
g2709
sg76
(lp2716
g1097
asbasbasbag69
(g85
g71
NtRp2717
(dp2718
g74
(dp2719
sg83
g2650
sg76
(lp2720
g69
(g90
g71
NtRp2721
(dp2722
g74
(dp2723
g94
g95
ssg83
g2717
sg76
(lp2724
S'HTTP_CONNECTION'
p2725
asbag69
(g90
g71
NtRp2726
(dp2727
g74
(dp2728
g101
g102
ssg83
g2717
sg76
(lp2729
S':'
asbag69
(g90
g71
NtRp2730
(dp2731
g74
(dp2732
sg83
g2717
sg76
(lp2733
g69
(g70
g71
NtRp2734
(dp2735
g74
(dp2736
g82
I3
ssg83
g2730
sg76
(lp2737
g1119
asbasbasbag69
(g85
g71
NtRp2738
(dp2739
g74
(dp2740
sg83
g2650
sg76
(lp2741
g69
(g90
g71
NtRp2742
(dp2743
g74
(dp2744
g94
g95
ssg83
g2738
sg76
(lp2745
S'HTTP_COOKIE'
p2746
asbag69
(g90
g71
NtRp2747
(dp2748
g74
(dp2749
g101
g102
ssg83
g2738
sg76
(lp2750
S':'
asbag69
(g90
g71
NtRp2751
(dp2752
g74
(dp2753
sg83
g2738
sg76
(lp2754
g69
(g70
g71
NtRp2755
(dp2756
g74
(dp2757
g82
I3
ssg83
g2751
sg76
(lp2758
g1141
asbasbasbag69
(g85
g71
NtRp2759
(dp2760
g74
(dp2761
sg83
g2650
sg76
(lp2762
g69
(g90
g71
NtRp2763
(dp2764
g74
(dp2765
g94
g95
ssg83
g2759
sg76
(lp2766
S'HTTP_HOST'
p2767
asbag69
(g90
g71
NtRp2768
(dp2769
g74
(dp2770
g101
g102
ssg83
g2759
sg76
(lp2771
S':'
asbag69
(g90
g71
NtRp2772
(dp2773
g74
(dp2774
sg83
g2759
sg76
(lp2775
g69
(g70
g71
NtRp2776
(dp2777
g74
(dp2778
g82
I3
ssg83
g2772
sg76
(lp2779
g1163
asbasbasbag69
(g85
g71
NtRp2780
(dp2781
g74
(dp2782
sg83
g2650
sg76
(lp2783
g69
(g90
g71
NtRp2784
(dp2785
g74
(dp2786
g94
g95
ssg83
g2780
sg76
(lp2787
S'HTTP_REFERER'
p2788
asbag69
(g90
g71
NtRp2789
(dp2790
g74
(dp2791
g101
g102
ssg83
g2780
sg76
(lp2792
S':'
asbag69
(g90
g71
NtRp2793
(dp2794
g74
(dp2795
sg83
g2780
sg76
(lp2796
g69
(g70
g71
NtRp2797
(dp2798
g74
(dp2799
g82
I3
ssg83
g2793
sg76
(lp2800
g1185
asbasbasbag69
(g85
g71
NtRp2801
(dp2802
g74
(dp2803
sg83
g2650
sg76
(lp2804
g69
(g90
g71
NtRp2805
(dp2806
g74
(dp2807
g94
g95
ssg83
g2801
sg76
(lp2808
S'HTTP_USER_AGENT'
p2809
asbag69
(g90
g71
NtRp2810
(dp2811
g74
(dp2812
g101
g102
ssg83
g2801
sg76
(lp2813
S':'
asbag69
(g90
g71
NtRp2814
(dp2815
g74
(dp2816
sg83
g2801
sg76
(lp2817
g69
(g70
g71
NtRp2818
(dp2819
g74
(dp2820
g82
I3
ssg83
g2814
sg76
(lp2821
g1207
asbasbasbag69
(g85
g71
NtRp2822
(dp2823
g74
(dp2824
sg83
g2650
sg76
(lp2825
g69
(g90
g71
NtRp2826
(dp2827
g74
(dp2828
g94
g95
ssg83
g2822
sg76
(lp2829
S'PATH_INFO'
p2830
asbag69
(g90
g71
NtRp2831
(dp2832
g74
(dp2833
g101
g102
ssg83
g2822
sg76
(lp2834
S':'
asbag69
(g90
g71
NtRp2835
(dp2836
g74
(dp2837
sg83
g2822
sg76
(lp2838
g69
(g70
g71
NtRp2839
(dp2840
g74
(dp2841
g82
I3
ssg83
g2835
sg76
(lp2842
g1361
asbasbasbag69
(g85
g71
NtRp2843
(dp2844
g74
(dp2845
sg83
g2650
sg76
(lp2846
g69
(g90
g71
NtRp2847
(dp2848
g74
(dp2849
g94
g95
ssg83
g2843
sg76
(lp2850
S'QUERY_STRING'
p2851
asbag69
(g90
g71
NtRp2852
(dp2853
g74
(dp2854
g101
g102
ssg83
g2843
sg76
(lp2855
S':'
asbag69
(g90
g71
NtRp2856
(dp2857
g74
(dp2858
sg83
g2843
sg76
(lp2859
g69
(g70
g71
NtRp2860
(dp2861
g74
(dp2862
g82
I3
ssg83
g2856
sg76
(lp2863
g1383
asbasbasbag69
(g85
g71
NtRp2864
(dp2865
g74
(dp2866
sg83
g2650
sg76
(lp2867
g69
(g90
g71
NtRp2868
(dp2869
g74
(dp2870
g94
g95
ssg83
g2864
sg76
(lp2871
S'REMOTE_ADDR'
p2872
asbag69
(g90
g71
NtRp2873
(dp2874
g74
(dp2875
g101
g102
ssg83
g2864
sg76
(lp2876
S':'
asbag69
(g90
g71
NtRp2877
(dp2878
g74
(dp2879
sg83
g2864
sg76
(lp2880
g69
(g70
g71
NtRp2881
(dp2882
g74
(dp2883
g82
I3
ssg83
g2877
sg76
(lp2884
g237
asbasbasbag69
(g85
g71
NtRp2885
(dp2886
g74
(dp2887
sg83
g2650
sg76
(lp2888
g69
(g90
g71
NtRp2889
(dp2890
g74
(dp2891
g94
g95
ssg83
g2885
sg76
(lp2892
S'REMOTE_PORT'
p2893
asbag69
(g90
g71
NtRp2894
(dp2895
g74
(dp2896
g101
g102
ssg83
g2885
sg76
(lp2897
S':'
asbag69
(g90
g71
NtRp2898
(dp2899
g74
(dp2900
sg83
g2885
sg76
(lp2901
g69
(g70
g71
NtRp2902
(dp2903
g74
(dp2904
g82
I3
ssg83
g2898
sg76
(lp2905
g1426
asbasbasbag69
(g85
g71
NtRp2906
(dp2907
g74
(dp2908
sg83
g2650
sg76
(lp2909
g69
(g90
g71
NtRp2910
(dp2911
g74
(dp2912
g94
g95
ssg83
g2906
sg76
(lp2913
S'REQUEST_METHOD'
p2914
asbag69
(g90
g71
NtRp2915
(dp2916
g74
(dp2917
g101
g102
ssg83
g2906
sg76
(lp2918
S':'
asbag69
(g90
g71
NtRp2919
(dp2920
g74
(dp2921
sg83
g2906
sg76
(lp2922
g69
(g70
g71
NtRp2923
(dp2924
g74
(dp2925
g82
I3
ssg83
g2919
sg76
(lp2926
g1448
asbasbasbag69
(g85
g71
NtRp2927
(dp2928
g74
(dp2929
sg83
g2650
sg76
(lp2930
g69
(g90
g71
NtRp2931
(dp2932
g74
(dp2933
g94
g95
ssg83
g2927
sg76
(lp2934
S'REQUEST_URI'
p2935
asbag69
(g90
g71
NtRp2936
(dp2937
g74
(dp2938
g101
g102
ssg83
g2927
sg76
(lp2939
S':'
asbag69
(g90
g71
NtRp2940
(dp2941
g74
(dp2942
sg83
g2927
sg76
(lp2943
g69
(g70
g71
NtRp2944
(dp2945
g74
(dp2946
g82
I3
ssg83
g2940
sg76
(lp2947
g1470
asbasbasbag69
(g85
g71
NtRp2948
(dp2949
g74
(dp2950
sg83
g2650
sg76
(lp2951
g69
(g90
g71
NtRp2952
(dp2953
g74
(dp2954
g94
g95
ssg83
g2948
sg76
(lp2955
S'SCRIPT_NAME'
p2956
asbag69
(g90
g71
NtRp2957
(dp2958
g74
(dp2959
g101
g102
ssg83
g2948
sg76
(lp2960
S':'
asbag69
(g90
g71
NtRp2961
(dp2962
g74
(dp2963
sg83
g2948
sg76
(lp2964
g69
(g70
g71
NtRp2965
(dp2966
g74
(dp2967
g82
I3
ssg83
g2961
sg76
(lp2968
S''
asbasbasbag69
(g85
g71
NtRp2969
(dp2970
g74
(dp2971
sg83
g2650
sg76
(lp2972
g69
(g90
g71
NtRp2973
(dp2974
g74
(dp2975
g94
g95
ssg83
g2969
sg76
(lp2976
S'SERVER_NAME'
p2977
asbag69
(g90
g71
NtRp2978
(dp2979
g74
(dp2980
g101
g102
ssg83
g2969
sg76
(lp2981
S':'
asbag69
(g90
g71
NtRp2982
(dp2983
g74
(dp2984
sg83
g2969
sg76
(lp2985
g69
(g70
g71
NtRp2986
(dp2987
g74
(dp2988
g82
I3
ssg83
g2982
sg76
(lp2989
g1513
asbasbasbag69
(g85
g71
NtRp2990
(dp2991
g74
(dp2992
sg83
g2650
sg76
(lp2993
g69
(g90
g71
NtRp2994
(dp2995
g74
(dp2996
g94
g95
ssg83
g2990
sg76
(lp2997
S'SERVER_PORT'
p2998
asbag69
(g90
g71
NtRp2999
(dp3000
g74
(dp3001
g101
g102
ssg83
g2990
sg76
(lp3002
S':'
asbag69
(g90
g71
NtRp3003
(dp3004
g74
(dp3005
sg83
g2990
sg76
(lp3006
g69
(g70
g71
NtRp3007
(dp3008
g74
(dp3009
g82
I3
ssg83
g3003
sg76
(lp3010
g1535
asbasbasbag69
(g85
g71
NtRp3011
(dp3012
g74
(dp3013
sg83
g2650
sg76
(lp3014
g69
(g90
g71
NtRp3015
(dp3016
g74
(dp3017
g94
g95
ssg83
g3011
sg76
(lp3018
S'SERVER_PROTOCOL'
p3019
asbag69
(g90
g71
NtRp3020
(dp3021
g74
(dp3022
g101
g102
ssg83
g3011
sg76
(lp3023
S':'
asbag69
(g90
g71
NtRp3024
(dp3025
g74
(dp3026
sg83
g3011
sg76
(lp3027
g69
(g70
g71
NtRp3028
(dp3029
g74
(dp3030
g82
I3
ssg83
g3024
sg76
(lp3031
g1557
asbasbasbag69
(g85
g71
NtRp3032
(dp3033
g74
(dp3034
sg83
g2650
sg76
(lp3035
g69
(g90
g71
NtRp3036
(dp3037
g74
(dp3038
g94
g95
ssg83
g3032
sg76
(lp3039
S'SERVER_SOFTWARE'
p3040
asbag69
(g90
g71
NtRp3041
(dp3042
g74
(dp3043
g101
g102
ssg83
g3032
sg76
(lp3044
S':'
asbag69
(g90
g71
NtRp3045
(dp3046
g74
(dp3047
sg83
g3032
sg76
(lp3048
g69
(g70
g71
NtRp3049
(dp3050
g74
(dp3051
g82
I3
ssg83
g3045
sg76
(lp3052
g1579
asbasbasbag69
(g85
g71
NtRp3053
(dp3054
g74
(dp3055
sg83
g2650
sg76
(lp3056
g69
(g90
g71
NtRp3057
(dp3058
g74
(dp3059
g94
g95
ssg83
g3053
sg76
(lp3060
S'wsgi.errors'
p3061
asbag69
(g90
g71
NtRp3062
(dp3063
g74
(dp3064
g101
g102
ssg83
g3053
sg76
(lp3065
S':'
asbag69
(g90
g71
NtRp3066
(dp3067
g74
(dp3068
sg83
g3053
sg76
(lp3069
g69
(g70
g71
NtRp3070
(dp3071
g74
(dp3072
g82
I3
ssg83
g3066
sg76
(lp3073
S"<open file '<stderr>', mode 'w' at 0x7f253778a270>"
p3074
asbasbasbag69
(g85
g71
NtRp3075
(dp3076
g74
(dp3077
sg83
g2650
sg76
(lp3078
g69
(g90
g71
NtRp3079
(dp3080
g74
(dp3081
g94
g95
ssg83
g3075
sg76
(lp3082
S'wsgi.file_wrapper'
p3083
asbag69
(g90
g71
NtRp3084
(dp3085
g74
(dp3086
g101
g102
ssg83
g3075
sg76
(lp3087
S':'
asbag69
(g90
g71
NtRp3088
(dp3089
g74
(dp3090
sg83
g3075
sg76
(lp3091
g69
(g70
g71
NtRp3092
(dp3093
g74
(dp3094
g82
I3
ssg83
g3088
sg76
(lp3095
S'<class wsgiref.util.FileWrapper at 0x3231c18>'
p3096
asbasbasbag69
(g85
g71
NtRp3097
(dp3098
g74
(dp3099
sg83
g2650
sg76
(lp3100
g69
(g90
g71
NtRp3101
(dp3102
g74
(dp3103
g94
g95
ssg83
g3097
sg76
(lp3104
S'wsgi.input'
p3105
asbag69
(g90
g71
NtRp3106
(dp3107
g74
(dp3108
g101
g102
ssg83
g3097
sg76
(lp3109
S':'
asbag69
(g90
g71
NtRp3110
(dp3111
g74
(dp3112
sg83
g3097
sg76
(lp3113
g69
(g70
g71
NtRp3114
(dp3115
g74
(dp3116
g82
I3
ssg83
g3110
sg76
(lp3117
S'<cStringIO.StringO object at 0x7f25043a2ca8>'
p3118
asbasbasbag69
(g85
g71
NtRp3119
(dp3120
g74
(dp3121
sg83
g2650
sg76
(lp3122
g69
(g90
g71
NtRp3123
(dp3124
g74
(dp3125
g94
g95
ssg83
g3119
sg76
(lp3126
S'wsgi.multiprocess'
p3127
asbag69
(g90
g71
NtRp3128
(dp3129
g74
(dp3130
g101
g102
ssg83
g3119
sg76
(lp3131
S':'
asbag69
(g90
g71
NtRp3132
(dp3133
g74
(dp3134
sg83
g3119
sg76
(lp3135
g69
(g70
g71
NtRp3136
(dp3137
g74
(dp3138
g82
I3
ssg83
g3132
sg76
(lp3139
g112
asbasbasbag69
(g85
g71
NtRp3140
(dp3141
g74
(dp3142
sg83
g2650
sg76
(lp3143
g69
(g90
g71
NtRp3144
(dp3145
g74
(dp3146
g94
g95
ssg83
g3140
sg76
(lp3147
S'wsgi.multithread'
p3148
asbag69
(g90
g71
NtRp3149
(dp3150
g74
(dp3151
g101
g102
ssg83
g3140
sg76
(lp3152
S':'
asbag69
(g90
g71
NtRp3153
(dp3154
g74
(dp3155
sg83
g3140
sg76
(lp3156
g69
(g70
g71
NtRp3157
(dp3158
g74
(dp3159
g82
I3
ssg83
g3153
sg76
(lp3160
g1796
asbasbasbag69
(g85
g71
NtRp3161
(dp3162
g74
(dp3163
sg83
g2650
sg76
(lp3164
g69
(g90
g71
NtRp3165
(dp3166
g74
(dp3167
g94
g95
ssg83
g3161
sg76
(lp3168
S'wsgi.run_once'
p3169
asbag69
(g90
g71
NtRp3170
(dp3171
g74
(dp3172
g101
g102
ssg83
g3161
sg76
(lp3173
S':'
asbag69
(g90
g71
NtRp3174
(dp3175
g74
(dp3176
sg83
g3161
sg76
(lp3177
g69
(g70
g71
NtRp3178
(dp3179
g74
(dp3180
g82
I3
ssg83
g3174
sg76
(lp3181
g112
asbasbasbag69
(g85
g71
NtRp3182
(dp3183
g74
(dp3184
sg83
g2650
sg76
(lp3185
g69
(g90
g71
NtRp3186
(dp3187
g74
(dp3188
g94
g95
ssg83
g3182
sg76
(lp3189
S'wsgi.url_scheme'
p3190
asbag69
(g90
g71
NtRp3191
(dp3192
g74
(dp3193
g101
g102
ssg83
g3182
sg76
(lp3194
S':'
asbag69
(g90
g71
NtRp3195
(dp3196
g74
(dp3197
sg83
g3182
sg76
(lp3198
g69
(g70
g71
NtRp3199
(dp3200
g74
(dp3201
g82
I3
ssg83
g3195
sg76
(lp3202
g1839
asbasbasbag69
(g85
g71
NtRp3203
(dp3204
g74
(dp3205
sg83
g2650
sg76
(lp3206
g69
(g90
g71
NtRp3207
(dp3208
g74
(dp3209
g94
g95
ssg83
g3203
sg76
(lp3210
S'wsgi.version'
p3211
asbag69
(g90
g71
NtRp3212
(dp3213
g74
(dp3214
g101
g102
ssg83
g3203
sg76
(lp3215
S':'
asbag69
(g90
g71
NtRp3216
(dp3217
g74
(dp3218
sg83
g3203
sg76
(lp3219
g69
(g70
g71
NtRp3220
(dp3221
g74
(dp3222
g82
I3
ssg83
g3216
sg76
(lp3223
S'1'
asbasbasbasbasbasbasbasbasbasbasbasbasbsS'frames'
p3224
(lp3225
(dp3226
S'file'
p3227
S'/home/saurabh/web2py/gluon/restricted.py'
p3228
sS'dump'
p3229
(dp3230
S'code'
p3231
S"'# -*- coding: utf-8 -*-\\n# this file is released ...orm=form)\\n\\nresponse._vars=response._caller(user)\\n'"
p3232
sS'layer'
p3233
S"'/home/saurabh/web2py/applications/OnlineExamination/controllers/default.py'"
p3234
sS'global compile2'
p3235
S'<function compile2>'
p3236
sS'ccode'
p3237
S'undefined'
p3238
ssS'lnum'
p3239
I211
sS'lines'
p3240
(dp3241
I206
S"    environment['__name__'] = '__restricted__'"
p3242
sI207
S'    try:'
p3243
sI208
S'        if isinstance(code, types.CodeType):'
p3244
sI209
S'            ccode = code'
p3245
sI210
S'        else:'
p3246
sI211
S'            ccode = compile2(code, layer)'
p3247
sI212
S'        exec ccode in environment'
p3248
sI213
S'    except HTTP:'
p3249
sI214
S'        raise'
p3250
sI215
S'    except RestrictedError:'
p3251
ssS'call'
p3252
S"(code='# -*- coding: utf-8 -*-\\n# this file is released ...orm=form)\\n\\nresponse._vars=response._caller(user)\\n', environment={'A': <class 'gluon.html.A'>, 'Auth': <class 'gluon.tools.Auth'>, 'B': <class 'gluon.html.B'>, 'BEAUTIFY': <class 'gluon.html.BEAUTIFY'>, 'BODY': <class 'gluon.html.BODY'>, 'BR': <class 'gluon.html.BR'>, 'BUTTON': <class 'gluon.html.BUTTON'>, 'CAT': <class 'gluon.html.CAT'>, 'CENTER': <class 'gluon.html.CENTER'>, 'CLEANUP': <class 'gluon.validators.CLEANUP'>, ...}, layer='/home/saurabh/web2py/applications/OnlineExamination/controllers/default.py')"
p3253
sS'func'
p3254
S'restricted'
p3255
sa(dp3256
g3227
S'/home/saurabh/web2py/gluon/restricted.py'
p3257
sg3229
(dp3258
S'builtincompile'
p3259
S'<built-in function compile>'
p3260
sS'code'
p3261
S"'# -*- coding: utf-8 -*-\\n# this file is released ...orm=form)\\n\\nresponse._vars=response._caller(user)\\n'"
p3262
sS'code.rstrip'
p3263
S'<built-in method rstrip of str object>'
p3264
sS').replace'
p3265
g3238
sS'layer'
p3266
S"'/home/saurabh/web2py/applications/OnlineExamination/controllers/default.py'"
p3267
ssg3239
I194
sg3240
(dp3268
I192
S"    The +'\\n' is necessary else compile fails when code ends in a comment."
p3269
sI193
S'    """'
p3270
sI194
S"    return compile(code.rstrip().replace('\\r\\n', '\\n') + '\\n', layer, 'exec')"
p3271
sI195
S''
sI196
S''
sI197
S"def restricted(code, environment=None, layer='Unknown'):"
p3272
sI198
S'    """'
p3273
sI189
S''
sI190
S'def compile2(code, layer):'
p3274
sI191
S'    """'
p3275
ssg3252
S"(code='# -*- coding: utf-8 -*-\\n# this file is released ...orm=form)\\n\\nresponse._vars=response._caller(user)\\n', layer='/home/saurabh/web2py/applications/OnlineExamination/controllers/default.py')"
p3276
sg3254
S'compile2'
p3277
sasS'pyver'
p3278
S'Python 2.7.3: /usr/bin/python'
p3279
sS'session'
p3280
g69
(g70
g71
NtRp3281
(dp3282
g74
(dp3283
sg76
(lp3284
g69
(g78
g71
NtRp3285
(dp3286
g74
(dp3287
g82
I5
ssg83
Nsg76
(lp3288
g69
(g85
g71
NtRp3289
(dp3290
g74
(dp3291
sg83
g3285
sg76
(lp3292
g69
(g90
g71
NtRp3293
(dp3294
g74
(dp3295
g94
g95
ssg83
g3289
sg76
(lp3296
S'auth'
p3297
asbag69
(g90
g71
NtRp3298
(dp3299
g74
(dp3300
g101
g102
ssg83
g3289
sg76
(lp3301
S':'
asbag69
(g90
g71
NtRp3302
(dp3303
g74
(dp3304
sg83
g3289
sg76
(lp3305
g69
(g70
g71
NtRp3306
(dp3307
g74
(dp3308
g82
I5
ssg83
g3302
sg76
(lp3309
g69
(g78
g71
NtRp3310
(dp3311
g74
(dp3312
g82
I4
ssg83
Nsg76
(lp3313
g69
(g85
g71
NtRp3314
(dp3315
g74
(dp3316
sg83
g3310
sg76
(lp3317
g69
(g90
g71
NtRp3318
(dp3319
g74
(dp3320
g94
g95
ssg83
g3314
sg76
(lp3321
S'expiration'
p3322
asbag69
(g90
g71
NtRp3323
(dp3324
g74
(dp3325
g101
g102
ssg83
g3314
sg76
(lp3326
S':'
asbag69
(g90
g71
NtRp3327
(dp3328
g74
(dp3329
sg83
g3314
sg76
(lp3330
g69
(g70
g71
NtRp3331
(dp3332
g74
(dp3333
g82
I4
ssg83
g3327
sg76
(lp3334
S'3600'
p3335
asbasbasbag69
(g85
g71
NtRp3336
(dp3337
g74
(dp3338
sg83
g3310
sg76
(lp3339
g69
(g90
g71
NtRp3340
(dp3341
g74
(dp3342
g94
g95
ssg83
g3336
sg76
(lp3343
S'hmac_key'
p3344
asbag69
(g90
g71
NtRp3345
(dp3346
g74
(dp3347
g101
g102
ssg83
g3336
sg76
(lp3348
S':'
asbag69
(g90
g71
NtRp3349
(dp3350
g74
(dp3351
sg83
g3336
sg76
(lp3352
g69
(g70
g71
NtRp3353
(dp3354
g74
(dp3355
g82
I4
ssg83
g3349
sg76
(lp3356
S'87f90944-9400-4b77-81a1-cb3ca90136f1'
p3357
asbasbasbag69
(g85
g71
NtRp3358
(dp3359
g74
(dp3360
sg83
g3310
sg76
(lp3361
g69
(g90
g71
NtRp3362
(dp3363
g74
(dp3364
g94
g95
ssg83
g3358
sg76
(lp3365
S'last_visit'
p3366
asbag69
(g90
g71
NtRp3367
(dp3368
g74
(dp3369
g101
g102
ssg83
g3358
sg76
(lp3370
S':'
asbag69
(g90
g71
NtRp3371
(dp3372
g74
(dp3373
sg83
g3358
sg76
(lp3374
g69
(g70
g71
NtRp3375
(dp3376
g74
(dp3377
g82
I4
ssg83
g3371
sg76
(lp3378
S'datetime.datetime(2013, 4, 13, 11, 54, 12, 94512)'
p3379
asbasbasbag69
(g85
g71
NtRp3380
(dp3381
g74
(dp3382
sg83
g3310
sg76
(lp3383
g69
(g90
g71
NtRp3384
(dp3385
g74
(dp3386
g94
g95
ssg83
g3380
sg76
(lp3387
S'remember'
p3388
asbag69
(g90
g71
NtRp3389
(dp3390
g74
(dp3391
g101
g102
ssg83
g3380
sg76
(lp3392
S':'
asbag69
(g90
g71
NtRp3393
(dp3394
g74
(dp3395
sg83
g3380
sg76
(lp3396
g69
(g70
g71
NtRp3397
(dp3398
g74
(dp3399
g82
I4
ssg83
g3393
sg76
(lp3400
g112
asbasbasbag69
(g85
g71
NtRp3401
(dp3402
g74
(dp3403
sg83
g3310
sg76
(lp3404
g69
(g90
g71
NtRp3405
(dp3406
g74
(dp3407
g94
g95
ssg83
g3401
sg76
(lp3408
S'user'
p3409
asbag69
(g90
g71
NtRp3410
(dp3411
g74
(dp3412
g101
g102
ssg83
g3401
sg76
(lp3413
S':'
asbag69
(g90
g71
NtRp3414
(dp3415
g74
(dp3416
sg83
g3401
sg76
(lp3417
g69
(g70
g71
NtRp3418
(dp3419
g74
(dp3420
g82
I4
ssg83
g3414
sg76
(lp3421
g69
(g78
g71
NtRp3422
(dp3423
g74
(dp3424
g82
I3
ssg83
Nsg76
(lp3425
g69
(g85
g71
NtRp3426
(dp3427
g74
(dp3428
sg83
g3422
sg76
(lp3429
g69
(g90
g71
NtRp3430
(dp3431
g74
(dp3432
g94
g95
ssg83
g3426
sg76
(lp3433
S'email'
p3434
asbag69
(g90
g71
NtRp3435
(dp3436
g74
(dp3437
g101
g102
ssg83
g3426
sg76
(lp3438
S':'
asbag69
(g90
g71
NtRp3439
(dp3440
g74
(dp3441
sg83
g3426
sg76
(lp3442
g69
(g70
g71
NtRp3443
(dp3444
g74
(dp3445
g82
I3
ssg83
g3439
sg76
(lp3446
S'amit@gmail.com'
p3447
asbasbasbag69
(g85
g71
NtRp3448
(dp3449
g74
(dp3450
sg83
g3422
sg76
(lp3451
g69
(g90
g71
NtRp3452
(dp3453
g74
(dp3454
g94
g95
ssg83
g3448
sg76
(lp3455
S'first_name'
p3456
asbag69
(g90
g71
NtRp3457
(dp3458
g74
(dp3459
g101
g102
ssg83
g3448
sg76
(lp3460
S':'
asbag69
(g90
g71
NtRp3461
(dp3462
g74
(dp3463
sg83
g3448
sg76
(lp3464
g69
(g70
g71
NtRp3465
(dp3466
g74
(dp3467
g82
I3
ssg83
g3461
sg76
(lp3468
S'Amit'
p3469
asbasbasbag69
(g85
g71
NtRp3470
(dp3471
g74
(dp3472
sg83
g3422
sg76
(lp3473
g69
(g90
g71
NtRp3474
(dp3475
g74
(dp3476
g94
g95
ssg83
g3470
sg76
(lp3477
S'id'
p3478
asbag69
(g90
g71
NtRp3479
(dp3480
g74
(dp3481
g101
g102
ssg83
g3470
sg76
(lp3482
S':'
asbag69
(g90
g71
NtRp3483
(dp3484
g74
(dp3485
sg83
g3470
sg76
(lp3486
g69
(g70
g71
NtRp3487
(dp3488
g74
(dp3489
g82
I3
ssg83
g3483
sg76
(lp3490
S'25'
p3491
asbasbasbag69
(g85
g71
NtRp3492
(dp3493
g74
(dp3494
sg83
g3422
sg76
(lp3495
g69
(g90
g71
NtRp3496
(dp3497
g74
(dp3498
g94
g95
ssg83
g3492
sg76
(lp3499
S'last_name'
p3500
asbag69
(g90
g71
NtRp3501
(dp3502
g74
(dp3503
g101
g102
ssg83
g3492
sg76
(lp3504
S':'
asbag69
(g90
g71
NtRp3505
(dp3506
g74
(dp3507
sg83
g3492
sg76
(lp3508
g69
(g70
g71
NtRp3509
(dp3510
g74
(dp3511
g82
I3
ssg83
g3505
sg76
(lp3512
S'Jha'
p3513
asbasbasbag69
(g85
g71
NtRp3514
(dp3515
g74
(dp3516
sg83
g3422
sg76
(lp3517
g69
(g90
g71
NtRp3518
(dp3519
g74
(dp3520
g94
g95
ssg83
g3514
sg76
(lp3521
S'registration_id'
p3522
asbag69
(g90
g71
NtRp3523
(dp3524
g74
(dp3525
g101
g102
ssg83
g3514
sg76
(lp3526
S':'
asbag69
(g90
g71
NtRp3527
(dp3528
g74
(dp3529
sg83
g3514
sg76
(lp3530
g69
(g70
g71
NtRp3531
(dp3532
g74
(dp3533
g82
I3
ssg83
g3527
sg76
(lp3534
S''
asbasbasbag69
(g85
g71
NtRp3535
(dp3536
g74
(dp3537
sg83
g3422
sg76
(lp3538
g69
(g90
g71
NtRp3539
(dp3540
g74
(dp3541
g94
g95
ssg83
g3535
sg76
(lp3542
S'registration_key'
p3543
asbag69
(g90
g71
NtRp3544
(dp3545
g74
(dp3546
g101
g102
ssg83
g3535
sg76
(lp3547
S':'
asbag69
(g90
g71
NtRp3548
(dp3549
g74
(dp3550
sg83
g3535
sg76
(lp3551
g69
(g70
g71
NtRp3552
(dp3553
g74
(dp3554
g82
I3
ssg83
g3548
sg76
(lp3555
S''
asbasbasbag69
(g85
g71
NtRp3556
(dp3557
g74
(dp3558
sg83
g3422
sg76
(lp3559
g69
(g90
g71
NtRp3560
(dp3561
g74
(dp3562
g94
g95
ssg83
g3556
sg76
(lp3563
S'reset_password_key'
p3564
asbag69
(g90
g71
NtRp3565
(dp3566
g74
(dp3567
g101
g102
ssg83
g3556
sg76
(lp3568
S':'
asbag69
(g90
g71
NtRp3569
(dp3570
g74
(dp3571
sg83
g3556
sg76
(lp3572
g69
(g70
g71
NtRp3573
(dp3574
g74
(dp3575
g82
I3
ssg83
g3569
sg76
(lp3576
S''
asbasbasbasbasbasbasbag69
(g85
g71
NtRp3577
(dp3578
g74
(dp3579
sg83
g3310
sg76
(lp3580
g69
(g90
g71
NtRp3581
(dp3582
g74
(dp3583
g94
g95
ssg83
g3577
sg76
(lp3584
S'user_groups'
p3585
asbag69
(g90
g71
NtRp3586
(dp3587
g74
(dp3588
g101
g102
ssg83
g3577
sg76
(lp3589
S':'
asbag69
(g90
g71
NtRp3590
(dp3591
g74
(dp3592
sg83
g3577
sg76
(lp3593
g69
(g70
g71
NtRp3594
(dp3595
g74
(dp3596
g82
I4
ssg83
g3590
sg76
(lp3597
g69
(g78
g71
NtRp3598
(dp3599
g74
(dp3600
g82
I3
ssg83
Nsg76
(lp3601
g69
(g85
g71
NtRp3602
(dp3603
g74
(dp3604
sg83
g3598
sg76
(lp3605
g69
(g90
g71
NtRp3606
(dp3607
g74
(dp3608
g94
g95
ssg83
g3602
sg76
(lp3609
S'26'
p3610
asbag69
(g90
g71
NtRp3611
(dp3612
g74
(dp3613
g101
g102
ssg83
g3602
sg76
(lp3614
S':'
asbag69
(g90
g71
NtRp3615
(dp3616
g74
(dp3617
sg83
g3602
sg76
(lp3618
g69
(g70
g71
NtRp3619
(dp3620
g74
(dp3621
g82
I3
ssg83
g3615
sg76
(lp3622
S'user_25'
p3623
asbasbasbasbasbasbasbasbasbasbasbag69
(g85
g71
NtRp3624
(dp3625
g74
(dp3626
sg83
g3285
sg76
(lp3627
g69
(g90
g71
NtRp3628
(dp3629
g74
(dp3630
g94
g95
ssg83
g3624
sg76
(lp3631
S'flash'
p3632
asbag69
(g90
g71
NtRp3633
(dp3634
g74
(dp3635
g101
g102
ssg83
g3624
sg76
(lp3636
S':'
asbag69
(g90
g71
NtRp3637
(dp3638
g74
(dp3639
sg83
g3624
sg76
(lp3640
g69
(g70
g71
NtRp3641
(dp3642
g74
(dp3643
g82
I5
ssg83
g3637
sg76
(lp3644
S'None'
p3645
asbasbasbag69
(g85
g71
NtRp3646
(dp3647
g74
(dp3648
sg83
g3285
sg76
(lp3649
g69
(g90
g71
NtRp3650
(dp3651
g74
(dp3652
g94
g95
ssg83
g3646
sg76
(lp3653
S'last_orderby'
p3654
asbag69
(g90
g71
NtRp3655
(dp3656
g74
(dp3657
g101
g102
ssg83
g3646
sg76
(lp3658
S':'
asbag69
(g90
g71
NtRp3659
(dp3660
g74
(dp3661
sg83
g3646
sg76
(lp3662
g69
(g70
g71
NtRp3663
(dp3664
g74
(dp3665
g82
I5
ssg83
g3659
sg76
(lp3666
S'None'
p3667
asbasbasbag69
(g85
g71
NtRp3668
(dp3669
g74
(dp3670
sg83
g3285
sg76
(lp3671
g69
(g90
g71
NtRp3672
(dp3673
g74
(dp3674
g94
g95
ssg83
g3668
sg76
(lp3675
S'last_query'
p3676
asbag69
(g90
g71
NtRp3677
(dp3678
g74
(dp3679
g101
g102
ssg83
g3668
sg76
(lp3680
S':'
asbag69
(g90
g71
NtRp3681
(dp3682
g74
(dp3683
sg83
g3668
sg76
(lp3684
g69
(g70
g71
NtRp3685
(dp3686
g74
(dp3687
g82
I5
ssg83
g3681
sg76
(lp3688
S'db.student.id>0'
p3689
asbasbasbasbasbsS'etype'
p3690
S"<type 'exceptions.IndentationError'>"
p3691
sS'date'
p3692
S'Sat Apr 13 11:55:46 2013'
p3693
sS'response'
p3694
g69
(g70
g71
NtRp3695
(dp3696
g74
(dp3697
sg76
(lp3698
g69
(g78
g71
NtRp3699
(dp3700
g74
(dp3701
g82
I5
ssg83
Nsg76
(lp3702
g69
(g85
g71
NtRp3703
(dp3704
g74
(dp3705
sg83
g3699
sg76
(lp3706
g69
(g90
g71
NtRp3707
(dp3708
g74
(dp3709
g94
g95
ssg83
g3703
sg76
(lp3710
g180
asbag69
(g90
g71
NtRp3711
(dp3712
g74
(dp3713
g101
g102
ssg83
g3703
sg76
(lp3714
S':'
asbag69
(g90
g71
NtRp3715
(dp3716
g74
(dp3717
sg83
g3703
sg76
(lp3718
g69
(g70
g71
NtRp3719
(dp3720
g74
(dp3721
g82
I5
ssg83
g3715
sg76
(lp3722
S'<cStringIO.StringO object at 0x7f2504196a08>'
p3723
asbasbasbag69
(g85
g71
NtRp3724
(dp3725
g74
(dp3726
sg83
g3699
sg76
(lp3727
g69
(g90
g71
NtRp3728
(dp3729
g74
(dp3730
g94
g95
ssg83
g3724
sg76
(lp3731
g268
asbag69
(g90
g71
NtRp3732
(dp3733
g74
(dp3734
g101
g102
ssg83
g3724
sg76
(lp3735
S':'
asbag69
(g90
g71
NtRp3736
(dp3737
g74
(dp3738
sg83
g3724
sg76
(lp3739
g69
(g70
g71
NtRp3740
(dp3741
g74
(dp3742
g82
I5
ssg83
g3736
sg76
(lp3743
g69
(g78
g71
NtRp3744
(dp3745
g74
(dp3746
g82
I4
ssg83
Nsg76
(lp3747
g69
(g85
g71
NtRp3748
(dp3749
g74
(dp3750
sg83
g3744
sg76
(lp3751
g69
(g90
g71
NtRp3752
(dp3753
g74
(dp3754
g94
g95
ssg83
g3748
sg76
(lp3755
S'session_id_onlineexamination'
p3756
asbag69
(g90
g71
NtRp3757
(dp3758
g74
(dp3759
g101
g102
ssg83
g3748
sg76
(lp3760
S':'
asbag69
(g90
g71
NtRp3761
(dp3762
g74
(dp3763
sg83
g3748
sg76
(lp3764
g69
(g70
g71
NtRp3765
(dp3766
g74
(dp3767
g82
I4
ssg83
g3761
sg76
(lp3768
g500
ag69
(g78
g71
NtRp3769
(dp3770
g74
(dp3771
g82
I3
ssg83
Nsg76
(lp3772
g69
(g85
g71
NtRp3773
(dp3774
g74
(dp3775
sg83
g3769
sg76
(lp3776
g69
(g90
g71
NtRp3777
(dp3778
g74
(dp3779
g94
g95
ssg83
g3773
sg76
(lp3780
g319
asbag69
(g90
g71
NtRp3781
(dp3782
g74
(dp3783
g101
g102
ssg83
g3773
sg76
(lp3784
S':'
asbag69
(g90
g71
NtRp3785
(dp3786
g74
(dp3787
sg83
g3773
sg76
(lp3788
g69
(g70
g71
NtRp3789
(dp3790
g74
(dp3791
g82
I3
ssg83
g3785
sg76
(lp3792
S''
asbasbasbag69
(g85
g71
NtRp3793
(dp3794
g74
(dp3795
sg83
g3769
sg76
(lp3796
g69
(g90
g71
NtRp3797
(dp3798
g74
(dp3799
g94
g95
ssg83
g3793
sg76
(lp3800
g340
asbag69
(g90
g71
NtRp3801
(dp3802
g74
(dp3803
g101
g102
ssg83
g3793
sg76
(lp3804
S':'
asbag69
(g90
g71
NtRp3805
(dp3806
g74
(dp3807
sg83
g3793
sg76
(lp3808
g69
(g70
g71
NtRp3809
(dp3810
g74
(dp3811
g82
I3
ssg83
g3805
sg76
(lp3812
S''
asbasbasbag69
(g85
g71
NtRp3813
(dp3814
g74
(dp3815
sg83
g3769
sg76
(lp3816
g69
(g90
g71
NtRp3817
(dp3818
g74
(dp3819
g94
g95
ssg83
g3813
sg76
(lp3820
g361
asbag69
(g90
g71
NtRp3821
(dp3822
g74
(dp3823
g101
g102
ssg83
g3813
sg76
(lp3824
S':'
asbag69
(g90
g71
NtRp3825
(dp3826
g74
(dp3827
sg83
g3813
sg76
(lp3828
g69
(g70
g71
NtRp3829
(dp3830
g74
(dp3831
g82
I3
ssg83
g3825
sg76
(lp3832
S''
asbasbasbag69
(g85
g71
NtRp3833
(dp3834
g74
(dp3835
sg83
g3769
sg76
(lp3836
g69
(g90
g71
NtRp3837
(dp3838
g74
(dp3839
g94
g95
ssg83
g3833
sg76
(lp3840
g382
asbag69
(g90
g71
NtRp3841
(dp3842
g74
(dp3843
g101
g102
ssg83
g3833
sg76
(lp3844
S':'
asbag69
(g90
g71
NtRp3845
(dp3846
g74
(dp3847
sg83
g3833
sg76
(lp3848
g69
(g70
g71
NtRp3849
(dp3850
g74
(dp3851
g82
I3
ssg83
g3845
sg76
(lp3852
S''
asbasbasbag69
(g85
g71
NtRp3853
(dp3854
g74
(dp3855
sg83
g3769
sg76
(lp3856
g69
(g90
g71
NtRp3857
(dp3858
g74
(dp3859
g94
g95
ssg83
g3853
sg76
(lp3860
g403
asbag69
(g90
g71
NtRp3861
(dp3862
g74
(dp3863
g101
g102
ssg83
g3853
sg76
(lp3864
S':'
asbag69
(g90
g71
NtRp3865
(dp3866
g74
(dp3867
sg83
g3853
sg76
(lp3868
g69
(g70
g71
NtRp3869
(dp3870
g74
(dp3871
g82
I3
ssg83
g3865
sg76
(lp3872
S''
asbasbasbag69
(g85
g71
NtRp3873
(dp3874
g74
(dp3875
sg83
g3769
sg76
(lp3876
g69
(g90
g71
NtRp3877
(dp3878
g74
(dp3879
g94
g95
ssg83
g3873
sg76
(lp3880
g424
asbag69
(g90
g71
NtRp3881
(dp3882
g74
(dp3883
g101
g102
ssg83
g3873
sg76
(lp3884
S':'
asbag69
(g90
g71
NtRp3885
(dp3886
g74
(dp3887
sg83
g3873
sg76
(lp3888
g69
(g70
g71
NtRp3889
(dp3890
g74
(dp3891
g82
I3
ssg83
g3885
sg76
(lp3892
S'/'
asbasbasbag69
(g85
g71
NtRp3893
(dp3894
g74
(dp3895
sg83
g3769
sg76
(lp3896
g69
(g90
g71
NtRp3897
(dp3898
g74
(dp3899
g94
g95
ssg83
g3893
sg76
(lp3900
g445
asbag69
(g90
g71
NtRp3901
(dp3902
g74
(dp3903
g101
g102
ssg83
g3893
sg76
(lp3904
S':'
asbag69
(g90
g71
NtRp3905
(dp3906
g74
(dp3907
sg83
g3893
sg76
(lp3908
g69
(g70
g71
NtRp3909
(dp3910
g74
(dp3911
g82
I3
ssg83
g3905
sg76
(lp3912
S''
asbasbasbag69
(g85
g71
NtRp3913
(dp3914
g74
(dp3915
sg83
g3769
sg76
(lp3916
g69
(g90
g71
NtRp3917
(dp3918
g74
(dp3919
g94
g95
ssg83
g3913
sg76
(lp3920
g466
asbag69
(g90
g71
NtRp3921
(dp3922
g74
(dp3923
g101
g102
ssg83
g3913
sg76
(lp3924
S':'
asbag69
(g90
g71
NtRp3925
(dp3926
g74
(dp3927
sg83
g3913
sg76
(lp3928
g69
(g70
g71
NtRp3929
(dp3930
g74
(dp3931
g82
I3
ssg83
g3925
sg76
(lp3932
S''
asbasbasbasbasbasbasbasbasbasbasbag69
(g85
g71
NtRp3933
(dp3934
g74
(dp3935
sg83
g3699
sg76
(lp3936
g69
(g90
g71
NtRp3937
(dp3938
g74
(dp3939
g94
g95
ssg83
g3933
sg76
(lp3940
S'delimiters'
p3941
asbag69
(g90
g71
NtRp3942
(dp3943
g74
(dp3944
g101
g102
ssg83
g3933
sg76
(lp3945
S':'
asbag69
(g90
g71
NtRp3946
(dp3947
g74
(dp3948
sg83
g3933
sg76
(lp3949
g69
(g70
g71
NtRp3950
(dp3951
g74
(dp3952
g82
I5
ssg83
g3946
sg76
(lp3953
g69
(g78
g71
NtRp3954
(dp3955
g74
(dp3956
g82
I4
ssg83
Nsg76
(lp3957
g69
(g85
g71
NtRp3958
(dp3959
g74
(dp3960
sg83
g3954
sg76
(lp3961
g69
(g90
g71
NtRp3962
(dp3963
g74
(dp3964
sg83
g3958
sg76
(lp3965
g69
(g70
g71
NtRp3966
(dp3967
g74
(dp3968
g82
I4
ssg83
g3962
sg76
(lp3969
S'{{'
p3970
asbasbasbag69
(g85
g71
NtRp3971
(dp3972
g74
(dp3973
sg83
g3954
sg76
(lp3974
g69
(g90
g71
NtRp3975
(dp3976
g74
(dp3977
sg83
g3971
sg76
(lp3978
g69
(g70
g71
NtRp3979
(dp3980
g74
(dp3981
g82
I4
ssg83
g3975
sg76
(lp3982
S'}}'
p3983
asbasbasbasbasbasbasbag69
(g85
g71
NtRp3984
(dp3985
g74
(dp3986
sg83
g3699
sg76
(lp3987
g69
(g90
g71
NtRp3988
(dp3989
g74
(dp3990
g94
g95
ssg83
g3984
sg76
(lp3991
S'files'
p3992
asbag69
(g90
g71
NtRp3993
(dp3994
g74
(dp3995
g101
g102
ssg83
g3984
sg76
(lp3996
S':'
asbag69
(g90
g71
NtRp3997
(dp3998
g74
(dp3999
sg83
g3984
sg76
(lp4000
g69
(g70
g71
NtRp4001
(dp4002
g74
(dp4003
g82
I5
ssg83
g3997
sg76
(lp4004
g69
(g78
g71
NtRp4005
(dp4006
g74
(dp4007
g82
I4
ssg83
Nsg76
(lp4008
sbasbasbasbag69
(g85
g71
NtRp4009
(dp4010
g74
(dp4011
sg83
g3699
sg76
(lp4012
g69
(g90
g71
NtRp4013
(dp4014
g74
(dp4015
g94
g95
ssg83
g4009
sg76
(lp4016
S'flash'
p4017
asbag69
(g90
g71
NtRp4018
(dp4019
g74
(dp4020
g101
g102
ssg83
g4009
sg76
(lp4021
S':'
asbag69
(g90
g71
NtRp4022
(dp4023
g74
(dp4024
sg83
g4009
sg76
(lp4025
g69
(g70
g71
NtRp4026
(dp4027
g74
(dp4028
g82
I5
ssg83
g4022
sg76
(lp4029
S''
asbasbasbag69
(g85
g71
NtRp4030
(dp4031
g74
(dp4032
sg83
g3699
sg76
(lp4033
g69
(g90
g71
NtRp4034
(dp4035
g74
(dp4036
g94
g95
ssg83
g4030
sg76
(lp4037
S'generic_patterns'
p4038
asbag69
(g90
g71
NtRp4039
(dp4040
g74
(dp4041
g101
g102
ssg83
g4030
sg76
(lp4042
S':'
asbag69
(g90
g71
NtRp4043
(dp4044
g74
(dp4045
sg83
g4030
sg76
(lp4046
g69
(g70
g71
NtRp4047
(dp4048
g74
(dp4049
g82
I5
ssg83
g4043
sg76
(lp4050
g69
(g78
g71
NtRp4051
(dp4052
g74
(dp4053
g82
I4
ssg83
Nsg76
(lp4054
g69
(g85
g71
NtRp4055
(dp4056
g74
(dp4057
sg83
g4051
sg76
(lp4058
g69
(g90
g71
NtRp4059
(dp4060
g74
(dp4061
sg83
g4055
sg76
(lp4062
g69
(g70
g71
NtRp4063
(dp4064
g74
(dp4065
g82
I4
ssg83
g4059
sg76
(lp4066
S'*'
asbasbasbasbasbasbasbag69
(g85
g71
NtRp4067
(dp4068
g74
(dp4069
sg83
g3699
sg76
(lp4070
g69
(g90
g71
NtRp4071
(dp4072
g74
(dp4073
g94
g95
ssg83
g4067
sg76
(lp4074
S'google_analytics_id'
p4075
asbag69
(g90
g71
NtRp4076
(dp4077
g74
(dp4078
g101
g102
ssg83
g4067
sg76
(lp4079
S':'
asbag69
(g90
g71
NtRp4080
(dp4081
g74
(dp4082
sg83
g4067
sg76
(lp4083
g69
(g70
g71
NtRp4084
(dp4085
g74
(dp4086
g82
I5
ssg83
g4080
sg76
(lp4087
S'None'
p4088
asbasbasbag69
(g85
g71
NtRp4089
(dp4090
g74
(dp4091
sg83
g3699
sg76
(lp4092
g69
(g90
g71
NtRp4093
(dp4094
g74
(dp4095
g94
g95
ssg83
g4089
sg76
(lp4096
S'headers'
p4097
asbag69
(g90
g71
NtRp4098
(dp4099
g74
(dp4100
g101
g102
ssg83
g4089
sg76
(lp4101
S':'
asbag69
(g90
g71
NtRp4102
(dp4103
g74
(dp4104
sg83
g4089
sg76
(lp4105
g69
(g70
g71
NtRp4106
(dp4107
g74
(dp4108
g82
I5
ssg83
g4102
sg76
(lp4109
g69
(g78
g71
NtRp4110
(dp4111
g74
(dp4112
g82
I4
ssg83
Nsg76
(lp4113
g69
(g85
g71
NtRp4114
(dp4115
g74
(dp4116
sg83
g4110
sg76
(lp4117
g69
(g90
g71
NtRp4118
(dp4119
g74
(dp4120
g94
g95
ssg83
g4114
sg76
(lp4121
S'X-Powered-By'
p4122
asbag69
(g90
g71
NtRp4123
(dp4124
g74
(dp4125
g101
g102
ssg83
g4114
sg76
(lp4126
S':'
asbag69
(g90
g71
NtRp4127
(dp4128
g74
(dp4129
sg83
g4114
sg76
(lp4130
g69
(g70
g71
NtRp4131
(dp4132
g74
(dp4133
g82
I4
ssg83
g4127
sg76
(lp4134
S'web2py'
p4135
asbasbasbasbasbasbasbag69
(g85
g71
NtRp4136
(dp4137
g74
(dp4138
sg83
g3699
sg76
(lp4139
g69
(g90
g71
NtRp4140
(dp4141
g74
(dp4142
g94
g95
ssg83
g4136
sg76
(lp4143
S'logo'
p4144
asbag69
(g90
g71
NtRp4145
(dp4146
g74
(dp4147
g101
g102
ssg83
g4136
sg76
(lp4148
S':'
asbag69
(g90
g71
NtRp4149
(dp4150
g74
(dp4151
sg83
g4136
sg76
(lp4152
g69
(g70
g71
NtRp4153
(dp4154
g74
(dp4155
g82
I5
ssg83
g4149
sg76
(lp4156
g69
(cgluon.html
A
p4157
g71
NtRp4158
(dp4159
g74
(dp4160
S'_class'
p4161
S'brand'
p4162
sS'_href'
p4163
S'http://www.web2py.com/'
p4164
ssg83
Nsg76
(lp4165
g69
(cgluon.html
B
p4166
g71
NtRp4167
(dp4168
g74
(dp4169
sg83
g4158
sg76
(lp4170
S'web'
p4171
ag69
(cgluon.html
SPAN
p4172
g71
NtRp4173
(dp4174
g74
(dp4175
sg83
g4167
sg76
(lp4176
I2
asbaS'py'
p4177
asbacgluon.html
XML_unpickle
p4178
(S's\r\x00\x00\x00&trade;&nbsp;'
tRp4179
asbasbasbasbag69
(g85
g71
NtRp4180
(dp4181
g74
(dp4182
sg83
g3699
sg76
(lp4183
g69
(g90
g71
NtRp4184
(dp4185
g74
(dp4186
g94
g95
ssg83
g4180
sg76
(lp4187
S'menu'
p4188
asbag69
(g90
g71
NtRp4189
(dp4190
g74
(dp4191
g101
g102
ssg83
g4180
sg76
(lp4192
S':'
asbag69
(g90
g71
NtRp4193
(dp4194
g74
(dp4195
sg83
g4180
sg76
(lp4196
g69
(g70
g71
NtRp4197
(dp4198
g74
(dp4199
g82
I5
ssg83
g4193
sg76
(lp4200
g69
(g78
g71
NtRp4201
(dp4202
g74
(dp4203
g82
I4
ssg83
Nsg76
(lp4204
g69
(g85
g71
NtRp4205
(dp4206
g74
(dp4207
sg83
g4201
sg76
(lp4208
g69
(g90
g71
NtRp4209
(dp4210
g74
(dp4211
sg83
g4205
sg76
(lp4212
g69
(g70
g71
NtRp4213
(dp4214
g74
(dp4215
g82
I4
ssg83
g4209
sg76
(lp4216
g69
(g78
g71
NtRp4217
(dp4218
g74
(dp4219
g82
I3
ssg83
Nsg76
(lp4220
g69
(g85
g71
NtRp4221
(dp4222
g74
(dp4223
sg83
g4217
sg76
(lp4224
g69
(g90
g71
NtRp4225
(dp4226
g74
(dp4227
sg83
g4221
sg76
(lp4228
g69
(g70
g71
NtRp4229
(dp4230
g74
(dp4231
g82
I3
ssg83
g4225
sg76
(lp4232
cgluon.languages
lazyT_unpickle
p4233
(S's\x04\x00\x00\x00Home'
tRp4234
asbasbasbag69
(g85
g71
NtRp4235
(dp4236
g74
(dp4237
sg83
g4217
sg76
(lp4238
g69
(g90
g71
NtRp4239
(dp4240
g74
(dp4241
sg83
g4235
sg76
(lp4242
g69
(g70
g71
NtRp4243
(dp4244
g74
(dp4245
g82
I3
ssg83
g4239
sg76
(lp4246
g112
asbasbasbag69
(g85
g71
NtRp4247
(dp4248
g74
(dp4249
sg83
g4217
sg76
(lp4250
g69
(g90
g71
NtRp4251
(dp4252
g74
(dp4253
sg83
g4247
sg76
(lp4254
g69
(g70
g71
NtRp4255
(dp4256
g74
(dp4257
g82
I3
ssg83
g4251
sg76
(lp4258
S'/OnlineExamination/default/index'
p4259
asbasbasbag69
(g85
g71
NtRp4260
(dp4261
g74
(dp4262
sg83
g4217
sg76
(lp4263
g69
(g90
g71
NtRp4264
(dp4265
g74
(dp4266
sg83
g4260
sg76
(lp4267
g69
(g70
g71
NtRp4268
(dp4269
g74
(dp4270
g82
I3
ssg83
g4264
sg76
(lp4271
g69
(g78
g71
NtRp4272
(dp4273
g74
(dp4274
g82
I2
ssg83
Nsg76
(lp4275
sbasbasbasbasbasbasbasbag69
(g85
g71
NtRp4276
(dp4277
g74
(dp4278
sg83
g4201
sg76
(lp4279
g69
(g90
g71
NtRp4280
(dp4281
g74
(dp4282
sg83
g4276
sg76
(lp4283
g69
(g70
g71
NtRp4284
(dp4285
g74
(dp4286
g82
I4
ssg83
g4280
sg76
(lp4287
g69
(g78
g71
NtRp4288
(dp4289
g74
(dp4290
g82
I3
ssg83
Nsg76
(lp4291
g69
(g85
g71
NtRp4292
(dp4293
g74
(dp4294
sg83
g4288
sg76
(lp4295
g69
(g90
g71
NtRp4296
(dp4297
g74
(dp4298
sg83
g4292
sg76
(lp4299
g69
(g70
g71
NtRp4300
(dp4301
g74
(dp4302
g82
I3
ssg83
g4296
sg76
(lp4303
g69
(g4172
g71
NtRp4304
(dp4305
g74
(dp4306
g4161
S'highlighted'
p4307
ssg83
Nsg76
(lp4308
g4135
asbasbasbasbag69
(g85
g71
NtRp4309
(dp4310
g74
(dp4311
sg83
g4288
sg76
(lp4312
g69
(g90
g71
NtRp4313
(dp4314
g74
(dp4315
sg83
g4309
sg76
(lp4316
g69
(g70
g71
NtRp4317
(dp4318
g74
(dp4319
g82
I3
ssg83
g4313
sg76
(lp4320
g112
asbasbasbag69
(g85
g71
NtRp4321
(dp4322
g74
(dp4323
sg83
g4288
sg76
(lp4324
g69
(g90
g71
NtRp4325
(dp4326
g74
(dp4327
sg83
g4321
sg76
(lp4328
g69
(g70
g71
NtRp4329
(dp4330
g74
(dp4331
g82
I3
ssg83
g4325
sg76
(lp4332
S'http://web2py.com'
p4333
asbasbasbag69
(g85
g71
NtRp4334
(dp4335
g74
(dp4336
sg83
g4288
sg76
(lp4337
g69
(g90
g71
NtRp4338
(dp4339
g74
(dp4340
sg83
g4334
sg76
(lp4341
g69
(g70
g71
NtRp4342
(dp4343
g74
(dp4344
g82
I3
ssg83
g4338
sg76
(lp4345
g69
(g78
g71
NtRp4346
(dp4347
g74
(dp4348
g82
I2
ssg83
Nsg76
(lp4349
g69
(g85
g71
NtRp4350
(dp4351
g74
(dp4352
sg83
g4346
sg76
(lp4353
g69
(g90
g71
NtRp4354
(dp4355
g74
(dp4356
sg83
g4350
sg76
(lp4357
g69
(g70
g71
NtRp4358
(dp4359
g74
(dp4360
g82
I2
ssg83
g4354
sg76
(lp4361
g69
(g78
g71
NtRp4362
(dp4363
g74
(dp4364
g82
I1
ssg83
Nsg76
(lp4365
g69
(g85
g71
NtRp4366
(dp4367
g74
(dp4368
sg83
g4362
sg76
(lp4369
g69
(g90
g71
NtRp4370
(dp4371
g74
(dp4372
sg83
g4366
sg76
(lp4373
g69
(g70
g71
NtRp4374
(dp4375
g74
(dp4376
g82
I1
ssg83
g4370
sg76
(lp4377
g4233
(S's\x08\x00\x00\x00My Sites'
tRp4378
asbasbasbag69
(g85
g71
NtRp4379
(dp4380
g74
(dp4381
sg83
g4362
sg76
(lp4382
g69
(g90
g71
NtRp4383
(dp4384
g74
(dp4385
sg83
g4379
sg76
(lp4386
g69
(g70
g71
NtRp4387
(dp4388
g74
(dp4389
g82
I1
ssg83
g4383
sg76
(lp4390
I00
asbasbasbag69
(g85
g71
NtRp4391
(dp4392
g74
(dp4393
sg83
g4362
sg76
(lp4394
g69
(g90
g71
NtRp4395
(dp4396
g74
(dp4397
sg83
g4391
sg76
(lp4398
g69
(g70
g71
NtRp4399
(dp4400
g74
(dp4401
g82
I1
ssg83
g4395
sg76
(lp4402
S'/admin/default/site'
p4403
asbasbasbasbasbasbasbag69
(g85
g71
NtRp4404
(dp4405
g74
(dp4406
sg83
g4346
sg76
(lp4407
g69
(g90
g71
NtRp4408
(dp4409
g74
(dp4410
sg83
g4404
sg76
(lp4411
g69
(g70
g71
NtRp4412
(dp4413
g74
(dp4414
g82
I2
ssg83
g4408
sg76
(lp4415
g69
(g78
g71
NtRp4416
(dp4417
g74
(dp4418
g82
I1
ssg83
Nsg76
(lp4419
g69
(g85
g71
NtRp4420
(dp4421
g74
(dp4422
sg83
g4416
sg76
(lp4423
g69
(g90
g71
NtRp4424
(dp4425
g74
(dp4426
sg83
g4420
sg76
(lp4427
g69
(g70
g71
NtRp4428
(dp4429
g74
(dp4430
g82
I1
ssg83
g4424
sg76
(lp4431
g4233
(S's\x08\x00\x00\x00This App'
tRp4432
asbasbasbag69
(g85
g71
NtRp4433
(dp4434
g74
(dp4435
sg83
g4416
sg76
(lp4436
g69
(g90
g71
NtRp4437
(dp4438
g74
(dp4439
sg83
g4433
sg76
(lp4440
g69
(g70
g71
NtRp4441
(dp4442
g74
(dp4443
g82
I1
ssg83
g4437
sg76
(lp4444
I00
asbasbasbag69
(g85
g71
NtRp4445
(dp4446
g74
(dp4447
sg83
g4416
sg76
(lp4448
g69
(g90
g71
NtRp4449
(dp4450
g74
(dp4451
sg83
g4445
sg76
(lp4452
g69
(g70
g71
NtRp4453
(dp4454
g74
(dp4455
g82
I1
ssg83
g4449
sg76
(lp4456
S'/admin/default/design/OnlineExamination'
p4457
asbasbasbag69
(g85
g71
NtRp4458
(dp4459
g74
(dp4460
sg83
g4416
sg76
(lp4461
g69
(g90
g71
NtRp4462
(dp4463
g74
(dp4464
sg83
g4458
sg76
(lp4465
g69
(g70
g71
NtRp4466
(dp4467
g74
(dp4468
g82
I1
ssg83
g4462
sg76
(lp4469
(lp4470
(g4233
(S's\n\x00\x00\x00Controller'
tRp4471
I00
S'/admin/default/edit/OnlineExamination/controllers/default.py'
tp4472
a(g4233
(S's\x04\x00\x00\x00View'
tRp4473
I00
S'/admin/default/edit/OnlineExamination/views/default/user.html'
tp4474
a(g4233
(S's\x06\x00\x00\x00Layout'
tRp4475
I00
S'/admin/default/edit/OnlineExamination/views/layout.html'
tp4476
a(g4233
(S's\n\x00\x00\x00Stylesheet'
tRp4477
I00
S'/admin/default/edit/OnlineExamination/static/css/web2py.css'
tp4478
a(g4233
(S's\x08\x00\x00\x00DB Model'
tRp4479
I00
S'/admin/default/edit/OnlineExamination/models/db.py'
tp4480
a(g4233
(S's\n\x00\x00\x00Menu Model'
tRp4481
I00
S'/admin/default/edit/OnlineExamination/models/menu.py'
tp4482
a(g4233
(S's\x08\x00\x00\x00Database'
tRp4483
I00
S'/OnlineExamination/appadmin/index'
tp4484
a(g4233
(S's\x06\x00\x00\x00Errors'
tRp4485
I00
S'/admin/default/errors/OnlineExamination'
tp4486
a(g4233
(S's\x05\x00\x00\x00About'
tRp4487
I00
S'/admin/default/about/OnlineExamination'
tp4488
aasbasbasbasbasbasbasbag69
(g85
g71
NtRp4489
(dp4490
g74
(dp4491
sg83
g4346
sg76
(lp4492
g69
(g90
g71
NtRp4493
(dp4494
g74
(dp4495
sg83
g4489
sg76
(lp4496
g69
(g70
g71
NtRp4497
(dp4498
g74
(dp4499
g82
I2
ssg83
g4493
sg76
(lp4500
g69
(g78
g71
NtRp4501
(dp4502
g74
(dp4503
g82
I1
ssg83
Nsg76
(lp4504
g69
(g85
g71
NtRp4505
(dp4506
g74
(dp4507
sg83
g4501
sg76
(lp4508
g69
(g90
g71
NtRp4509
(dp4510
g74
(dp4511
sg83
g4505
sg76
(lp4512
g69
(g70
g71
NtRp4513
(dp4514
g74
(dp4515
g82
I1
ssg83
g4509
sg76
(lp4516
S'web2py.com'
p4517
asbasbasbag69
(g85
g71
NtRp4518
(dp4519
g74
(dp4520
sg83
g4501
sg76
(lp4521
g69
(g90
g71
NtRp4522
(dp4523
g74
(dp4524
sg83
g4518
sg76
(lp4525
g69
(g70
g71
NtRp4526
(dp4527
g74
(dp4528
g82
I1
ssg83
g4522
sg76
(lp4529
I00
asbasbasbag69
(g85
g71
NtRp4530
(dp4531
g74
(dp4532
sg83
g4501
sg76
(lp4533
g69
(g90
g71
NtRp4534
(dp4535
g74
(dp4536
sg83
g4530
sg76
(lp4537
g69
(g70
g71
NtRp4538
(dp4539
g74
(dp4540
g82
I1
ssg83
g4534
sg76
(lp4541
S'http://www.web2py.com'
p4542
asbasbasbag69
(g85
g71
NtRp4543
(dp4544
g74
(dp4545
sg83
g4501
sg76
(lp4546
g69
(g90
g71
NtRp4547
(dp4548
g74
(dp4549
sg83
g4543
sg76
(lp4550
g69
(g70
g71
NtRp4551
(dp4552
g74
(dp4553
g82
I1
ssg83
g4547
sg76
(lp4554
(lp4555
(g4233
(S's\x08\x00\x00\x00Download'
tRp4556
I00
S'http://www.web2py.com/examples/default/download'
p4557
tp4558
a(g4233
(S's\x07\x00\x00\x00Support'
tRp4559
I00
S'http://www.web2py.com/examples/default/support'
p4560
tp4561
a(g4233
(S's\x04\x00\x00\x00Demo'
tRp4562
I00
S'http://web2py.com/demo_admin'
p4563
tp4564
a(g4233
(S's\x0e\x00\x00\x00Quick Examples'
tRp4565
I00
S'http://web2py.com/examples/default/examples'
p4566
tp4567
a(g4233
(S's\x03\x00\x00\x00FAQ'
tRp4568
I00
S'http://web2py.com/AlterEgo'
p4569
tp4570
a(g4233
(S's\x06\x00\x00\x00Videos'
tRp4571
I00
S'http://www.web2py.com/examples/default/videos/'
p4572
tp4573
a(g4233
(S's\x11\x00\x00\x00Free Applications'
tRp4574
I00
S'http://web2py.com/appliances'
p4575
tp4576
a(g4233
(S's\x07\x00\x00\x00Plugins'
tRp4577
I00
S'http://web2py.com/plugins'
p4578
tp4579
a(g4233
(S's\x07\x00\x00\x00Layouts'
tRp4580
I00
S'http://web2py.com/layouts'
p4581
tp4582
a(g4233
(S's\x07\x00\x00\x00Recipes'
tRp4583
I00
S'http://web2pyslices.com/'
p4584
tp4585
a(g4233
(S's\x08\x00\x00\x00Semantic'
tRp4586
I00
S'http://web2py.com/semantic'
p4587
tp4588
aasbasbasbasbasbasbasbag69
(g85
g71
NtRp4589
(dp4590
g74
(dp4591
sg83
g4346
sg76
(lp4592
g69
(g90
g71
NtRp4593
(dp4594
g74
(dp4595
sg83
g4589
sg76
(lp4596
g69
(g70
g71
NtRp4597
(dp4598
g74
(dp4599
g82
I2
ssg83
g4593
sg76
(lp4600
g69
(g78
g71
NtRp4601
(dp4602
g74
(dp4603
g82
I1
ssg83
Nsg76
(lp4604
g69
(g85
g71
NtRp4605
(dp4606
g74
(dp4607
sg83
g4601
sg76
(lp4608
g69
(g90
g71
NtRp4609
(dp4610
g74
(dp4611
sg83
g4605
sg76
(lp4612
g69
(g70
g71
NtRp4613
(dp4614
g74
(dp4615
g82
I1
ssg83
g4609
sg76
(lp4616
g4233
(S's\r\x00\x00\x00Documentation'
tRp4617
asbasbasbag69
(g85
g71
NtRp4618
(dp4619
g74
(dp4620
sg83
g4601
sg76
(lp4621
g69
(g90
g71
NtRp4622
(dp4623
g74
(dp4624
sg83
g4618
sg76
(lp4625
g69
(g70
g71
NtRp4626
(dp4627
g74
(dp4628
g82
I1
ssg83
g4622
sg76
(lp4629
I00
asbasbasbag69
(g85
g71
NtRp4630
(dp4631
g74
(dp4632
sg83
g4601
sg76
(lp4633
g69
(g90
g71
NtRp4634
(dp4635
g74
(dp4636
sg83
g4630
sg76
(lp4637
g69
(g70
g71
NtRp4638
(dp4639
g74
(dp4640
g82
I1
ssg83
g4634
sg76
(lp4641
S'http://www.web2py.com/book'
p4642
asbasbasbag69
(g85
g71
NtRp4643
(dp4644
g74
(dp4645
sg83
g4601
sg76
(lp4646
g69
(g90
g71
NtRp4647
(dp4648
g74
(dp4649
sg83
g4643
sg76
(lp4650
g69
(g70
g71
NtRp4651
(dp4652
g74
(dp4653
g82
I1
ssg83
g4647
sg76
(lp4654
(lp4655
(g4233
(S's\x07\x00\x00\x00Preface'
tRp4656
I00
S'http://www.web2py.com/book/default/chapter/00'
p4657
tp4658
a(g4233
(S's\x0c\x00\x00\x00Introduction'
tRp4659
I00
S'http://www.web2py.com/book/default/chapter/01'
p4660
tp4661
a(g4233
(S's\x06\x00\x00\x00Python'
tRp4662
I00
S'http://www.web2py.com/book/default/chapter/02'
p4663
tp4664
a(g4233
(S's\x08\x00\x00\x00Overview'
tRp4665
I00
S'http://www.web2py.com/book/default/chapter/03'
p4666
tp4667
a(g4233
(S's\x08\x00\x00\x00The Core'
tRp4668
I00
S'http://www.web2py.com/book/default/chapter/04'
p4669
tp4670
a(g4233
(S's\t\x00\x00\x00The Views'
tRp4671
I00
S'http://www.web2py.com/book/default/chapter/05'
p4672
tp4673
a(g4233
(S's\x08\x00\x00\x00Database'
tRp4674
I00
S'http://www.web2py.com/book/default/chapter/06'
p4675
tp4676
a(g4233
(S's\x14\x00\x00\x00Forms and Validators'
tRp4677
I00
S'http://www.web2py.com/book/default/chapter/07'
p4678
tp4679
a(g4233
(S's\r\x00\x00\x00Email and SMS'
tRp4680
I00
S'http://www.web2py.com/book/default/chapter/08'
p4681
tp4682
a(g4233
(S's\x0e\x00\x00\x00Access Control'
tRp4683
I00
S'http://www.web2py.com/book/default/chapter/09'
p4684
tp4685
a(g4233
(S's\x08\x00\x00\x00Services'
tRp4686
I00
S'http://www.web2py.com/book/default/chapter/10'
p4687
tp4688
a(g4233
(S's\x0c\x00\x00\x00Ajax Recipes'
tRp4689
I00
S'http://www.web2py.com/book/default/chapter/11'
p4690
tp4691
a(g4233
(S's\x16\x00\x00\x00Components and Plugins'
tRp4692
I00
S'http://www.web2py.com/book/default/chapter/12'
p4693
tp4694
a(g4233
(S's\x12\x00\x00\x00Deployment Recipes'
tRp4695
I00
S'http://www.web2py.com/book/default/chapter/13'
p4696
tp4697
a(g4233
(S's\r\x00\x00\x00Other Recipes'
tRp4698
I00
S'http://www.web2py.com/book/default/chapter/14'
p4699
tp4700
a(g4233
(S's\r\x00\x00\x00Buy this book'
tRp4701
I00
S'http://stores.lulu.com/web2py'
p4702
tp4703
aasbasbasbasbasbasbasbag69
(g85
g71
NtRp4704
(dp4705
g74
(dp4706
sg83
g4346
sg76
(lp4707
g69
(g90
g71
NtRp4708
(dp4709
g74
(dp4710
sg83
g4704
sg76
(lp4711
g69
(g70
g71
NtRp4712
(dp4713
g74
(dp4714
g82
I2
ssg83
g4708
sg76
(lp4715
g69
(g78
g71
NtRp4716
(dp4717
g74
(dp4718
g82
I1
ssg83
Nsg76
(lp4719
g69
(g85
g71
NtRp4720
(dp4721
g74
(dp4722
sg83
g4716
sg76
(lp4723
g69
(g90
g71
NtRp4724
(dp4725
g74
(dp4726
sg83
g4720
sg76
(lp4727
g69
(g70
g71
NtRp4728
(dp4729
g74
(dp4730
g82
I1
ssg83
g4724
sg76
(lp4731
g4233
(S's\t\x00\x00\x00Community'
tRp4732
asbasbasbag69
(g85
g71
NtRp4733
(dp4734
g74
(dp4735
sg83
g4716
sg76
(lp4736
g69
(g90
g71
NtRp4737
(dp4738
g74
(dp4739
sg83
g4733
sg76
(lp4740
g69
(g70
g71
NtRp4741
(dp4742
g74
(dp4743
g82
I1
ssg83
g4737
sg76
(lp4744
I00
asbasbasbag69
(g85
g71
NtRp4745
(dp4746
g74
(dp4747
sg83
g4716
sg76
(lp4748
g69
(g90
g71
NtRp4749
(dp4750
g74
(dp4751
sg83
g4745
sg76
(lp4752
g69
(g70
g71
NtRp4753
(dp4754
g74
(dp4755
g82
I1
ssg83
g4749
sg76
(lp4756
Nasbasbasbag69
(g85
g71
NtRp4757
(dp4758
g74
(dp4759
sg83
g4716
sg76
(lp4760
g69
(g90
g71
NtRp4761
(dp4762
g74
(dp4763
sg83
g4757
sg76
(lp4764
g69
(g70
g71
NtRp4765
(dp4766
g74
(dp4767
g82
I1
ssg83
g4761
sg76
(lp4768
(lp4769
(g4233
(S's\x06\x00\x00\x00Groups'
tRp4770
I00
S'http://www.web2py.com/examples/default/usergroups'
p4771
tp4772
a(g4233
(S's\x07\x00\x00\x00Twitter'
tRp4773
I00
S'http://twitter.com/web2py'
p4774
tp4775
a(g4233
(S's\t\x00\x00\x00Live Chat'
tRp4776
I00
S'http://webchat.freenode.net/?channels=web2py'
p4777
tp4778
aasbasbasbasbasbasbasbag69
(g85
g71
NtRp4779
(dp4780
g74
(dp4781
sg83
g4346
sg76
(lp4782
g69
(g90
g71
NtRp4783
(dp4784
g74
(dp4785
sg83
g4779
sg76
(lp4786
g69
(g70
g71
NtRp4787
(dp4788
g74
(dp4789
g82
I2
ssg83
g4783
sg76
(lp4790
g69
(g78
g71
NtRp4791
(dp4792
g74
(dp4793
g82
I1
ssg83
Nsg76
(lp4794
g69
(g85
g71
NtRp4795
(dp4796
g74
(dp4797
sg83
g4791
sg76
(lp4798
g69
(g90
g71
NtRp4799
(dp4800
g74
(dp4801
sg83
g4795
sg76
(lp4802
g69
(g70
g71
NtRp4803
(dp4804
g74
(dp4805
g82
I1
ssg83
g4799
sg76
(lp4806
g4233
(S's\x07\x00\x00\x00Plugins'
tRp4807
asbasbasbag69
(g85
g71
NtRp4808
(dp4809
g74
(dp4810
sg83
g4791
sg76
(lp4811
g69
(g90
g71
NtRp4812
(dp4813
g74
(dp4814
sg83
g4808
sg76
(lp4815
g69
(g70
g71
NtRp4816
(dp4817
g74
(dp4818
g82
I1
ssg83
g4812
sg76
(lp4819
I00
asbasbasbag69
(g85
g71
NtRp4820
(dp4821
g74
(dp4822
sg83
g4791
sg76
(lp4823
g69
(g90
g71
NtRp4824
(dp4825
g74
(dp4826
sg83
g4820
sg76
(lp4827
g69
(g70
g71
NtRp4828
(dp4829
g74
(dp4830
g82
I1
ssg83
g4824
sg76
(lp4831
Nasbasbasbag69
(g85
g71
NtRp4832
(dp4833
g74
(dp4834
sg83
g4791
sg76
(lp4835
g69
(g90
g71
NtRp4836
(dp4837
g74
(dp4838
sg83
g4832
sg76
(lp4839
g69
(g70
g71
NtRp4840
(dp4841
g74
(dp4842
g82
I1
ssg83
g4836
sg76
(lp4843
(lp4844
(S'plugin_wiki'
p4845
I00
S'http://web2py.com/examples/default/download'
p4846
tp4847
a(g4233
(S's\r\x00\x00\x00Other Plugins'
tRp4848
I00
g4578
tp4849
a(g4233
(S's\x0e\x00\x00\x00Layout Plugins'
tRp4850
I00
g4581
tp4851
aasbasbasbasbasbasbasbasbasbasbasbasbasbasbasbasbasbasbasbag69
(g85
g71
NtRp4852
(dp4853
g74
(dp4854
sg83
g3699
sg76
(lp4855
g69
(g90
g71
NtRp4856
(dp4857
g74
(dp4858
g94
g95
ssg83
g4852
sg76
(lp4859
S'meta'
p4860
asbag69
(g90
g71
NtRp4861
(dp4862
g74
(dp4863
g101
g102
ssg83
g4852
sg76
(lp4864
S':'
asbag69
(g90
g71
NtRp4865
(dp4866
g74
(dp4867
sg83
g4852
sg76
(lp4868
g69
(g70
g71
NtRp4869
(dp4870
g74
(dp4871
g82
I5
ssg83
g4865
sg76
(lp4872
g69
(g78
g71
NtRp4873
(dp4874
g74
(dp4875
g82
I4
ssg83
Nsg76
(lp4876
g69
(g85
g71
NtRp4877
(dp4878
g74
(dp4879
sg83
g4873
sg76
(lp4880
g69
(g90
g71
NtRp4881
(dp4882
g74
(dp4883
g94
g95
ssg83
g4877
sg76
(lp4884
S'author'
p4885
asbag69
(g90
g71
NtRp4886
(dp4887
g74
(dp4888
g101
g102
ssg83
g4877
sg76
(lp4889
S':'
asbag69
(g90
g71
NtRp4890
(dp4891
g74
(dp4892
sg83
g4877
sg76
(lp4893
g69
(g70
g71
NtRp4894
(dp4895
g74
(dp4896
g82
I4
ssg83
g4890
sg76
(lp4897
S'Your Name <you@example.com>'
p4898
asbasbasbag69
(g85
g71
NtRp4899
(dp4900
g74
(dp4901
sg83
g4873
sg76
(lp4902
g69
(g90
g71
NtRp4903
(dp4904
g74
(dp4905
g94
g95
ssg83
g4899
sg76
(lp4906
S'description'
p4907
asbag69
(g90
g71
NtRp4908
(dp4909
g74
(dp4910
g101
g102
ssg83
g4899
sg76
(lp4911
S':'
asbag69
(g90
g71
NtRp4912
(dp4913
g74
(dp4914
sg83
g4899
sg76
(lp4915
g69
(g70
g71
NtRp4916
(dp4917
g74
(dp4918
g82
I4
ssg83
g4912
sg76
(lp4919
S'a cool new app'
p4920
asbasbasbag69
(g85
g71
NtRp4921
(dp4922
g74
(dp4923
sg83
g4873
sg76
(lp4924
g69
(g90
g71
NtRp4925
(dp4926
g74
(dp4927
g94
g95
ssg83
g4921
sg76
(lp4928
S'generator'
p4929
asbag69
(g90
g71
NtRp4930
(dp4931
g74
(dp4932
g101
g102
ssg83
g4921
sg76
(lp4933
S':'
asbag69
(g90
g71
NtRp4934
(dp4935
g74
(dp4936
sg83
g4921
sg76
(lp4937
g69
(g70
g71
NtRp4938
(dp4939
g74
(dp4940
g82
I4
ssg83
g4934
sg76
(lp4941
S'Web2py Web Framework'
p4942
asbasbasbag69
(g85
g71
NtRp4943
(dp4944
g74
(dp4945
sg83
g4873
sg76
(lp4946
g69
(g90
g71
NtRp4947
(dp4948
g74
(dp4949
g94
g95
ssg83
g4943
sg76
(lp4950
S'keywords'
p4951
asbag69
(g90
g71
NtRp4952
(dp4953
g74
(dp4954
g101
g102
ssg83
g4943
sg76
(lp4955
S':'
asbag69
(g90
g71
NtRp4956
(dp4957
g74
(dp4958
sg83
g4943
sg76
(lp4959
g69
(g70
g71
NtRp4960
(dp4961
g74
(dp4962
g82
I4
ssg83
g4956
sg76
(lp4963
S'web2py, python, framework'
p4964
asbasbasbasbasbasbasbag69
(g85
g71
NtRp4965
(dp4966
g74
(dp4967
sg83
g3699
sg76
(lp4968
g69
(g90
g71
NtRp4969
(dp4970
g74
(dp4971
g94
g95
ssg83
g4965
sg76
(lp4972
S'models_to_run'
p4973
asbag69
(g90
g71
NtRp4974
(dp4975
g74
(dp4976
g101
g102
ssg83
g4965
sg76
(lp4977
S':'
asbag69
(g90
g71
NtRp4978
(dp4979
g74
(dp4980
sg83
g4965
sg76
(lp4981
g69
(g70
g71
NtRp4982
(dp4983
g74
(dp4984
g82
I5
ssg83
g4978
sg76
(lp4985
g69
(g78
g71
NtRp4986
(dp4987
g74
(dp4988
g82
I4
ssg83
Nsg76
(lp4989
g69
(g85
g71
NtRp4990
(dp4991
g74
(dp4992
sg83
g4986
sg76
(lp4993
g69
(g90
g71
NtRp4994
(dp4995
g74
(dp4996
sg83
g4990
sg76
(lp4997
g69
(g70
g71
NtRp4998
(dp4999
g74
(dp5000
g82
I4
ssg83
g4994
sg76
(lp5001
S'^\\w+\\.py$'
p5002
asbasbasbag69
(g85
g71
NtRp5003
(dp5004
g74
(dp5005
sg83
g4986
sg76
(lp5006
g69
(g90
g71
NtRp5007
(dp5008
g74
(dp5009
sg83
g5003
sg76
(lp5010
g69
(g70
g71
NtRp5011
(dp5012
g74
(dp5013
g82
I4
ssg83
g5007
sg76
(lp5014
S'^default/\\w+\\.py$'
p5015
asbasbasbag69
(g85
g71
NtRp5016
(dp5017
g74
(dp5018
sg83
g4986
sg76
(lp5019
g69
(g90
g71
NtRp5020
(dp5021
g74
(dp5022
sg83
g5016
sg76
(lp5023
g69
(g70
g71
NtRp5024
(dp5025
g74
(dp5026
g82
I4
ssg83
g5020
sg76
(lp5027
S'^default/user/\\w+\\.py$'
p5028
asbasbasbasbasbasbasbag69
(g85
g71
NtRp5029
(dp5030
g74
(dp5031
sg83
g3699
sg76
(lp5032
g69
(g90
g71
NtRp5033
(dp5034
g74
(dp5035
g94
g95
ssg83
g5029
sg76
(lp5036
S'postprocessing'
p5037
asbag69
(g90
g71
NtRp5038
(dp5039
g74
(dp5040
g101
g102
ssg83
g5029
sg76
(lp5041
S':'
asbag69
(g90
g71
NtRp5042
(dp5043
g74
(dp5044
sg83
g5029
sg76
(lp5045
g69
(g70
g71
NtRp5046
(dp5047
g74
(dp5048
g82
I5
ssg83
g5042
sg76
(lp5049
g69
(g78
g71
NtRp5050
(dp5051
g74
(dp5052
g82
I4
ssg83
Nsg76
(lp5053
sbasbasbasbag69
(g85
g71
NtRp5054
(dp5055
g74
(dp5056
sg83
g3699
sg76
(lp5057
g69
(g90
g71
NtRp5058
(dp5059
g74
(dp5060
g94
g95
ssg83
g5054
sg76
(lp5061
S'session_cookie_expires'
p5062
asbag69
(g90
g71
NtRp5063
(dp5064
g74
(dp5065
g101
g102
ssg83
g5054
sg76
(lp5066
S':'
asbag69
(g90
g71
NtRp5067
(dp5068
g74
(dp5069
sg83
g5054
sg76
(lp5070
g69
(g70
g71
NtRp5071
(dp5072
g74
(dp5073
g82
I5
ssg83
g5067
sg76
(lp5074
S'None'
p5075
asbasbasbag69
(g85
g71
NtRp5076
(dp5077
g74
(dp5078
sg83
g3699
sg76
(lp5079
g69
(g90
g71
NtRp5080
(dp5081
g74
(dp5082
g94
g95
ssg83
g5076
sg76
(lp5083
S'session_data_name'
p5084
asbag69
(g90
g71
NtRp5085
(dp5086
g74
(dp5087
g101
g102
ssg83
g5076
sg76
(lp5088
S':'
asbag69
(g90
g71
NtRp5089
(dp5090
g74
(dp5091
sg83
g5076
sg76
(lp5092
g69
(g70
g71
NtRp5093
(dp5094
g74
(dp5095
g82
I5
ssg83
g5089
sg76
(lp5096
S'session_data_onlineexamination'
p5097
asbasbasbag69
(g85
g71
NtRp5098
(dp5099
g74
(dp5100
sg83
g3699
sg76
(lp5101
g69
(g90
g71
NtRp5102
(dp5103
g74
(dp5104
g94
g95
ssg83
g5098
sg76
(lp5105
S'session_file'
p5106
asbag69
(g90
g71
NtRp5107
(dp5108
g74
(dp5109
g101
g102
ssg83
g5098
sg76
(lp5110
S':'
asbag69
(g90
g71
NtRp5111
(dp5112
g74
(dp5113
sg83
g5098
sg76
(lp5114
g69
(g70
g71
NtRp5115
(dp5116
g74
(dp5117
g82
I5
ssg83
g5111
sg76
(lp5118
S"<open file '/home/saurabh/web2py/applications/OnlineExamination/sessions/127.0.0.1-d2228566-6160-4d2f-a4b5-d7a6fcc4e876', mode 'rb+' at 0x7f25183506f0>"
p5119
asbasbasbag69
(g85
g71
NtRp5120
(dp5121
g74
(dp5122
sg83
g3699
sg76
(lp5123
g69
(g90
g71
NtRp5124
(dp5125
g74
(dp5126
g94
g95
ssg83
g5120
sg76
(lp5127
S'session_filename'
p5128
asbag69
(g90
g71
NtRp5129
(dp5130
g74
(dp5131
g101
g102
ssg83
g5120
sg76
(lp5132
S':'
asbag69
(g90
g71
NtRp5133
(dp5134
g74
(dp5135
sg83
g5120
sg76
(lp5136
g69
(g70
g71
NtRp5137
(dp5138
g74
(dp5139
g82
I5
ssg83
g5133
sg76
(lp5140
S'/home/saurabh/web2py/applications/OnlineExamination/sessions/127.0.0.1-d2228566-6160-4d2f-a4b5-d7a6fcc4e876'
p5141
asbasbasbag69
(g85
g71
NtRp5142
(dp5143
g74
(dp5144
sg83
g3699
sg76
(lp5145
g69
(g90
g71
NtRp5146
(dp5147
g74
(dp5148
g94
g95
ssg83
g5142
sg76
(lp5149
S'session_id'
p5150
asbag69
(g90
g71
NtRp5151
(dp5152
g74
(dp5153
g101
g102
ssg83
g5142
sg76
(lp5154
S':'
asbag69
(g90
g71
NtRp5155
(dp5156
g74
(dp5157
sg83
g5142
sg76
(lp5158
g69
(g70
g71
NtRp5159
(dp5160
g74
(dp5161
g82
I5
ssg83
g5155
sg76
(lp5162
g500
asbasbasbag69
(g85
g71
NtRp5163
(dp5164
g74
(dp5165
sg83
g3699
sg76
(lp5166
g69
(g90
g71
NtRp5167
(dp5168
g74
(dp5169
g94
g95
ssg83
g5163
sg76
(lp5170
S'session_id_name'
p5171
asbag69
(g90
g71
NtRp5172
(dp5173
g74
(dp5174
g101
g102
ssg83
g5163
sg76
(lp5175
S':'
asbag69
(g90
g71
NtRp5176
(dp5177
g74
(dp5178
sg83
g5163
sg76
(lp5179
g69
(g70
g71
NtRp5180
(dp5181
g74
(dp5182
g82
I5
ssg83
g5176
sg76
(lp5183
g3756
asbasbasbag69
(g85
g71
NtRp5184
(dp5185
g74
(dp5186
sg83
g3699
sg76
(lp5187
g69
(g90
g71
NtRp5188
(dp5189
g74
(dp5190
g94
g95
ssg83
g5184
sg76
(lp5191
S'session_locked'
p5192
asbag69
(g90
g71
NtRp5193
(dp5194
g74
(dp5195
g101
g102
ssg83
g5184
sg76
(lp5196
S':'
asbag69
(g90
g71
NtRp5197
(dp5198
g74
(dp5199
sg83
g5184
sg76
(lp5200
g69
(g70
g71
NtRp5201
(dp5202
g74
(dp5203
g82
I5
ssg83
g5197
sg76
(lp5204
g1796
asbasbasbag69
(g85
g71
NtRp5205
(dp5206
g74
(dp5207
sg83
g3699
sg76
(lp5208
g69
(g90
g71
NtRp5209
(dp5210
g74
(dp5211
g94
g95
ssg83
g5205
sg76
(lp5212
S'session_new'
p5213
asbag69
(g90
g71
NtRp5214
(dp5215
g74
(dp5216
g101
g102
ssg83
g5205
sg76
(lp5217
S':'
asbag69
(g90
g71
NtRp5218
(dp5219
g74
(dp5220
sg83
g5205
sg76
(lp5221
g69
(g70
g71
NtRp5222
(dp5223
g74
(dp5224
g82
I5
ssg83
g5218
sg76
(lp5225
g112
asbasbasbag69
(g85
g71
NtRp5226
(dp5227
g74
(dp5228
sg83
g3699
sg76
(lp5229
g69
(g90
g71
NtRp5230
(dp5231
g74
(dp5232
g94
g95
ssg83
g5226
sg76
(lp5233
S'session_storage_type'
p5234
asbag69
(g90
g71
NtRp5235
(dp5236
g74
(dp5237
g101
g102
ssg83
g5226
sg76
(lp5238
S':'
asbag69
(g90
g71
NtRp5239
(dp5240
g74
(dp5241
sg83
g5226
sg76
(lp5242
g69
(g70
g71
NtRp5243
(dp5244
g74
(dp5245
g82
I5
ssg83
g5239
sg76
(lp5246
g3227
asbasbasbag69
(g85
g71
NtRp5247
(dp5248
g74
(dp5249
sg83
g3699
sg76
(lp5250
g69
(g90
g71
NtRp5251
(dp5252
g74
(dp5253
g94
g95
ssg83
g5247
sg76
(lp5254
S'status'
p5255
asbag69
(g90
g71
NtRp5256
(dp5257
g74
(dp5258
g101
g102
ssg83
g5247
sg76
(lp5259
S':'
asbag69
(g90
g71
NtRp5260
(dp5261
g74
(dp5262
sg83
g5247
sg76
(lp5263
g69
(g70
g71
NtRp5264
(dp5265
g74
(dp5266
g82
I5
ssg83
g5260
sg76
(lp5267
S'200'
p5268
asbasbasbag69
(g85
g71
NtRp5269
(dp5270
g74
(dp5271
sg83
g3699
sg76
(lp5272
g69
(g90
g71
NtRp5273
(dp5274
g74
(dp5275
g94
g95
ssg83
g5269
sg76
(lp5276
S'subtitle'
p5277
asbag69
(g90
g71
NtRp5278
(dp5279
g74
(dp5280
g101
g102
ssg83
g5269
sg76
(lp5281
S':'
asbag69
(g90
g71
NtRp5282
(dp5283
g74
(dp5284
sg83
g5269
sg76
(lp5285
g69
(g70
g71
NtRp5286
(dp5287
g74
(dp5288
g82
I5
ssg83
g5282
sg76
(lp5289
g4233
(S's\x13\x00\x00\x00Online Exam Portal!'
tRp5290
asbasbasbag69
(g85
g71
NtRp5291
(dp5292
g74
(dp5293
sg83
g3699
sg76
(lp5294
g69
(g90
g71
NtRp5295
(dp5296
g74
(dp5297
g94
g95
ssg83
g5291
sg76
(lp5298
S'title'
p5299
asbag69
(g90
g71
NtRp5300
(dp5301
g74
(dp5302
g101
g102
ssg83
g5291
sg76
(lp5303
S':'
asbag69
(g90
g71
NtRp5304
(dp5305
g74
(dp5306
sg83
g5291
sg76
(lp5307
g69
(g70
g71
NtRp5308
(dp5309
g74
(dp5310
g82
I5
ssg83
g5304
sg76
(lp5311
S'Onlineexamination'
p5312
asbasbasbag69
(g85
g71
NtRp5313
(dp5314
g74
(dp5315
sg83
g3699
sg76
(lp5316
g69
(g90
g71
NtRp5317
(dp5318
g74
(dp5319
g94
g95
ssg83
g5313
sg76
(lp5320
S'view'
p5321
asbag69
(g90
g71
NtRp5322
(dp5323
g74
(dp5324
g101
g102
ssg83
g5313
sg76
(lp5325
S':'
asbag69
(g90
g71
NtRp5326
(dp5327
g74
(dp5328
sg83
g5313
sg76
(lp5329
g69
(g70
g71
NtRp5330
(dp5331
g74
(dp5332
g82
I5
ssg83
g5326
sg76
(lp5333
S'default/user.html'
p5334
asbasbasbasbasbsS'locals'
p5335
(dp5336
g4
S"'/home/saurabh/web2py/applications/OnlineExamination/controllers/default.py'"
p5337
sg6
S"'# -*- coding: utf-8 -*-\\n# this file is released ...orm=form)\\n\\nresponse._vars=response._caller(user)\\n'"
p5338
sssS'traceback'
p5339
S'Traceback (most recent call last):\n  File "/home/saurabh/web2py/gluon/restricted.py", line 211, in restricted\n    ccode = compile2(code, layer)\n  File "/home/saurabh/web2py/gluon/restricted.py", line 194, in compile2\n    return compile(code.rstrip().replace(\'\\r\\n\', \'\\n\') + \'\\n\', layer, \'exec\')\n  File "/home/saurabh/web2py/applications/OnlineExamination/controllers/default.py", line 33\n    return locals()\n                  ^\nIndentationError: unindent does not match any outer indentation level\n'
p5340
s.