(dp1
S'output'
p2
S"<type 'exceptions.NameError'> name 'form' is not defined"
p3
sS'layer'
p4
S'/home/gaurav/classwork/WEB_PROGRAMMING/web2py/applications/OnlineExamination/views/default/show_paper.html'
p5
sS'code'
p6
S'response.write(\'<!DOCTYPE html>\\n<!-- paulirish.com/2008/conditional-stylesheets-vs-css-hacks-answer-neither/ -->\\n<!--[if lt IE 7]><html class="ie ie6 ie-lte9 ie-lte8 ie-lte7 no-js" lang="\', escape=False)\nresponse.write(T.accepted_language or \'en\')\nresponse.write(\'"> <![endif]-->\\n<!--[if IE 7]><html class="ie ie7 ie-lte9 ie-lte8 ie-lte7 no-js" lang="\', escape=False)\nresponse.write(T.accepted_language or \'en\')\nresponse.write(\'"> <![endif]-->\\n<!--[if IE 8]><html class="ie ie8 ie-lte9 ie-lte8 no-js" lang="\', escape=False)\nresponse.write(T.accepted_language or \'en\')\nresponse.write(\'"> <![endif]-->\\n<!--[if IE 9]><html class="ie9 ie-lte9 no-js" lang="\', escape=False)\nresponse.write(T.accepted_language or \'en\')\nresponse.write(\'"> <![endif]-->\\n<!--[if (gt IE 9)|!(IE)]><!--> <html class="no-js" lang="\', escape=False)\nresponse.write(T.accepted_language or \'en\')\nresponse.write(\'"> <!--<![endif]-->\\n<head>\\n  <meta charset="utf-8" />\\n  <!-- www.phpied.com/conditional-comments-block-downloads/ -->\\n  <!-- Always force latest IE rendering engine\\n       (even in intranet) & Chrome Frame\\n       Remove this if you use the .htaccess -->\\n  <!--[if IE]>\\n      <meta http-equiv="X-UA-Compatible" content="IE=edge\', escape=False)\nresponse.write(not request.is_local and \',chrome=1\' or \'\')\nresponse.write(\'">\\n      <![endif]-->\\n\\n  <title>\', escape=False)\nresponse.write(response.title or request.application)\nresponse.write(\'</title>\\n\\n  <!-- http://dev.w3.org/html5/markup/meta.name.html -->\\n  <meta name="application-name" content="\', escape=False)\nresponse.write(request.application)\nresponse.write(\'" />\\n\\n  <!-- Speaking of Google, don\\\'t forget to set your site up:\\n       http://google.com/webmasters -->\\n  <meta name="google-site-verification" content="" />\\n\\n  <!--  Mobile Viewport Fix\\n        j.mp/mobileviewport & davidbcalhoun.com/2010/viewport-metatag\\n        device-width: Occupy full width of the screen in its current orientation\\n        initial-scale = 1.0 retains dimensions instead of zooming out if page height > device height\\n        user-scalable = yes allows the user to zoom in -->\\n  <meta name="viewport" content="width=device-width, initial-scale=1.0" />\\n\\n  <link rel="shortcut icon" href="\', escape=False)\nresponse.write(URL(\'static\',\'images/favicon.ico\'))\nresponse.write(\'" type="image/x-icon">\\n  <link rel="apple-touch-icon" href="\', escape=False)\nresponse.write(URL(\'static\',\'images/favicon.png\'))\nresponse.write(\'">\\n\\n  <!-- All JavaScript at the bottom, except for Modernizr which enables\\n       HTML5 elements & feature detects -->\\n  <script src="\', escape=False)\nresponse.write(URL(\'static\',\'js/modernizr.custom.js\'))\nresponse.write(\'"></script>\\n\\n  <!-- include stylesheets -->\\n  \', escape=False)\nresponse.files.append(URL(\'static\',\'css/web2py.css\'))\nresponse.files.append(URL(\'static\',\'css/bootstrap.min.css\'))\nresponse.files.append(URL(\'static\',\'css/bootstrap-responsive.min.css\'))\nresponse.files.append(URL(\'static\',\'css/web2py_bootstrap.css\'))\nresponse.write(\'\\n\\n  \', escape=False)\nresponse.write(\'<script type="text/javascript"><!--\\n    // These variables are used by the web2py_ajax_init function in web2py_ajax.js (which is loaded below).\\n    var w2p_ajax_confirm_message = "\', escape=False)\nresponse.write(T(\'Are you sure you want to delete this object?\'))\nresponse.write(\'";\\n    var w2p_ajax_date_format = "\', escape=False)\nresponse.write(T(\'%Y-%m-%d\'))\nresponse.write(\'";\\n    var w2p_ajax_datetime_format = "\', escape=False)\nresponse.write(T(\'%Y-%m-%d %H:%M:%S\'))\nresponse.write(\'";\\n    //--></script>\\n\', escape=False)\nresponse.files.insert(0,URL(\'static\',\'js/jquery.js\'))\nresponse.files.insert(1,URL(\'static\',\'css/calendar.css\'))\nresponse.files.insert(2,URL(\'static\',\'js/calendar.js\'))\nresponse.files.insert(3,URL(\'static\',\'js/web2py.js\'))\nresponse.include_meta()\nresponse.include_files()\nresponse.write(\'\\n\', escape=False)\nresponse.write(\'\\n\\n  \', escape=False)\n# using sidebars need to know what sidebar you want to use\nleft_sidebar_enabled = globals().get(\'left_sidebar_enabled\',False)\nright_sidebar_enabled = globals().get(\'right_sidebar_enabled\',False)\nmiddle_columns = {0:\'span12\',1:\'span9\',2:\'span6\'}[\n(left_sidebar_enabled and 1 or 0)+(right_sidebar_enabled and 1 or 0)]\nresponse.write(\'\\n\\n  <!-- uncomment here to load jquery-ui\\n       <link rel="stylesheet" href="http://ajax.googleapis.com/ajax/libs/jqueryui/1.8.16/themes/base/jquery-ui.css" type="text/css" media="all" />\\n       <script src="http://ajax.googleapis.com/ajax/libs/jqueryui/1.8.16/jquery-ui.min.js" type="text/javascript"></script>\\n       uncomment to load jquery-ui //-->\\n  <noscript><link href="\', escape=False)\nresponse.write(URL(\'static\', \'css/web2py_bootstrap_nojs.css\'))\nresponse.write(\'" rel="stylesheet" type="text/css" /></noscript>\\n  \', escape=False)\nresponse.write(\'\\n</head>\\n\\n<body>\\n  <!-- Navbar ================================================== -->\\n  <div class="navbar navbar-inverse navbar-fixed-top">\\n    <div class="flash">\', escape=False)\nresponse.write(response.flash or \'\')\nresponse.write(\'</div>\\n    <div class="navbar-inner">\\n      <div class="container">\\n        <!-- the next tag is necessary for bootstrap menus, do not remove -->\\n        <button type="button" class="btn btn-navbar" data-toggle="collapse" data-target=".nav-collapse">\\n          <span class="icon-bar"></span>\\n          <span class="icon-bar"></span>\\n          <span class="icon-bar"></span>\\n        </button>\\n\\t\', escape=False)\nresponse.write(response.logo or \'\')\nresponse.write(\'\\n        <ul id="navbar" class="nav pull-right">\', escape=False)\nresponse.write(\'auth\' in globals() and auth.navbar(mode="dropdown") or \'\')\nresponse.write(\'</ul>\\n        <div class="nav-collapse">\\n          \', escape=False)\nis_mobile=request.user_agent().is_mobile\nresponse.write(\'\\n          \', escape=False)\nif response.menu:\n    response.write(\'\\n          \', escape=False)\n    response.write(MENU(response.menu, _class=\'mobile-menu nav\' if is_mobile else \'nav\',mobile=is_mobile,li_class=\'dropdown\',ul_class=\'dropdown-menu\'))\n    response.write(\'\\n          \', escape=False)\n    pass\nresponse.write(\'\\n        </div><!--/.nav-collapse -->\\n      </div>\\n    </div>\\n  </div><!--/top navbar -->\\n\\n  <div class="container">\\n    <!-- Masthead ================================================== -->\\n    <header class="mastheader row" id="header">\\n        <div class="span12">\\n            <div class="page-header">\\n                <h1>\\n                    \', escape=False)\nresponse.write(response.title or request.application)\nresponse.write(\'\\n                    <small>\', escape=False)\nresponse.write(response.subtitle or \'\')\nresponse.write(\'</small>\\n                </h1>\\n            </div>\\n        </div>\\n    </header>\\n\\n    <section id="main" class="main row">\\n        \', escape=False)\nif left_sidebar_enabled:\n    response.write(\'\\n        <div class="span3 left-sidebar">\\n            \', escape=False)\n    response.write(\'\\n            <h3>Left Sidebar</h3>\\n            <p></p>\\n            \', escape=False)\n    response.write(\'\\n        </div>\\n        \', escape=False)\n    pass\nresponse.write(\'\\n\\n        <div class="\', escape=False)\nresponse.write(middle_columns)\nresponse.write(\'">\\n            \', escape=False)\nresponse.write(\'\\n            \', escape=False)\nresponse.write(\'\\n\', escape=False)\nresponse.write(form)\nresponse.write(\'\\n\', escape=False)\nresponse.write(\'\\n            \', escape=False)\nresponse.write(\'\\n        </div>\\n\\n        \', escape=False)\nif right_sidebar_enabled:\n    response.write(\'\\n        <div class="span3">\\n            \', escape=False)\n    response.write(\'\\n            <h3>Right Sidebar</h3>\\n            <p></p>\\n            \', escape=False)\n    response.write(\'\\n        </div>\\n        \', escape=False)\n    pass\nresponse.write(\'\\n    </section><!--/main-->\\n\\n    <!-- Footer ================================================== -->\\n    <div class="row">\\n        <footer class="footer span12" id="footer">\\n            <div class="footer-content">\\n                \', escape=False)\nresponse.write(\' <!-- this is default footer -->\\n\\t\\t<div class="copyright pull-left">\', escape=False)\nresponse.write(T(\'Copyright\'))\nresponse.write(\' \\n\\t\\t     <a href="http://web.iiit.ac.in/~saurabh.kathpalia">Saurabh Kathpalia</a>,\\n\\t\\t     <a href="http://web.iiit.ac.in/~gaurav.mishra"> Gaurav Mishra </a>&#169; \', escape=False)\nresponse.write(request.now.year)\nresponse.write(\'</div>\\n                <div id="poweredBy" class="pull-right">\\n                    \', escape=False)\nresponse.write(T(\'Powered by\'))\nresponse.write(\'\\n\\t\\t    <!--  <a href="http://www.web2py.com/">web2py</a>-->\\n\\t\\t    <a href="http://www.iiit.ac.in">IIIT Hyderabad</a>\\n                </div>\\n                \', escape=False)\nresponse.write(\'\\n            </div>\\n        </footer>\\n    </div>\\n\\n  </div> <!-- /container -->\\n\\n  <!-- The javascript =============================================\\n       (Placed at the end of the document so the pages load faster) -->\\n  <script src="\', escape=False)\nresponse.write(URL(\'static\',\'js/bootstrap.min.js\'))\nresponse.write(\'"></script>\\n  <script src="\', escape=False)\nresponse.write(URL(\'static\',\'js/web2py_bootstrap.js\'))\nresponse.write(\'"></script>\\n  <!--[if lt IE 7 ]>\\n      <script src="\', escape=False)\nresponse.write(URL(\'static\',\'js/dd_belatedpng.js\'))\nresponse.write(\'"></script>\\n      <script> DD_belatedPNG.fix(\\\'img, .png_bg\\\'); //fix any <img> or .png_bg background-images </script>\\n      <![endif]-->\\n  \\n  \', escape=False)\nif response.google_analytics_id:\n    response.write(\'\\n  <script src="\', escape=False)\n    response.write(URL(\'static\',\'js/analytics.js\'))\n    response.write(\'"></script>\\n  <script type="text/javascript">\\n  analytics.initialize({\\n    \\\'Google Analytics\\\':{trackingId:\\\'\', escape=False)\n    response.write(response.google_analytics_id)\n    response.write("\'} \\n  });</script>\\n  ", escape=False)\n    pass\nresponse.write(\'\\n  <script src="\', escape=False)\nresponse.write(URL(\'static\',\'js/share.js\',vars=dict(static=URL(\'static\',\'images\'))))\nresponse.write(\'"></script>\\n</body>\\n</html>\\n\\n\', escape=False)'
p7
sS'snapshot'
p8
(dp9
S'exception'
p10
(dp11
S'__hash__'
p12
S"<method-wrapper '__hash__' of exceptions.NameError object>"
p13
sS'__setattr__'
p14
S"<method-wrapper '__setattr__' of exceptions.NameError object>"
p15
sS'__reduce_ex__'
p16
S'<built-in method __reduce_ex__ of exceptions.NameError object>'
p17
sS'__getslice__'
p18
S"<method-wrapper '__getslice__' of exceptions.NameError object>"
p19
sS'__getitem__'
p20
S"<method-wrapper '__getitem__' of exceptions.NameError object>"
p21
sS'__setstate__'
p22
S'<built-in method __setstate__ of exceptions.NameError object>'
p23
sS'__reduce__'
p24
S'<built-in method __reduce__ of exceptions.NameError object>'
p25
sS'__str__'
p26
S"<method-wrapper '__str__' of exceptions.NameError object>"
p27
sS'__format__'
p28
S'<built-in method __format__ of exceptions.NameError object>'
p29
sS'__getattribute__'
p30
S"<method-wrapper '__getattribute__' of exceptions.NameError object>"
p31
sS'__class__'
p32
S"<type 'exceptions.NameError'>"
p33
sS'__unicode__'
p34
S'<built-in method __unicode__ of exceptions.NameError object>'
p35
sS'__delattr__'
p36
S"<method-wrapper '__delattr__' of exceptions.NameError object>"
p37
sS'__subclasshook__'
p38
S'<built-in method __subclasshook__ of type object>'
p39
sS'__repr__'
p40
S"<method-wrapper '__repr__' of exceptions.NameError object>"
p41
sS'args'
p42
S'("name \'form\' is not defined",)'
p43
sS'__dict__'
p44
S'{}'
p45
sS'__sizeof__'
p46
S'<built-in method __sizeof__ of exceptions.NameError object>'
p47
sS'__doc__'
p48
S"'Name not found globally.'"
p49
sS'__init__'
p50
S"<method-wrapper '__init__' of exceptions.NameError object>"
p51
sS'__new__'
p52
S'<built-in method __new__ of type object>'
p53
ssS'evalue'
p54
S"name 'form' is not defined"
p55
sS'request'
p56
ccopy_reg
_reconstructor
p57
(cgluon.html
BEAUTIFY
p58
c__builtin__
object
p59
NtRp60
(dp61
S'attributes'
p62
(dp63
sS'components'
p64
(lp65
g57
(cgluon.html
TABLE
p66
g59
NtRp67
(dp68
g62
(dp69
S'level'
p70
I5
ssS'parent'
p71
Nsg64
(lp72
g57
(cgluon.html
TR
p73
g59
NtRp74
(dp75
g62
(dp76
sg71
g67
sg64
(lp77
g57
(cgluon.html
TD
p78
g59
NtRp79
(dp80
g62
(dp81
S'_style'
p82
S'font-weight:bold;vertical-align:top'
p83
ssg71
g74
sg64
(lp84
S'ajax'
p85
asbag57
(g78
g59
NtRp86
(dp87
g62
(dp88
S'_valign'
p89
S'top'
p90
ssg71
g74
sg64
(lp91
S':'
asbag57
(g78
g59
NtRp92
(dp93
g62
(dp94
sg71
g74
sg64
(lp95
g57
(g58
g59
NtRp96
(dp97
g62
(dp98
g70
I5
ssg71
g92
sg64
(lp99
S'False'
p100
asbasbasbag57
(g73
g59
NtRp101
(dp102
g62
(dp103
sg71
g67
sg64
(lp104
g57
(g78
g59
NtRp105
(dp106
g62
(dp107
g82
g83
ssg71
g101
sg64
(lp108
S'application'
p109
asbag57
(g78
g59
NtRp110
(dp111
g62
(dp112
g89
g90
ssg71
g101
sg64
(lp113
S':'
asbag57
(g78
g59
NtRp114
(dp115
g62
(dp116
sg71
g101
sg64
(lp117
g57
(g58
g59
NtRp118
(dp119
g62
(dp120
g70
I5
ssg71
g114
sg64
(lp121
S'OnlineExamination'
p122
asbasbasbag57
(g73
g59
NtRp123
(dp124
g62
(dp125
sg71
g67
sg64
(lp126
g57
(g78
g59
NtRp127
(dp128
g62
(dp129
g82
g83
ssg71
g123
sg64
(lp130
g42
asbag57
(g78
g59
NtRp131
(dp132
g62
(dp133
g89
g90
ssg71
g123
sg64
(lp134
S':'
asbag57
(g78
g59
NtRp135
(dp136
g62
(dp137
sg71
g123
sg64
(lp138
g57
(g58
g59
NtRp139
(dp140
g62
(dp141
g70
I5
ssg71
g135
sg64
(lp142
g57
(g66
g59
NtRp143
(dp144
g62
(dp145
g70
I4
ssg71
Nsg64
(lp146
sbasbasbasbag57
(g73
g59
NtRp147
(dp148
g62
(dp149
sg71
g67
sg64
(lp150
g57
(g78
g59
NtRp151
(dp152
g62
(dp153
g82
g83
ssg71
g147
sg64
(lp154
S'body'
p155
asbag57
(g78
g59
NtRp156
(dp157
g62
(dp158
g89
g90
ssg71
g147
sg64
(lp159
S':'
asbag57
(g78
g59
NtRp160
(dp161
g62
(dp162
sg71
g147
sg64
(lp163
g57
(g58
g59
NtRp164
(dp165
g62
(dp166
g70
I5
ssg71
g160
sg64
(lp167
S'<cStringIO.StringO object at 0xadc1c280>'
p168
asbasbasbag57
(g73
g59
NtRp169
(dp170
g62
(dp171
sg71
g67
sg64
(lp172
g57
(g78
g59
NtRp173
(dp174
g62
(dp175
g82
g83
ssg71
g169
sg64
(lp176
S'cid'
p177
asbag57
(g78
g59
NtRp178
(dp179
g62
(dp180
g89
g90
ssg71
g169
sg64
(lp181
S':'
asbag57
(g78
g59
NtRp182
(dp183
g62
(dp184
sg71
g169
sg64
(lp185
g57
(g58
g59
NtRp186
(dp187
g62
(dp188
g70
I5
ssg71
g182
sg64
(lp189
S'None'
p190
asbasbasbag57
(g73
g59
NtRp191
(dp192
g62
(dp193
sg71
g67
sg64
(lp194
g57
(g78
g59
NtRp195
(dp196
g62
(dp197
g82
g83
ssg71
g191
sg64
(lp198
S'client'
p199
asbag57
(g78
g59
NtRp200
(dp201
g62
(dp202
g89
g90
ssg71
g191
sg64
(lp203
S':'
asbag57
(g78
g59
NtRp204
(dp205
g62
(dp206
sg71
g191
sg64
(lp207
g57
(g58
g59
NtRp208
(dp209
g62
(dp210
g70
I5
ssg71
g204
sg64
(lp211
S'127.0.0.1'
p212
asbasbasbag57
(g73
g59
NtRp213
(dp214
g62
(dp215
sg71
g67
sg64
(lp216
g57
(g78
g59
NtRp217
(dp218
g62
(dp219
g82
g83
ssg71
g213
sg64
(lp220
S'controller'
p221
asbag57
(g78
g59
NtRp222
(dp223
g62
(dp224
g89
g90
ssg71
g213
sg64
(lp225
S':'
asbag57
(g78
g59
NtRp226
(dp227
g62
(dp228
sg71
g213
sg64
(lp229
g57
(g58
g59
NtRp230
(dp231
g62
(dp232
g70
I5
ssg71
g226
sg64
(lp233
S'default'
p234
asbasbasbag57
(g73
g59
NtRp235
(dp236
g62
(dp237
sg71
g67
sg64
(lp238
g57
(g78
g59
NtRp239
(dp240
g62
(dp241
g82
g83
ssg71
g235
sg64
(lp242
S'cookies'
p243
asbag57
(g78
g59
NtRp244
(dp245
g62
(dp246
g89
g90
ssg71
g235
sg64
(lp247
S':'
asbag57
(g78
g59
NtRp248
(dp249
g62
(dp250
sg71
g235
sg64
(lp251
g57
(g58
g59
NtRp252
(dp253
g62
(dp254
g70
I5
ssg71
g248
sg64
(lp255
g57
(g66
g59
NtRp256
(dp257
g62
(dp258
g70
I4
ssg71
Nsg64
(lp259
g57
(g73
g59
NtRp260
(dp261
g62
(dp262
sg71
g256
sg64
(lp263
g57
(g78
g59
NtRp264
(dp265
g62
(dp266
g82
g83
ssg71
g260
sg64
(lp267
S'session_id_admin'
p268
asbag57
(g78
g59
NtRp269
(dp270
g62
(dp271
g89
g90
ssg71
g260
sg64
(lp272
S':'
asbag57
(g78
g59
NtRp273
(dp274
g62
(dp275
sg71
g260
sg64
(lp276
g57
(g58
g59
NtRp277
(dp278
g62
(dp279
g70
I4
ssg71
g273
sg64
(lp280
S'127.0.0.1-42300d3b-177a-485b-80bb-8744966741ee'
p281
ag57
(g66
g59
NtRp282
(dp283
g62
(dp284
g70
I3
ssg71
Nsg64
(lp285
g57
(g73
g59
NtRp286
(dp287
g62
(dp288
sg71
g282
sg64
(lp289
g57
(g78
g59
NtRp290
(dp291
g62
(dp292
g82
g83
ssg71
g286
sg64
(lp293
S'comment'
p294
asbag57
(g78
g59
NtRp295
(dp296
g62
(dp297
g89
g90
ssg71
g286
sg64
(lp298
S':'
asbag57
(g78
g59
NtRp299
(dp300
g62
(dp301
sg71
g286
sg64
(lp302
g57
(g58
g59
NtRp303
(dp304
g62
(dp305
g70
I3
ssg71
g299
sg64
(lp306
S''
asbasbasbag57
(g73
g59
NtRp307
(dp308
g62
(dp309
sg71
g282
sg64
(lp310
g57
(g78
g59
NtRp311
(dp312
g62
(dp313
g82
g83
ssg71
g307
sg64
(lp314
S'domain'
p315
asbag57
(g78
g59
NtRp316
(dp317
g62
(dp318
g89
g90
ssg71
g307
sg64
(lp319
S':'
asbag57
(g78
g59
NtRp320
(dp321
g62
(dp322
sg71
g307
sg64
(lp323
g57
(g58
g59
NtRp324
(dp325
g62
(dp326
g70
I3
ssg71
g320
sg64
(lp327
S''
asbasbasbag57
(g73
g59
NtRp328
(dp329
g62
(dp330
sg71
g282
sg64
(lp331
g57
(g78
g59
NtRp332
(dp333
g62
(dp334
g82
g83
ssg71
g328
sg64
(lp335
S'expires'
p336
asbag57
(g78
g59
NtRp337
(dp338
g62
(dp339
g89
g90
ssg71
g328
sg64
(lp340
S':'
asbag57
(g78
g59
NtRp341
(dp342
g62
(dp343
sg71
g328
sg64
(lp344
g57
(g58
g59
NtRp345
(dp346
g62
(dp347
g70
I3
ssg71
g341
sg64
(lp348
S''
asbasbasbag57
(g73
g59
NtRp349
(dp350
g62
(dp351
sg71
g282
sg64
(lp352
g57
(g78
g59
NtRp353
(dp354
g62
(dp355
g82
g83
ssg71
g349
sg64
(lp356
S'httponly'
p357
asbag57
(g78
g59
NtRp358
(dp359
g62
(dp360
g89
g90
ssg71
g349
sg64
(lp361
S':'
asbag57
(g78
g59
NtRp362
(dp363
g62
(dp364
sg71
g349
sg64
(lp365
g57
(g58
g59
NtRp366
(dp367
g62
(dp368
g70
I3
ssg71
g362
sg64
(lp369
S''
asbasbasbag57
(g73
g59
NtRp370
(dp371
g62
(dp372
sg71
g282
sg64
(lp373
g57
(g78
g59
NtRp374
(dp375
g62
(dp376
g82
g83
ssg71
g370
sg64
(lp377
S'max-age'
p378
asbag57
(g78
g59
NtRp379
(dp380
g62
(dp381
g89
g90
ssg71
g370
sg64
(lp382
S':'
asbag57
(g78
g59
NtRp383
(dp384
g62
(dp385
sg71
g370
sg64
(lp386
g57
(g58
g59
NtRp387
(dp388
g62
(dp389
g70
I3
ssg71
g383
sg64
(lp390
S''
asbasbasbag57
(g73
g59
NtRp391
(dp392
g62
(dp393
sg71
g282
sg64
(lp394
g57
(g78
g59
NtRp395
(dp396
g62
(dp397
g82
g83
ssg71
g391
sg64
(lp398
S'path'
p399
asbag57
(g78
g59
NtRp400
(dp401
g62
(dp402
g89
g90
ssg71
g391
sg64
(lp403
S':'
asbag57
(g78
g59
NtRp404
(dp405
g62
(dp406
sg71
g391
sg64
(lp407
g57
(g58
g59
NtRp408
(dp409
g62
(dp410
g70
I3
ssg71
g404
sg64
(lp411
S''
asbasbasbag57
(g73
g59
NtRp412
(dp413
g62
(dp414
sg71
g282
sg64
(lp415
g57
(g78
g59
NtRp416
(dp417
g62
(dp418
g82
g83
ssg71
g412
sg64
(lp419
S'secure'
p420
asbag57
(g78
g59
NtRp421
(dp422
g62
(dp423
g89
g90
ssg71
g412
sg64
(lp424
S':'
asbag57
(g78
g59
NtRp425
(dp426
g62
(dp427
sg71
g412
sg64
(lp428
g57
(g58
g59
NtRp429
(dp430
g62
(dp431
g70
I3
ssg71
g425
sg64
(lp432
S''
asbasbasbag57
(g73
g59
NtRp433
(dp434
g62
(dp435
sg71
g282
sg64
(lp436
g57
(g78
g59
NtRp437
(dp438
g62
(dp439
g82
g83
ssg71
g433
sg64
(lp440
S'version'
p441
asbag57
(g78
g59
NtRp442
(dp443
g62
(dp444
g89
g90
ssg71
g433
sg64
(lp445
S':'
asbag57
(g78
g59
NtRp446
(dp447
g62
(dp448
sg71
g433
sg64
(lp449
g57
(g58
g59
NtRp450
(dp451
g62
(dp452
g70
I3
ssg71
g446
sg64
(lp453
S''
asbasbasbasbasbasbasbag57
(g73
g59
NtRp454
(dp455
g62
(dp456
sg71
g256
sg64
(lp457
g57
(g78
g59
NtRp458
(dp459
g62
(dp460
g82
g83
ssg71
g454
sg64
(lp461
S'session_id_onlineexamination'
p462
asbag57
(g78
g59
NtRp463
(dp464
g62
(dp465
g89
g90
ssg71
g454
sg64
(lp466
S':'
asbag57
(g78
g59
NtRp467
(dp468
g62
(dp469
sg71
g454
sg64
(lp470
g57
(g58
g59
NtRp471
(dp472
g62
(dp473
g70
I4
ssg71
g467
sg64
(lp474
S'127.0.0.1-890005ee-6292-472c-99ed-b32ea0089194'
p475
ag57
(g66
g59
NtRp476
(dp477
g62
(dp478
g70
I3
ssg71
Nsg64
(lp479
g57
(g73
g59
NtRp480
(dp481
g62
(dp482
sg71
g476
sg64
(lp483
g57
(g78
g59
NtRp484
(dp485
g62
(dp486
g82
g83
ssg71
g480
sg64
(lp487
g294
asbag57
(g78
g59
NtRp488
(dp489
g62
(dp490
g89
g90
ssg71
g480
sg64
(lp491
S':'
asbag57
(g78
g59
NtRp492
(dp493
g62
(dp494
sg71
g480
sg64
(lp495
g57
(g58
g59
NtRp496
(dp497
g62
(dp498
g70
I3
ssg71
g492
sg64
(lp499
S''
asbasbasbag57
(g73
g59
NtRp500
(dp501
g62
(dp502
sg71
g476
sg64
(lp503
g57
(g78
g59
NtRp504
(dp505
g62
(dp506
g82
g83
ssg71
g500
sg64
(lp507
g315
asbag57
(g78
g59
NtRp508
(dp509
g62
(dp510
g89
g90
ssg71
g500
sg64
(lp511
S':'
asbag57
(g78
g59
NtRp512
(dp513
g62
(dp514
sg71
g500
sg64
(lp515
g57
(g58
g59
NtRp516
(dp517
g62
(dp518
g70
I3
ssg71
g512
sg64
(lp519
S''
asbasbasbag57
(g73
g59
NtRp520
(dp521
g62
(dp522
sg71
g476
sg64
(lp523
g57
(g78
g59
NtRp524
(dp525
g62
(dp526
g82
g83
ssg71
g520
sg64
(lp527
g336
asbag57
(g78
g59
NtRp528
(dp529
g62
(dp530
g89
g90
ssg71
g520
sg64
(lp531
S':'
asbag57
(g78
g59
NtRp532
(dp533
g62
(dp534
sg71
g520
sg64
(lp535
g57
(g58
g59
NtRp536
(dp537
g62
(dp538
g70
I3
ssg71
g532
sg64
(lp539
S''
asbasbasbag57
(g73
g59
NtRp540
(dp541
g62
(dp542
sg71
g476
sg64
(lp543
g57
(g78
g59
NtRp544
(dp545
g62
(dp546
g82
g83
ssg71
g540
sg64
(lp547
g357
asbag57
(g78
g59
NtRp548
(dp549
g62
(dp550
g89
g90
ssg71
g540
sg64
(lp551
S':'
asbag57
(g78
g59
NtRp552
(dp553
g62
(dp554
sg71
g540
sg64
(lp555
g57
(g58
g59
NtRp556
(dp557
g62
(dp558
g70
I3
ssg71
g552
sg64
(lp559
S''
asbasbasbag57
(g73
g59
NtRp560
(dp561
g62
(dp562
sg71
g476
sg64
(lp563
g57
(g78
g59
NtRp564
(dp565
g62
(dp566
g82
g83
ssg71
g560
sg64
(lp567
g378
asbag57
(g78
g59
NtRp568
(dp569
g62
(dp570
g89
g90
ssg71
g560
sg64
(lp571
S':'
asbag57
(g78
g59
NtRp572
(dp573
g62
(dp574
sg71
g560
sg64
(lp575
g57
(g58
g59
NtRp576
(dp577
g62
(dp578
g70
I3
ssg71
g572
sg64
(lp579
S''
asbasbasbag57
(g73
g59
NtRp580
(dp581
g62
(dp582
sg71
g476
sg64
(lp583
g57
(g78
g59
NtRp584
(dp585
g62
(dp586
g82
g83
ssg71
g580
sg64
(lp587
g399
asbag57
(g78
g59
NtRp588
(dp589
g62
(dp590
g89
g90
ssg71
g580
sg64
(lp591
S':'
asbag57
(g78
g59
NtRp592
(dp593
g62
(dp594
sg71
g580
sg64
(lp595
g57
(g58
g59
NtRp596
(dp597
g62
(dp598
g70
I3
ssg71
g592
sg64
(lp599
S''
asbasbasbag57
(g73
g59
NtRp600
(dp601
g62
(dp602
sg71
g476
sg64
(lp603
g57
(g78
g59
NtRp604
(dp605
g62
(dp606
g82
g83
ssg71
g600
sg64
(lp607
g420
asbag57
(g78
g59
NtRp608
(dp609
g62
(dp610
g89
g90
ssg71
g600
sg64
(lp611
S':'
asbag57
(g78
g59
NtRp612
(dp613
g62
(dp614
sg71
g600
sg64
(lp615
g57
(g58
g59
NtRp616
(dp617
g62
(dp618
g70
I3
ssg71
g612
sg64
(lp619
S''
asbasbasbag57
(g73
g59
NtRp620
(dp621
g62
(dp622
sg71
g476
sg64
(lp623
g57
(g78
g59
NtRp624
(dp625
g62
(dp626
g82
g83
ssg71
g620
sg64
(lp627
g441
asbag57
(g78
g59
NtRp628
(dp629
g62
(dp630
g89
g90
ssg71
g620
sg64
(lp631
S':'
asbag57
(g78
g59
NtRp632
(dp633
g62
(dp634
sg71
g620
sg64
(lp635
g57
(g58
g59
NtRp636
(dp637
g62
(dp638
g70
I3
ssg71
g632
sg64
(lp639
S''
asbasbasbasbasbasbasbag57
(g73
g59
NtRp640
(dp641
g62
(dp642
sg71
g256
sg64
(lp643
g57
(g78
g59
NtRp644
(dp645
g62
(dp646
g82
g83
ssg71
g640
sg64
(lp647
S'session_id_welcome'
p648
asbag57
(g78
g59
NtRp649
(dp650
g62
(dp651
g89
g90
ssg71
g640
sg64
(lp652
S':'
asbag57
(g78
g59
NtRp653
(dp654
g62
(dp655
sg71
g640
sg64
(lp656
g57
(g58
g59
NtRp657
(dp658
g62
(dp659
g70
I4
ssg71
g653
sg64
(lp660
S'127.0.0.1-3c4c582f-5478-4324-9266-c453ce96a604'
p661
ag57
(g66
g59
NtRp662
(dp663
g62
(dp664
g70
I3
ssg71
Nsg64
(lp665
g57
(g73
g59
NtRp666
(dp667
g62
(dp668
sg71
g662
sg64
(lp669
g57
(g78
g59
NtRp670
(dp671
g62
(dp672
g82
g83
ssg71
g666
sg64
(lp673
g294
asbag57
(g78
g59
NtRp674
(dp675
g62
(dp676
g89
g90
ssg71
g666
sg64
(lp677
S':'
asbag57
(g78
g59
NtRp678
(dp679
g62
(dp680
sg71
g666
sg64
(lp681
g57
(g58
g59
NtRp682
(dp683
g62
(dp684
g70
I3
ssg71
g678
sg64
(lp685
S''
asbasbasbag57
(g73
g59
NtRp686
(dp687
g62
(dp688
sg71
g662
sg64
(lp689
g57
(g78
g59
NtRp690
(dp691
g62
(dp692
g82
g83
ssg71
g686
sg64
(lp693
g315
asbag57
(g78
g59
NtRp694
(dp695
g62
(dp696
g89
g90
ssg71
g686
sg64
(lp697
S':'
asbag57
(g78
g59
NtRp698
(dp699
g62
(dp700
sg71
g686
sg64
(lp701
g57
(g58
g59
NtRp702
(dp703
g62
(dp704
g70
I3
ssg71
g698
sg64
(lp705
S''
asbasbasbag57
(g73
g59
NtRp706
(dp707
g62
(dp708
sg71
g662
sg64
(lp709
g57
(g78
g59
NtRp710
(dp711
g62
(dp712
g82
g83
ssg71
g706
sg64
(lp713
g336
asbag57
(g78
g59
NtRp714
(dp715
g62
(dp716
g89
g90
ssg71
g706
sg64
(lp717
S':'
asbag57
(g78
g59
NtRp718
(dp719
g62
(dp720
sg71
g706
sg64
(lp721
g57
(g58
g59
NtRp722
(dp723
g62
(dp724
g70
I3
ssg71
g718
sg64
(lp725
S''
asbasbasbag57
(g73
g59
NtRp726
(dp727
g62
(dp728
sg71
g662
sg64
(lp729
g57
(g78
g59
NtRp730
(dp731
g62
(dp732
g82
g83
ssg71
g726
sg64
(lp733
g357
asbag57
(g78
g59
NtRp734
(dp735
g62
(dp736
g89
g90
ssg71
g726
sg64
(lp737
S':'
asbag57
(g78
g59
NtRp738
(dp739
g62
(dp740
sg71
g726
sg64
(lp741
g57
(g58
g59
NtRp742
(dp743
g62
(dp744
g70
I3
ssg71
g738
sg64
(lp745
S''
asbasbasbag57
(g73
g59
NtRp746
(dp747
g62
(dp748
sg71
g662
sg64
(lp749
g57
(g78
g59
NtRp750
(dp751
g62
(dp752
g82
g83
ssg71
g746
sg64
(lp753
g378
asbag57
(g78
g59
NtRp754
(dp755
g62
(dp756
g89
g90
ssg71
g746
sg64
(lp757
S':'
asbag57
(g78
g59
NtRp758
(dp759
g62
(dp760
sg71
g746
sg64
(lp761
g57
(g58
g59
NtRp762
(dp763
g62
(dp764
g70
I3
ssg71
g758
sg64
(lp765
S''
asbasbasbag57
(g73
g59
NtRp766
(dp767
g62
(dp768
sg71
g662
sg64
(lp769
g57
(g78
g59
NtRp770
(dp771
g62
(dp772
g82
g83
ssg71
g766
sg64
(lp773
g399
asbag57
(g78
g59
NtRp774
(dp775
g62
(dp776
g89
g90
ssg71
g766
sg64
(lp777
S':'
asbag57
(g78
g59
NtRp778
(dp779
g62
(dp780
sg71
g766
sg64
(lp781
g57
(g58
g59
NtRp782
(dp783
g62
(dp784
g70
I3
ssg71
g778
sg64
(lp785
S''
asbasbasbag57
(g73
g59
NtRp786
(dp787
g62
(dp788
sg71
g662
sg64
(lp789
g57
(g78
g59
NtRp790
(dp791
g62
(dp792
g82
g83
ssg71
g786
sg64
(lp793
g420
asbag57
(g78
g59
NtRp794
(dp795
g62
(dp796
g89
g90
ssg71
g786
sg64
(lp797
S':'
asbag57
(g78
g59
NtRp798
(dp799
g62
(dp800
sg71
g786
sg64
(lp801
g57
(g58
g59
NtRp802
(dp803
g62
(dp804
g70
I3
ssg71
g798
sg64
(lp805
S''
asbasbasbag57
(g73
g59
NtRp806
(dp807
g62
(dp808
sg71
g662
sg64
(lp809
g57
(g78
g59
NtRp810
(dp811
g62
(dp812
g82
g83
ssg71
g806
sg64
(lp813
g441
asbag57
(g78
g59
NtRp814
(dp815
g62
(dp816
g89
g90
ssg71
g806
sg64
(lp817
S':'
asbag57
(g78
g59
NtRp818
(dp819
g62
(dp820
sg71
g806
sg64
(lp821
g57
(g58
g59
NtRp822
(dp823
g62
(dp824
g70
I3
ssg71
g818
sg64
(lp825
S''
asbasbasbasbasbasbasbasbasbasbasbag57
(g73
g59
NtRp826
(dp827
g62
(dp828
sg71
g67
sg64
(lp829
g57
(g78
g59
NtRp830
(dp831
g62
(dp832
g82
g83
ssg71
g826
sg64
(lp833
S'env'
p834
asbag57
(g78
g59
NtRp835
(dp836
g62
(dp837
g89
g90
ssg71
g826
sg64
(lp838
S':'
asbag57
(g78
g59
NtRp839
(dp840
g62
(dp841
sg71
g826
sg64
(lp842
g57
(g58
g59
NtRp843
(dp844
g62
(dp845
g70
I5
ssg71
g839
sg64
(lp846
g57
(g66
g59
NtRp847
(dp848
g62
(dp849
g70
I4
ssg71
Nsg64
(lp850
g57
(g73
g59
NtRp851
(dp852
g62
(dp853
sg71
g847
sg64
(lp854
g57
(g78
g59
NtRp855
(dp856
g62
(dp857
g82
g83
ssg71
g851
sg64
(lp858
S'app_folders'
p859
asbag57
(g78
g59
NtRp860
(dp861
g62
(dp862
g89
g90
ssg71
g851
sg64
(lp863
S':'
asbag57
(g78
g59
NtRp864
(dp865
g62
(dp866
sg71
g851
sg64
(lp867
g57
(g58
g59
NtRp868
(dp869
g62
(dp870
g70
I4
ssg71
g864
sg64
(lp871
S"set(['/home/gaurav/classwork/WEB_PROGRAMMING/web2py/applications/OnlineExamination/', '/home/gaurav/classwork/WEB_PROGRAMMING/web2py/applications/admin/', '/home/gaurav/classwork/WEB_PROGRAMMING/web2py/applications/welcome/'])"
p872
asbasbasbag57
(g73
g59
NtRp873
(dp874
g62
(dp875
sg71
g847
sg64
(lp876
g57
(g78
g59
NtRp877
(dp878
g62
(dp879
g82
g83
ssg71
g873
sg64
(lp880
S'applications_parent'
p881
asbag57
(g78
g59
NtRp882
(dp883
g62
(dp884
g89
g90
ssg71
g873
sg64
(lp885
S':'
asbag57
(g78
g59
NtRp886
(dp887
g62
(dp888
sg71
g873
sg64
(lp889
g57
(g58
g59
NtRp890
(dp891
g62
(dp892
g70
I4
ssg71
g886
sg64
(lp893
S'/home/gaurav/classwork/WEB_PROGRAMMING/web2py'
p894
asbasbasbag57
(g73
g59
NtRp895
(dp896
g62
(dp897
sg71
g847
sg64
(lp898
g57
(g78
g59
NtRp899
(dp900
g62
(dp901
g82
g83
ssg71
g895
sg64
(lp902
S'cmd_args'
p903
asbag57
(g78
g59
NtRp904
(dp905
g62
(dp906
g89
g90
ssg71
g895
sg64
(lp907
S':'
asbag57
(g78
g59
NtRp908
(dp909
g62
(dp910
sg71
g895
sg64
(lp911
g57
(g58
g59
NtRp912
(dp913
g62
(dp914
g70
I4
ssg71
g908
sg64
(lp915
g57
(g66
g59
NtRp916
(dp917
g62
(dp918
g70
I3
ssg71
Nsg64
(lp919
sbasbasbasbag57
(g73
g59
NtRp920
(dp921
g62
(dp922
sg71
g847
sg64
(lp923
g57
(g78
g59
NtRp924
(dp925
g62
(dp926
g82
g83
ssg71
g920
sg64
(lp927
S'cmd_options'
p928
asbag57
(g78
g59
NtRp929
(dp930
g62
(dp931
g89
g90
ssg71
g920
sg64
(lp932
S':'
asbag57
(g78
g59
NtRp933
(dp934
g62
(dp935
sg71
g920
sg64
(lp936
g57
(g58
g59
NtRp937
(dp938
g62
(dp939
g70
I4
ssg71
g933
sg64
(lp940
S"<Values at 0xa6066ec: {'verbose': False, 'ip': '127.0.0.1', 'with_scheduler': False, 'ips': [], 'shutdown_timeout': 5, 'taskbar': False, 'port': 8000, 'maxthreads': None, 'softcron': False, 'server_name': 'gaurav-Compaq-Presario-C700-Notebook-PC', 'bpython': False, 'nogui': False, 'pid_filename': 'httpserver.pid', 'extcron': False, 'runcron': False, 'run_system_tests': False, 'test': None, 'folder': '/home/gaurav/classwork/WEB_PROGRAMMING/web2py', 'config': '', 'import_models': False, 'winservice': '', 'shell': None, 'run': '', 'log_filename': 'httpserver.log', 'debuglevel': 30, 'args': [''], 'socket_timeout': 5, 'ssl_ca_certificate': None, 'scheduler': None, 'profiler_filename': None, 'ssl_private_key': '', 'scheduler_groups': None, 'password': '<ask>', 'request_queue_size': 5, 'ssl_certificate': '', 'cronjob': False, 'numthreads': None, 'quiet': False, 'interfaces': None, 'minthreads': None, 'timeout': 10, 'plain': False, 'nobanner': False}>"
p941
asbasbasbag57
(g73
g59
NtRp942
(dp943
g62
(dp944
sg71
g847
sg64
(lp945
g57
(g78
g59
NtRp946
(dp947
g62
(dp948
g82
g83
ssg71
g942
sg64
(lp949
S'db_sessions'
p950
asbag57
(g78
g59
NtRp951
(dp952
g62
(dp953
g89
g90
ssg71
g942
sg64
(lp954
S':'
asbag57
(g78
g59
NtRp955
(dp956
g62
(dp957
sg71
g942
sg64
(lp958
g57
(g58
g59
NtRp959
(dp960
g62
(dp961
g70
I4
ssg71
g955
sg64
(lp962
S'set([])'
p963
asbasbasbag57
(g73
g59
NtRp964
(dp965
g62
(dp966
sg71
g847
sg64
(lp967
g57
(g78
g59
NtRp968
(dp969
g62
(dp970
g82
g83
ssg71
g964
sg64
(lp971
S'debugging'
p972
asbag57
(g78
g59
NtRp973
(dp974
g62
(dp975
g89
g90
ssg71
g964
sg64
(lp976
S':'
asbag57
(g78
g59
NtRp977
(dp978
g62
(dp979
sg71
g964
sg64
(lp980
g57
(g58
g59
NtRp981
(dp982
g62
(dp983
g70
I4
ssg71
g977
sg64
(lp984
g100
asbasbasbag57
(g73
g59
NtRp985
(dp986
g62
(dp987
sg71
g847
sg64
(lp988
g57
(g78
g59
NtRp989
(dp990
g62
(dp991
g82
g83
ssg71
g985
sg64
(lp992
S'gluon_parent'
p993
asbag57
(g78
g59
NtRp994
(dp995
g62
(dp996
g89
g90
ssg71
g985
sg64
(lp997
S':'
asbag57
(g78
g59
NtRp998
(dp999
g62
(dp1000
sg71
g985
sg64
(lp1001
g57
(g58
g59
NtRp1002
(dp1003
g62
(dp1004
g70
I4
ssg71
g998
sg64
(lp1005
S'/home/gaurav/classwork/WEB_PROGRAMMING/web2py'
p1006
asbasbasbag57
(g73
g59
NtRp1007
(dp1008
g62
(dp1009
sg71
g847
sg64
(lp1010
g57
(g78
g59
NtRp1011
(dp1012
g62
(dp1013
g82
g83
ssg71
g1007
sg64
(lp1014
S'http_accept'
p1015
asbag57
(g78
g59
NtRp1016
(dp1017
g62
(dp1018
g89
g90
ssg71
g1007
sg64
(lp1019
S':'
asbag57
(g78
g59
NtRp1020
(dp1021
g62
(dp1022
sg71
g1007
sg64
(lp1023
g57
(g58
g59
NtRp1024
(dp1025
g62
(dp1026
g70
I4
ssg71
g1020
sg64
(lp1027
S'text/html,application/xhtml+xml,application/xml;q=0.9,*/*;q=0.8'
p1028
asbasbasbag57
(g73
g59
NtRp1029
(dp1030
g62
(dp1031
sg71
g847
sg64
(lp1032
g57
(g78
g59
NtRp1033
(dp1034
g62
(dp1035
g82
g83
ssg71
g1029
sg64
(lp1036
S'http_accept_encoding'
p1037
asbag57
(g78
g59
NtRp1038
(dp1039
g62
(dp1040
g89
g90
ssg71
g1029
sg64
(lp1041
S':'
asbag57
(g78
g59
NtRp1042
(dp1043
g62
(dp1044
sg71
g1029
sg64
(lp1045
g57
(g58
g59
NtRp1046
(dp1047
g62
(dp1048
g70
I4
ssg71
g1042
sg64
(lp1049
S'gzip, deflate'
p1050
asbasbasbag57
(g73
g59
NtRp1051
(dp1052
g62
(dp1053
sg71
g847
sg64
(lp1054
g57
(g78
g59
NtRp1055
(dp1056
g62
(dp1057
g82
g83
ssg71
g1051
sg64
(lp1058
S'http_accept_language'
p1059
asbag57
(g78
g59
NtRp1060
(dp1061
g62
(dp1062
g89
g90
ssg71
g1051
sg64
(lp1063
S':'
asbag57
(g78
g59
NtRp1064
(dp1065
g62
(dp1066
sg71
g1051
sg64
(lp1067
g57
(g58
g59
NtRp1068
(dp1069
g62
(dp1070
g70
I4
ssg71
g1064
sg64
(lp1071
S'en-US,en;q=0.5'
p1072
asbasbasbag57
(g73
g59
NtRp1073
(dp1074
g62
(dp1075
sg71
g847
sg64
(lp1076
g57
(g78
g59
NtRp1077
(dp1078
g62
(dp1079
g82
g83
ssg71
g1073
sg64
(lp1080
S'http_connection'
p1081
asbag57
(g78
g59
NtRp1082
(dp1083
g62
(dp1084
g89
g90
ssg71
g1073
sg64
(lp1085
S':'
asbag57
(g78
g59
NtRp1086
(dp1087
g62
(dp1088
sg71
g1073
sg64
(lp1089
g57
(g58
g59
NtRp1090
(dp1091
g62
(dp1092
g70
I4
ssg71
g1086
sg64
(lp1093
S'keep-alive'
p1094
asbasbasbag57
(g73
g59
NtRp1095
(dp1096
g62
(dp1097
sg71
g847
sg64
(lp1098
g57
(g78
g59
NtRp1099
(dp1100
g62
(dp1101
g82
g83
ssg71
g1095
sg64
(lp1102
S'http_cookie'
p1103
asbag57
(g78
g59
NtRp1104
(dp1105
g62
(dp1106
g89
g90
ssg71
g1095
sg64
(lp1107
S':'
asbag57
(g78
g59
NtRp1108
(dp1109
g62
(dp1110
sg71
g1095
sg64
(lp1111
g57
(g58
g59
NtRp1112
(dp1113
g62
(dp1114
g70
I4
ssg71
g1108
sg64
(lp1115
S'session_id_welcome=127.0.0.1-3c4c582f-5478-4324-9266-c453ce96a604; session_id_admin=127.0.0.1-42300d3b-177a-485b-80bb-8744966741ee; session_id_onlineexamination=127.0.0.1-890005ee-6292-472c-99ed-b32ea0089194'
p1116
asbasbasbag57
(g73
g59
NtRp1117
(dp1118
g62
(dp1119
sg71
g847
sg64
(lp1120
g57
(g78
g59
NtRp1121
(dp1122
g62
(dp1123
g82
g83
ssg71
g1117
sg64
(lp1124
S'http_host'
p1125
asbag57
(g78
g59
NtRp1126
(dp1127
g62
(dp1128
g89
g90
ssg71
g1117
sg64
(lp1129
S':'
asbag57
(g78
g59
NtRp1130
(dp1131
g62
(dp1132
sg71
g1117
sg64
(lp1133
g57
(g58
g59
NtRp1134
(dp1135
g62
(dp1136
g70
I4
ssg71
g1130
sg64
(lp1137
S'127.0.0.1:8000'
p1138
asbasbasbag57
(g73
g59
NtRp1139
(dp1140
g62
(dp1141
sg71
g847
sg64
(lp1142
g57
(g78
g59
NtRp1143
(dp1144
g62
(dp1145
g82
g83
ssg71
g1139
sg64
(lp1146
S'http_user_agent'
p1147
asbag57
(g78
g59
NtRp1148
(dp1149
g62
(dp1150
g89
g90
ssg71
g1139
sg64
(lp1151
S':'
asbag57
(g78
g59
NtRp1152
(dp1153
g62
(dp1154
sg71
g1139
sg64
(lp1155
g57
(g58
g59
NtRp1156
(dp1157
g62
(dp1158
g70
I4
ssg71
g1152
sg64
(lp1159
S'Mozilla/5.0 (X11; Ubuntu; Linux i686; rv:16.0) Gecko/20100101 Firefox/16.0'
p1160
asbasbasbag57
(g73
g59
NtRp1161
(dp1162
g62
(dp1163
sg71
g847
sg64
(lp1164
g57
(g78
g59
NtRp1165
(dp1166
g62
(dp1167
g82
g83
ssg71
g1161
sg64
(lp1168
S'is_jython'
p1169
asbag57
(g78
g59
NtRp1170
(dp1171
g62
(dp1172
g89
g90
ssg71
g1161
sg64
(lp1173
S':'
asbag57
(g78
g59
NtRp1174
(dp1175
g62
(dp1176
sg71
g1161
sg64
(lp1177
g57
(g58
g59
NtRp1178
(dp1179
g62
(dp1180
g70
I4
ssg71
g1174
sg64
(lp1181
g100
asbasbasbag57
(g73
g59
NtRp1182
(dp1183
g62
(dp1184
sg71
g847
sg64
(lp1185
g57
(g78
g59
NtRp1186
(dp1187
g62
(dp1188
g82
g83
ssg71
g1182
sg64
(lp1189
S'is_pypy'
p1190
asbag57
(g78
g59
NtRp1191
(dp1192
g62
(dp1193
g89
g90
ssg71
g1182
sg64
(lp1194
S':'
asbag57
(g78
g59
NtRp1195
(dp1196
g62
(dp1197
sg71
g1182
sg64
(lp1198
g57
(g58
g59
NtRp1199
(dp1200
g62
(dp1201
g70
I4
ssg71
g1195
sg64
(lp1202
g100
asbasbasbag57
(g73
g59
NtRp1203
(dp1204
g62
(dp1205
sg71
g847
sg64
(lp1206
g57
(g78
g59
NtRp1207
(dp1208
g62
(dp1209
g82
g83
ssg71
g1203
sg64
(lp1210
S'local_hosts'
p1211
asbag57
(g78
g59
NtRp1212
(dp1213
g62
(dp1214
g89
g90
ssg71
g1203
sg64
(lp1215
S':'
asbag57
(g78
g59
NtRp1216
(dp1217
g62
(dp1218
sg71
g1203
sg64
(lp1219
g57
(g58
g59
NtRp1220
(dp1221
g62
(dp1222
g70
I4
ssg71
g1216
sg64
(lp1223
g57
(g66
g59
NtRp1224
(dp1225
g62
(dp1226
g70
I3
ssg71
Nsg64
(lp1227
g57
(g73
g59
NtRp1228
(dp1229
g62
(dp1230
sg71
g1224
sg64
(lp1231
g57
(g78
g59
NtRp1232
(dp1233
g62
(dp1234
sg71
g1228
sg64
(lp1235
g57
(g58
g59
NtRp1236
(dp1237
g62
(dp1238
g70
I3
ssg71
g1232
sg64
(lp1239
S'gaurav-Compaq-Presario-C700-Notebook-PC'
p1240
asbasbasbag57
(g73
g59
NtRp1241
(dp1242
g62
(dp1243
sg71
g1224
sg64
(lp1244
g57
(g78
g59
NtRp1245
(dp1246
g62
(dp1247
sg71
g1241
sg64
(lp1248
g57
(g58
g59
NtRp1249
(dp1250
g62
(dp1251
g70
I3
ssg71
g1245
sg64
(lp1252
S'::1'
p1253
asbasbasbag57
(g73
g59
NtRp1254
(dp1255
g62
(dp1256
sg71
g1224
sg64
(lp1257
g57
(g78
g59
NtRp1258
(dp1259
g62
(dp1260
sg71
g1254
sg64
(lp1261
g57
(g58
g59
NtRp1262
(dp1263
g62
(dp1264
g70
I3
ssg71
g1258
sg64
(lp1265
S'127.0.1.1'
p1266
asbasbasbag57
(g73
g59
NtRp1267
(dp1268
g62
(dp1269
sg71
g1224
sg64
(lp1270
g57
(g78
g59
NtRp1271
(dp1272
g62
(dp1273
sg71
g1267
sg64
(lp1274
g57
(g58
g59
NtRp1275
(dp1276
g62
(dp1277
g70
I3
ssg71
g1271
sg64
(lp1278
S'::ffff:127.0.0.1'
p1279
asbasbasbag57
(g73
g59
NtRp1280
(dp1281
g62
(dp1282
sg71
g1224
sg64
(lp1283
g57
(g78
g59
NtRp1284
(dp1285
g62
(dp1286
sg71
g1280
sg64
(lp1287
g57
(g58
g59
NtRp1288
(dp1289
g62
(dp1290
g70
I3
ssg71
g1284
sg64
(lp1291
S'127.0.0.1'
p1292
asbasbasbasbasbasbasbag57
(g73
g59
NtRp1293
(dp1294
g62
(dp1295
sg71
g847
sg64
(lp1296
g57
(g78
g59
NtRp1297
(dp1298
g62
(dp1299
g82
g83
ssg71
g1293
sg64
(lp1300
S'path_info'
p1301
asbag57
(g78
g59
NtRp1302
(dp1303
g62
(dp1304
g89
g90
ssg71
g1293
sg64
(lp1305
S':'
asbag57
(g78
g59
NtRp1306
(dp1307
g62
(dp1308
sg71
g1293
sg64
(lp1309
g57
(g58
g59
NtRp1310
(dp1311
g62
(dp1312
g70
I4
ssg71
g1306
sg64
(lp1313
S'/OnlineExamination/default/show_paper.html'
p1314
asbasbasbag57
(g73
g59
NtRp1315
(dp1316
g62
(dp1317
sg71
g847
sg64
(lp1318
g57
(g78
g59
NtRp1319
(dp1320
g62
(dp1321
g82
g83
ssg71
g1315
sg64
(lp1322
S'query_string'
p1323
asbag57
(g78
g59
NtRp1324
(dp1325
g62
(dp1326
g89
g90
ssg71
g1315
sg64
(lp1327
S':'
asbag57
(g78
g59
NtRp1328
(dp1329
g62
(dp1330
sg71
g1315
sg64
(lp1331
g57
(g58
g59
NtRp1332
(dp1333
g62
(dp1334
g70
I4
ssg71
g1328
sg64
(lp1335
S''
asbasbasbag57
(g73
g59
NtRp1336
(dp1337
g62
(dp1338
sg71
g847
sg64
(lp1339
g57
(g78
g59
NtRp1340
(dp1341
g62
(dp1342
g82
g83
ssg71
g1336
sg64
(lp1343
S'remote_addr'
p1344
asbag57
(g78
g59
NtRp1345
(dp1346
g62
(dp1347
g89
g90
ssg71
g1336
sg64
(lp1348
S':'
asbag57
(g78
g59
NtRp1349
(dp1350
g62
(dp1351
sg71
g1336
sg64
(lp1352
g57
(g58
g59
NtRp1353
(dp1354
g62
(dp1355
g70
I4
ssg71
g1349
sg64
(lp1356
g212
asbasbasbag57
(g73
g59
NtRp1357
(dp1358
g62
(dp1359
sg71
g847
sg64
(lp1360
g57
(g78
g59
NtRp1361
(dp1362
g62
(dp1363
g82
g83
ssg71
g1357
sg64
(lp1364
S'remote_port'
p1365
asbag57
(g78
g59
NtRp1366
(dp1367
g62
(dp1368
g89
g90
ssg71
g1357
sg64
(lp1369
S':'
asbag57
(g78
g59
NtRp1370
(dp1371
g62
(dp1372
sg71
g1357
sg64
(lp1373
g57
(g58
g59
NtRp1374
(dp1375
g62
(dp1376
g70
I4
ssg71
g1370
sg64
(lp1377
S'57243'
p1378
asbasbasbag57
(g73
g59
NtRp1379
(dp1380
g62
(dp1381
sg71
g847
sg64
(lp1382
g57
(g78
g59
NtRp1383
(dp1384
g62
(dp1385
g82
g83
ssg71
g1379
sg64
(lp1386
S'request_method'
p1387
asbag57
(g78
g59
NtRp1388
(dp1389
g62
(dp1390
g89
g90
ssg71
g1379
sg64
(lp1391
S':'
asbag57
(g78
g59
NtRp1392
(dp1393
g62
(dp1394
sg71
g1379
sg64
(lp1395
g57
(g58
g59
NtRp1396
(dp1397
g62
(dp1398
g70
I4
ssg71
g1392
sg64
(lp1399
S'GET'
p1400
asbasbasbag57
(g73
g59
NtRp1401
(dp1402
g62
(dp1403
sg71
g847
sg64
(lp1404
g57
(g78
g59
NtRp1405
(dp1406
g62
(dp1407
g82
g83
ssg71
g1401
sg64
(lp1408
S'request_uri'
p1409
asbag57
(g78
g59
NtRp1410
(dp1411
g62
(dp1412
g89
g90
ssg71
g1401
sg64
(lp1413
S':'
asbag57
(g78
g59
NtRp1414
(dp1415
g62
(dp1416
sg71
g1401
sg64
(lp1417
g57
(g58
g59
NtRp1418
(dp1419
g62
(dp1420
g70
I4
ssg71
g1414
sg64
(lp1421
g1314
asbasbasbag57
(g73
g59
NtRp1422
(dp1423
g62
(dp1424
sg71
g847
sg64
(lp1425
g57
(g78
g59
NtRp1426
(dp1427
g62
(dp1428
g82
g83
ssg71
g1422
sg64
(lp1429
S'script_name'
p1430
asbag57
(g78
g59
NtRp1431
(dp1432
g62
(dp1433
g89
g90
ssg71
g1422
sg64
(lp1434
S':'
asbag57
(g78
g59
NtRp1435
(dp1436
g62
(dp1437
sg71
g1422
sg64
(lp1438
g57
(g58
g59
NtRp1439
(dp1440
g62
(dp1441
g70
I4
ssg71
g1435
sg64
(lp1442
S''
asbasbasbag57
(g73
g59
NtRp1443
(dp1444
g62
(dp1445
sg71
g847
sg64
(lp1446
g57
(g78
g59
NtRp1447
(dp1448
g62
(dp1449
g82
g83
ssg71
g1443
sg64
(lp1450
S'server_name'
p1451
asbag57
(g78
g59
NtRp1452
(dp1453
g62
(dp1454
g89
g90
ssg71
g1443
sg64
(lp1455
S':'
asbag57
(g78
g59
NtRp1456
(dp1457
g62
(dp1458
sg71
g1443
sg64
(lp1459
g57
(g58
g59
NtRp1460
(dp1461
g62
(dp1462
g70
I4
ssg71
g1456
sg64
(lp1463
S'gaurav-Compaq-Presario-C700-Notebook-PC'
p1464
asbasbasbag57
(g73
g59
NtRp1465
(dp1466
g62
(dp1467
sg71
g847
sg64
(lp1468
g57
(g78
g59
NtRp1469
(dp1470
g62
(dp1471
g82
g83
ssg71
g1465
sg64
(lp1472
S'server_port'
p1473
asbag57
(g78
g59
NtRp1474
(dp1475
g62
(dp1476
g89
g90
ssg71
g1465
sg64
(lp1477
S':'
asbag57
(g78
g59
NtRp1478
(dp1479
g62
(dp1480
sg71
g1465
sg64
(lp1481
g57
(g58
g59
NtRp1482
(dp1483
g62
(dp1484
g70
I4
ssg71
g1478
sg64
(lp1485
S'8000'
p1486
asbasbasbag57
(g73
g59
NtRp1487
(dp1488
g62
(dp1489
sg71
g847
sg64
(lp1490
g57
(g78
g59
NtRp1491
(dp1492
g62
(dp1493
g82
g83
ssg71
g1487
sg64
(lp1494
S'server_protocol'
p1495
asbag57
(g78
g59
NtRp1496
(dp1497
g62
(dp1498
g89
g90
ssg71
g1487
sg64
(lp1499
S':'
asbag57
(g78
g59
NtRp1500
(dp1501
g62
(dp1502
sg71
g1487
sg64
(lp1503
g57
(g58
g59
NtRp1504
(dp1505
g62
(dp1506
g70
I4
ssg71
g1500
sg64
(lp1507
S'HTTP/1.1'
p1508
asbasbasbag57
(g73
g59
NtRp1509
(dp1510
g62
(dp1511
sg71
g847
sg64
(lp1512
g57
(g78
g59
NtRp1513
(dp1514
g62
(dp1515
g82
g83
ssg71
g1509
sg64
(lp1516
S'server_software'
p1517
asbag57
(g78
g59
NtRp1518
(dp1519
g62
(dp1520
g89
g90
ssg71
g1509
sg64
(lp1521
S':'
asbag57
(g78
g59
NtRp1522
(dp1523
g62
(dp1524
sg71
g1509
sg64
(lp1525
g57
(g58
g59
NtRp1526
(dp1527
g62
(dp1528
g70
I4
ssg71
g1522
sg64
(lp1529
S'Rocket 1.2.6'
p1530
asbasbasbag57
(g73
g59
NtRp1531
(dp1532
g62
(dp1533
sg71
g847
sg64
(lp1534
g57
(g78
g59
NtRp1535
(dp1536
g62
(dp1537
g82
g83
ssg71
g1531
sg64
(lp1538
S'web2py_path'
p1539
asbag57
(g78
g59
NtRp1540
(dp1541
g62
(dp1542
g89
g90
ssg71
g1531
sg64
(lp1543
S':'
asbag57
(g78
g59
NtRp1544
(dp1545
g62
(dp1546
sg71
g1531
sg64
(lp1547
g57
(g58
g59
NtRp1548
(dp1549
g62
(dp1550
g70
I4
ssg71
g1544
sg64
(lp1551
g894
asbasbasbag57
(g73
g59
NtRp1552
(dp1553
g62
(dp1554
sg71
g847
sg64
(lp1555
g57
(g78
g59
NtRp1556
(dp1557
g62
(dp1558
g82
g83
ssg71
g1552
sg64
(lp1559
S'web2py_version'
p1560
asbag57
(g78
g59
NtRp1561
(dp1562
g62
(dp1563
g89
g90
ssg71
g1552
sg64
(lp1564
S':'
asbag57
(g78
g59
NtRp1565
(dp1566
g62
(dp1567
sg71
g1552
sg64
(lp1568
g57
(g58
g59
NtRp1569
(dp1570
g62
(dp1571
g70
I4
ssg71
g1565
sg64
(lp1572
g57
(g66
g59
NtRp1573
(dp1574
g62
(dp1575
g70
I3
ssg71
Nsg64
(lp1576
g57
(g73
g59
NtRp1577
(dp1578
g62
(dp1579
sg71
g1573
sg64
(lp1580
g57
(g78
g59
NtRp1581
(dp1582
g62
(dp1583
sg71
g1577
sg64
(lp1584
g57
(g58
g59
NtRp1585
(dp1586
g62
(dp1587
g70
I3
ssg71
g1581
sg64
(lp1588
S'2'
asbasbasbag57
(g73
g59
NtRp1589
(dp1590
g62
(dp1591
sg71
g1573
sg64
(lp1592
g57
(g78
g59
NtRp1593
(dp1594
g62
(dp1595
sg71
g1589
sg64
(lp1596
g57
(g58
g59
NtRp1597
(dp1598
g62
(dp1599
g70
I3
ssg71
g1593
sg64
(lp1600
S'3'
asbasbasbag57
(g73
g59
NtRp1601
(dp1602
g62
(dp1603
sg71
g1573
sg64
(lp1604
g57
(g78
g59
NtRp1605
(dp1606
g62
(dp1607
sg71
g1601
sg64
(lp1608
g57
(g58
g59
NtRp1609
(dp1610
g62
(dp1611
g70
I3
ssg71
g1605
sg64
(lp1612
S'2'
asbasbasbag57
(g73
g59
NtRp1613
(dp1614
g62
(dp1615
sg71
g1573
sg64
(lp1616
g57
(g78
g59
NtRp1617
(dp1618
g62
(dp1619
sg71
g1613
sg64
(lp1620
g57
(g58
g59
NtRp1621
(dp1622
g62
(dp1623
g70
I3
ssg71
g1617
sg64
(lp1624
S'datetime.datetime(2012, 12, 17, 15, 3, 30)'
p1625
asbasbasbag57
(g73
g59
NtRp1626
(dp1627
g62
(dp1628
sg71
g1573
sg64
(lp1629
g57
(g78
g59
NtRp1630
(dp1631
g62
(dp1632
sg71
g1626
sg64
(lp1633
g57
(g58
g59
NtRp1634
(dp1635
g62
(dp1636
g70
I3
ssg71
g1630
sg64
(lp1637
S'stable'
p1638
asbasbasbasbasbasbasbag57
(g73
g59
NtRp1639
(dp1640
g62
(dp1641
sg71
g847
sg64
(lp1642
g57
(g78
g59
NtRp1643
(dp1644
g62
(dp1645
g82
g83
ssg71
g1639
sg64
(lp1646
S'wsgi_errors'
p1647
asbag57
(g78
g59
NtRp1648
(dp1649
g62
(dp1650
g89
g90
ssg71
g1639
sg64
(lp1651
S':'
asbag57
(g78
g59
NtRp1652
(dp1653
g62
(dp1654
sg71
g1639
sg64
(lp1655
g57
(g58
g59
NtRp1656
(dp1657
g62
(dp1658
g70
I4
ssg71
g1652
sg64
(lp1659
S"<open file '<stderr>', mode 'w' at 0xb75540d0>"
p1660
asbasbasbag57
(g73
g59
NtRp1661
(dp1662
g62
(dp1663
sg71
g847
sg64
(lp1664
g57
(g78
g59
NtRp1665
(dp1666
g62
(dp1667
g82
g83
ssg71
g1661
sg64
(lp1668
S'wsgi_file_wrapper'
p1669
asbag57
(g78
g59
NtRp1670
(dp1671
g62
(dp1672
g89
g90
ssg71
g1661
sg64
(lp1673
S':'
asbag57
(g78
g59
NtRp1674
(dp1675
g62
(dp1676
sg71
g1661
sg64
(lp1677
g57
(g58
g59
NtRp1678
(dp1679
g62
(dp1680
g70
I4
ssg71
g1674
sg64
(lp1681
S'<class wsgiref.util.FileWrapper at 0xa5b8ecc>'
p1682
asbasbasbag57
(g73
g59
NtRp1683
(dp1684
g62
(dp1685
sg71
g847
sg64
(lp1686
g57
(g78
g59
NtRp1687
(dp1688
g62
(dp1689
g82
g83
ssg71
g1683
sg64
(lp1690
S'wsgi_input'
p1691
asbag57
(g78
g59
NtRp1692
(dp1693
g62
(dp1694
g89
g90
ssg71
g1683
sg64
(lp1695
S':'
asbag57
(g78
g59
NtRp1696
(dp1697
g62
(dp1698
sg71
g1683
sg64
(lp1699
g57
(g58
g59
NtRp1700
(dp1701
g62
(dp1702
g70
I4
ssg71
g1696
sg64
(lp1703
S'<socket._fileobject object at 0xac3d76c>'
p1704
asbasbasbag57
(g73
g59
NtRp1705
(dp1706
g62
(dp1707
sg71
g847
sg64
(lp1708
g57
(g78
g59
NtRp1709
(dp1710
g62
(dp1711
g82
g83
ssg71
g1705
sg64
(lp1712
S'wsgi_multiprocess'
p1713
asbag57
(g78
g59
NtRp1714
(dp1715
g62
(dp1716
g89
g90
ssg71
g1705
sg64
(lp1717
S':'
asbag57
(g78
g59
NtRp1718
(dp1719
g62
(dp1720
sg71
g1705
sg64
(lp1721
g57
(g58
g59
NtRp1722
(dp1723
g62
(dp1724
g70
I4
ssg71
g1718
sg64
(lp1725
g100
asbasbasbag57
(g73
g59
NtRp1726
(dp1727
g62
(dp1728
sg71
g847
sg64
(lp1729
g57
(g78
g59
NtRp1730
(dp1731
g62
(dp1732
g82
g83
ssg71
g1726
sg64
(lp1733
S'wsgi_multithread'
p1734
asbag57
(g78
g59
NtRp1735
(dp1736
g62
(dp1737
g89
g90
ssg71
g1726
sg64
(lp1738
S':'
asbag57
(g78
g59
NtRp1739
(dp1740
g62
(dp1741
sg71
g1726
sg64
(lp1742
g57
(g58
g59
NtRp1743
(dp1744
g62
(dp1745
g70
I4
ssg71
g1739
sg64
(lp1746
S'True'
p1747
asbasbasbag57
(g73
g59
NtRp1748
(dp1749
g62
(dp1750
sg71
g847
sg64
(lp1751
g57
(g78
g59
NtRp1752
(dp1753
g62
(dp1754
g82
g83
ssg71
g1748
sg64
(lp1755
S'wsgi_run_once'
p1756
asbag57
(g78
g59
NtRp1757
(dp1758
g62
(dp1759
g89
g90
ssg71
g1748
sg64
(lp1760
S':'
asbag57
(g78
g59
NtRp1761
(dp1762
g62
(dp1763
sg71
g1748
sg64
(lp1764
g57
(g58
g59
NtRp1765
(dp1766
g62
(dp1767
g70
I4
ssg71
g1761
sg64
(lp1768
g100
asbasbasbag57
(g73
g59
NtRp1769
(dp1770
g62
(dp1771
sg71
g847
sg64
(lp1772
g57
(g78
g59
NtRp1773
(dp1774
g62
(dp1775
g82
g83
ssg71
g1769
sg64
(lp1776
S'wsgi_url_scheme'
p1777
asbag57
(g78
g59
NtRp1778
(dp1779
g62
(dp1780
g89
g90
ssg71
g1769
sg64
(lp1781
S':'
asbag57
(g78
g59
NtRp1782
(dp1783
g62
(dp1784
sg71
g1769
sg64
(lp1785
g57
(g58
g59
NtRp1786
(dp1787
g62
(dp1788
g70
I4
ssg71
g1782
sg64
(lp1789
S'http'
p1790
asbasbasbag57
(g73
g59
NtRp1791
(dp1792
g62
(dp1793
sg71
g847
sg64
(lp1794
g57
(g78
g59
NtRp1795
(dp1796
g62
(dp1797
g82
g83
ssg71
g1791
sg64
(lp1798
S'wsgi_version'
p1799
asbag57
(g78
g59
NtRp1800
(dp1801
g62
(dp1802
g89
g90
ssg71
g1791
sg64
(lp1803
S':'
asbag57
(g78
g59
NtRp1804
(dp1805
g62
(dp1806
sg71
g1791
sg64
(lp1807
g57
(g58
g59
NtRp1808
(dp1809
g62
(dp1810
g70
I4
ssg71
g1804
sg64
(lp1811
g57
(g66
g59
NtRp1812
(dp1813
g62
(dp1814
g70
I3
ssg71
Nsg64
(lp1815
g57
(g73
g59
NtRp1816
(dp1817
g62
(dp1818
sg71
g1812
sg64
(lp1819
g57
(g78
g59
NtRp1820
(dp1821
g62
(dp1822
sg71
g1816
sg64
(lp1823
g57
(g58
g59
NtRp1824
(dp1825
g62
(dp1826
g70
I3
ssg71
g1820
sg64
(lp1827
S'1'
asbasbasbag57
(g73
g59
NtRp1828
(dp1829
g62
(dp1830
sg71
g1812
sg64
(lp1831
g57
(g78
g59
NtRp1832
(dp1833
g62
(dp1834
sg71
g1828
sg64
(lp1835
g57
(g58
g59
NtRp1836
(dp1837
g62
(dp1838
g70
I3
ssg71
g1832
sg64
(lp1839
S'0'
asbasbasbasbasbasbasbasbasbasbasbag57
(g73
g59
NtRp1840
(dp1841
g62
(dp1842
sg71
g67
sg64
(lp1843
g57
(g78
g59
NtRp1844
(dp1845
g62
(dp1846
g82
g83
ssg71
g1840
sg64
(lp1847
S'extension'
p1848
asbag57
(g78
g59
NtRp1849
(dp1850
g62
(dp1851
g89
g90
ssg71
g1840
sg64
(lp1852
S':'
asbag57
(g78
g59
NtRp1853
(dp1854
g62
(dp1855
sg71
g1840
sg64
(lp1856
g57
(g58
g59
NtRp1857
(dp1858
g62
(dp1859
g70
I5
ssg71
g1853
sg64
(lp1860
S'html'
p1861
asbasbasbag57
(g73
g59
NtRp1862
(dp1863
g62
(dp1864
sg71
g67
sg64
(lp1865
g57
(g78
g59
NtRp1866
(dp1867
g62
(dp1868
g82
g83
ssg71
g1862
sg64
(lp1869
S'folder'
p1870
asbag57
(g78
g59
NtRp1871
(dp1872
g62
(dp1873
g89
g90
ssg71
g1862
sg64
(lp1874
S':'
asbag57
(g78
g59
NtRp1875
(dp1876
g62
(dp1877
sg71
g1862
sg64
(lp1878
g57
(g58
g59
NtRp1879
(dp1880
g62
(dp1881
g70
I5
ssg71
g1875
sg64
(lp1882
S'/home/gaurav/classwork/WEB_PROGRAMMING/web2py/applications/OnlineExamination/'
p1883
asbasbasbag57
(g73
g59
NtRp1884
(dp1885
g62
(dp1886
sg71
g67
sg64
(lp1887
g57
(g78
g59
NtRp1888
(dp1889
g62
(dp1890
g82
g83
ssg71
g1884
sg64
(lp1891
S'function'
p1892
asbag57
(g78
g59
NtRp1893
(dp1894
g62
(dp1895
g89
g90
ssg71
g1884
sg64
(lp1896
S':'
asbag57
(g78
g59
NtRp1897
(dp1898
g62
(dp1899
sg71
g1884
sg64
(lp1900
g57
(g58
g59
NtRp1901
(dp1902
g62
(dp1903
g70
I5
ssg71
g1897
sg64
(lp1904
S'show_paper'
p1905
asbasbasbag57
(g73
g59
NtRp1906
(dp1907
g62
(dp1908
sg71
g67
sg64
(lp1909
g57
(g78
g59
NtRp1910
(dp1911
g62
(dp1912
g82
g83
ssg71
g1906
sg64
(lp1913
S'get_vars'
p1914
asbag57
(g78
g59
NtRp1915
(dp1916
g62
(dp1917
g89
g90
ssg71
g1906
sg64
(lp1918
S':'
asbag57
(g78
g59
NtRp1919
(dp1920
g62
(dp1921
sg71
g1906
sg64
(lp1922
g57
(g58
g59
NtRp1923
(dp1924
g62
(dp1925
g70
I5
ssg71
g1919
sg64
(lp1926
g57
(g66
g59
NtRp1927
(dp1928
g62
(dp1929
g70
I4
ssg71
Nsg64
(lp1930
sbasbasbasbag57
(g73
g59
NtRp1931
(dp1932
g62
(dp1933
sg71
g67
sg64
(lp1934
g57
(g78
g59
NtRp1935
(dp1936
g62
(dp1937
g82
g83
ssg71
g1931
sg64
(lp1938
S'global_settings'
p1939
asbag57
(g78
g59
NtRp1940
(dp1941
g62
(dp1942
g89
g90
ssg71
g1931
sg64
(lp1943
S':'
asbag57
(g78
g59
NtRp1944
(dp1945
g62
(dp1946
sg71
g1931
sg64
(lp1947
g57
(g58
g59
NtRp1948
(dp1949
g62
(dp1950
g70
I5
ssg71
g1944
sg64
(lp1951
g57
(g66
g59
NtRp1952
(dp1953
g62
(dp1954
g70
I4
ssg71
Nsg64
(lp1955
g57
(g73
g59
NtRp1956
(dp1957
g62
(dp1958
sg71
g1952
sg64
(lp1959
g57
(g78
g59
NtRp1960
(dp1961
g62
(dp1962
g82
g83
ssg71
g1956
sg64
(lp1963
g859
asbag57
(g78
g59
NtRp1964
(dp1965
g62
(dp1966
g89
g90
ssg71
g1956
sg64
(lp1967
S':'
asbag57
(g78
g59
NtRp1968
(dp1969
g62
(dp1970
sg71
g1956
sg64
(lp1971
g57
(g58
g59
NtRp1972
(dp1973
g62
(dp1974
g70
I4
ssg71
g1968
sg64
(lp1975
S"set(['/home/gaurav/classwork/WEB_PROGRAMMING/web2py/applications/OnlineExamination/', '/home/gaurav/classwork/WEB_PROGRAMMING/web2py/applications/admin/', '/home/gaurav/classwork/WEB_PROGRAMMING/web2py/applications/welcome/'])"
p1976
asbasbasbag57
(g73
g59
NtRp1977
(dp1978
g62
(dp1979
sg71
g1952
sg64
(lp1980
g57
(g78
g59
NtRp1981
(dp1982
g62
(dp1983
g82
g83
ssg71
g1977
sg64
(lp1984
g881
asbag57
(g78
g59
NtRp1985
(dp1986
g62
(dp1987
g89
g90
ssg71
g1977
sg64
(lp1988
S':'
asbag57
(g78
g59
NtRp1989
(dp1990
g62
(dp1991
sg71
g1977
sg64
(lp1992
g57
(g58
g59
NtRp1993
(dp1994
g62
(dp1995
g70
I4
ssg71
g1989
sg64
(lp1996
g894
asbasbasbag57
(g73
g59
NtRp1997
(dp1998
g62
(dp1999
sg71
g1952
sg64
(lp2000
g57
(g78
g59
NtRp2001
(dp2002
g62
(dp2003
g82
g83
ssg71
g1997
sg64
(lp2004
g903
asbag57
(g78
g59
NtRp2005
(dp2006
g62
(dp2007
g89
g90
ssg71
g1997
sg64
(lp2008
S':'
asbag57
(g78
g59
NtRp2009
(dp2010
g62
(dp2011
sg71
g1997
sg64
(lp2012
g57
(g58
g59
NtRp2013
(dp2014
g62
(dp2015
g70
I4
ssg71
g2009
sg64
(lp2016
g57
(g66
g59
NtRp2017
(dp2018
g62
(dp2019
g70
I3
ssg71
Nsg64
(lp2020
sbasbasbasbag57
(g73
g59
NtRp2021
(dp2022
g62
(dp2023
sg71
g1952
sg64
(lp2024
g57
(g78
g59
NtRp2025
(dp2026
g62
(dp2027
g82
g83
ssg71
g2021
sg64
(lp2028
g928
asbag57
(g78
g59
NtRp2029
(dp2030
g62
(dp2031
g89
g90
ssg71
g2021
sg64
(lp2032
S':'
asbag57
(g78
g59
NtRp2033
(dp2034
g62
(dp2035
sg71
g2021
sg64
(lp2036
g57
(g58
g59
NtRp2037
(dp2038
g62
(dp2039
g70
I4
ssg71
g2033
sg64
(lp2040
S"<Values at 0xa6066ec: {'verbose': False, 'ip': '127.0.0.1', 'with_scheduler': False, 'ips': [], 'shutdown_timeout': 5, 'taskbar': False, 'port': 8000, 'maxthreads': None, 'softcron': False, 'server_name': 'gaurav-Compaq-Presario-C700-Notebook-PC', 'bpython': False, 'nogui': False, 'pid_filename': 'httpserver.pid', 'extcron': False, 'runcron': False, 'run_system_tests': False, 'test': None, 'folder': '/home/gaurav/classwork/WEB_PROGRAMMING/web2py', 'config': '', 'import_models': False, 'winservice': '', 'shell': None, 'run': '', 'log_filename': 'httpserver.log', 'debuglevel': 30, 'args': [''], 'socket_timeout': 5, 'ssl_ca_certificate': None, 'scheduler': None, 'profiler_filename': None, 'ssl_private_key': '', 'scheduler_groups': None, 'password': '<ask>', 'request_queue_size': 5, 'ssl_certificate': '', 'cronjob': False, 'numthreads': None, 'quiet': False, 'interfaces': None, 'minthreads': None, 'timeout': 10, 'plain': False, 'nobanner': False}>"
p2041
asbasbasbag57
(g73
g59
NtRp2042
(dp2043
g62
(dp2044
sg71
g1952
sg64
(lp2045
g57
(g78
g59
NtRp2046
(dp2047
g62
(dp2048
g82
g83
ssg71
g2042
sg64
(lp2049
g950
asbag57
(g78
g59
NtRp2050
(dp2051
g62
(dp2052
g89
g90
ssg71
g2042
sg64
(lp2053
S':'
asbag57
(g78
g59
NtRp2054
(dp2055
g62
(dp2056
sg71
g2042
sg64
(lp2057
g57
(g58
g59
NtRp2058
(dp2059
g62
(dp2060
g70
I4
ssg71
g2054
sg64
(lp2061
S'set([])'
p2062
asbasbasbag57
(g73
g59
NtRp2063
(dp2064
g62
(dp2065
sg71
g1952
sg64
(lp2066
g57
(g78
g59
NtRp2067
(dp2068
g62
(dp2069
g82
g83
ssg71
g2063
sg64
(lp2070
g972
asbag57
(g78
g59
NtRp2071
(dp2072
g62
(dp2073
g89
g90
ssg71
g2063
sg64
(lp2074
S':'
asbag57
(g78
g59
NtRp2075
(dp2076
g62
(dp2077
sg71
g2063
sg64
(lp2078
g57
(g58
g59
NtRp2079
(dp2080
g62
(dp2081
g70
I4
ssg71
g2075
sg64
(lp2082
g100
asbasbasbag57
(g73
g59
NtRp2083
(dp2084
g62
(dp2085
sg71
g1952
sg64
(lp2086
g57
(g78
g59
NtRp2087
(dp2088
g62
(dp2089
g82
g83
ssg71
g2083
sg64
(lp2090
g993
asbag57
(g78
g59
NtRp2091
(dp2092
g62
(dp2093
g89
g90
ssg71
g2083
sg64
(lp2094
S':'
asbag57
(g78
g59
NtRp2095
(dp2096
g62
(dp2097
sg71
g2083
sg64
(lp2098
g57
(g58
g59
NtRp2099
(dp2100
g62
(dp2101
g70
I4
ssg71
g2095
sg64
(lp2102
g1006
asbasbasbag57
(g73
g59
NtRp2103
(dp2104
g62
(dp2105
sg71
g1952
sg64
(lp2106
g57
(g78
g59
NtRp2107
(dp2108
g62
(dp2109
g82
g83
ssg71
g2103
sg64
(lp2110
g1169
asbag57
(g78
g59
NtRp2111
(dp2112
g62
(dp2113
g89
g90
ssg71
g2103
sg64
(lp2114
S':'
asbag57
(g78
g59
NtRp2115
(dp2116
g62
(dp2117
sg71
g2103
sg64
(lp2118
g57
(g58
g59
NtRp2119
(dp2120
g62
(dp2121
g70
I4
ssg71
g2115
sg64
(lp2122
g100
asbasbasbag57
(g73
g59
NtRp2123
(dp2124
g62
(dp2125
sg71
g1952
sg64
(lp2126
g57
(g78
g59
NtRp2127
(dp2128
g62
(dp2129
g82
g83
ssg71
g2123
sg64
(lp2130
g1190
asbag57
(g78
g59
NtRp2131
(dp2132
g62
(dp2133
g89
g90
ssg71
g2123
sg64
(lp2134
S':'
asbag57
(g78
g59
NtRp2135
(dp2136
g62
(dp2137
sg71
g2123
sg64
(lp2138
g57
(g58
g59
NtRp2139
(dp2140
g62
(dp2141
g70
I4
ssg71
g2135
sg64
(lp2142
g100
asbasbasbag57
(g73
g59
NtRp2143
(dp2144
g62
(dp2145
sg71
g1952
sg64
(lp2146
g57
(g78
g59
NtRp2147
(dp2148
g62
(dp2149
g82
g83
ssg71
g2143
sg64
(lp2150
g1211
asbag57
(g78
g59
NtRp2151
(dp2152
g62
(dp2153
g89
g90
ssg71
g2143
sg64
(lp2154
S':'
asbag57
(g78
g59
NtRp2155
(dp2156
g62
(dp2157
sg71
g2143
sg64
(lp2158
g57
(g58
g59
NtRp2159
(dp2160
g62
(dp2161
g70
I4
ssg71
g2155
sg64
(lp2162
g57
(g66
g59
NtRp2163
(dp2164
g62
(dp2165
g70
I3
ssg71
Nsg64
(lp2166
g57
(g73
g59
NtRp2167
(dp2168
g62
(dp2169
sg71
g2163
sg64
(lp2170
g57
(g78
g59
NtRp2171
(dp2172
g62
(dp2173
sg71
g2167
sg64
(lp2174
g57
(g58
g59
NtRp2175
(dp2176
g62
(dp2177
g70
I3
ssg71
g2171
sg64
(lp2178
g1240
asbasbasbag57
(g73
g59
NtRp2179
(dp2180
g62
(dp2181
sg71
g2163
sg64
(lp2182
g57
(g78
g59
NtRp2183
(dp2184
g62
(dp2185
sg71
g2179
sg64
(lp2186
g57
(g58
g59
NtRp2187
(dp2188
g62
(dp2189
g70
I3
ssg71
g2183
sg64
(lp2190
g1253
asbasbasbag57
(g73
g59
NtRp2191
(dp2192
g62
(dp2193
sg71
g2163
sg64
(lp2194
g57
(g78
g59
NtRp2195
(dp2196
g62
(dp2197
sg71
g2191
sg64
(lp2198
g57
(g58
g59
NtRp2199
(dp2200
g62
(dp2201
g70
I3
ssg71
g2195
sg64
(lp2202
g1266
asbasbasbag57
(g73
g59
NtRp2203
(dp2204
g62
(dp2205
sg71
g2163
sg64
(lp2206
g57
(g78
g59
NtRp2207
(dp2208
g62
(dp2209
sg71
g2203
sg64
(lp2210
g57
(g58
g59
NtRp2211
(dp2212
g62
(dp2213
g70
I3
ssg71
g2207
sg64
(lp2214
g1279
asbasbasbag57
(g73
g59
NtRp2215
(dp2216
g62
(dp2217
sg71
g2163
sg64
(lp2218
g57
(g78
g59
NtRp2219
(dp2220
g62
(dp2221
sg71
g2215
sg64
(lp2222
g57
(g58
g59
NtRp2223
(dp2224
g62
(dp2225
g70
I3
ssg71
g2219
sg64
(lp2226
g1292
asbasbasbasbasbasbasbag57
(g73
g59
NtRp2227
(dp2228
g62
(dp2229
sg71
g1952
sg64
(lp2230
g57
(g78
g59
NtRp2231
(dp2232
g62
(dp2233
g82
g83
ssg71
g2227
sg64
(lp2234
g1560
asbag57
(g78
g59
NtRp2235
(dp2236
g62
(dp2237
g89
g90
ssg71
g2227
sg64
(lp2238
S':'
asbag57
(g78
g59
NtRp2239
(dp2240
g62
(dp2241
sg71
g2227
sg64
(lp2242
g57
(g58
g59
NtRp2243
(dp2244
g62
(dp2245
g70
I4
ssg71
g2239
sg64
(lp2246
g57
(g66
g59
NtRp2247
(dp2248
g62
(dp2249
g70
I3
ssg71
Nsg64
(lp2250
g57
(g73
g59
NtRp2251
(dp2252
g62
(dp2253
sg71
g2247
sg64
(lp2254
g57
(g78
g59
NtRp2255
(dp2256
g62
(dp2257
sg71
g2251
sg64
(lp2258
g57
(g58
g59
NtRp2259
(dp2260
g62
(dp2261
g70
I3
ssg71
g2255
sg64
(lp2262
S'2'
asbasbasbag57
(g73
g59
NtRp2263
(dp2264
g62
(dp2265
sg71
g2247
sg64
(lp2266
g57
(g78
g59
NtRp2267
(dp2268
g62
(dp2269
sg71
g2263
sg64
(lp2270
g57
(g58
g59
NtRp2271
(dp2272
g62
(dp2273
g70
I3
ssg71
g2267
sg64
(lp2274
S'3'
asbasbasbag57
(g73
g59
NtRp2275
(dp2276
g62
(dp2277
sg71
g2247
sg64
(lp2278
g57
(g78
g59
NtRp2279
(dp2280
g62
(dp2281
sg71
g2275
sg64
(lp2282
g57
(g58
g59
NtRp2283
(dp2284
g62
(dp2285
g70
I3
ssg71
g2279
sg64
(lp2286
S'2'
asbasbasbag57
(g73
g59
NtRp2287
(dp2288
g62
(dp2289
sg71
g2247
sg64
(lp2290
g57
(g78
g59
NtRp2291
(dp2292
g62
(dp2293
sg71
g2287
sg64
(lp2294
g57
(g58
g59
NtRp2295
(dp2296
g62
(dp2297
g70
I3
ssg71
g2291
sg64
(lp2298
S'datetime.datetime(2012, 12, 17, 15, 3, 30)'
p2299
asbasbasbag57
(g73
g59
NtRp2300
(dp2301
g62
(dp2302
sg71
g2247
sg64
(lp2303
g57
(g78
g59
NtRp2304
(dp2305
g62
(dp2306
sg71
g2300
sg64
(lp2307
g57
(g58
g59
NtRp2308
(dp2309
g62
(dp2310
g70
I3
ssg71
g2304
sg64
(lp2311
g1638
asbasbasbasbasbasbasbasbasbasbasbag57
(g73
g59
NtRp2312
(dp2313
g62
(dp2314
sg71
g67
sg64
(lp2315
g57
(g78
g59
NtRp2316
(dp2317
g62
(dp2318
g82
g83
ssg71
g2312
sg64
(lp2319
S'is_https'
p2320
asbag57
(g78
g59
NtRp2321
(dp2322
g62
(dp2323
g89
g90
ssg71
g2312
sg64
(lp2324
S':'
asbag57
(g78
g59
NtRp2325
(dp2326
g62
(dp2327
sg71
g2312
sg64
(lp2328
g57
(g58
g59
NtRp2329
(dp2330
g62
(dp2331
g70
I5
ssg71
g2325
sg64
(lp2332
g100
asbasbasbag57
(g73
g59
NtRp2333
(dp2334
g62
(dp2335
sg71
g67
sg64
(lp2336
g57
(g78
g59
NtRp2337
(dp2338
g62
(dp2339
g82
g83
ssg71
g2333
sg64
(lp2340
S'is_local'
p2341
asbag57
(g78
g59
NtRp2342
(dp2343
g62
(dp2344
g89
g90
ssg71
g2333
sg64
(lp2345
S':'
asbag57
(g78
g59
NtRp2346
(dp2347
g62
(dp2348
sg71
g2333
sg64
(lp2349
g57
(g58
g59
NtRp2350
(dp2351
g62
(dp2352
g70
I5
ssg71
g2346
sg64
(lp2353
g1747
asbasbasbag57
(g73
g59
NtRp2354
(dp2355
g62
(dp2356
sg71
g67
sg64
(lp2357
g57
(g78
g59
NtRp2358
(dp2359
g62
(dp2360
g82
g83
ssg71
g2354
sg64
(lp2361
S'is_restful'
p2362
asbag57
(g78
g59
NtRp2363
(dp2364
g62
(dp2365
g89
g90
ssg71
g2354
sg64
(lp2366
S':'
asbag57
(g78
g59
NtRp2367
(dp2368
g62
(dp2369
sg71
g2354
sg64
(lp2370
g57
(g58
g59
NtRp2371
(dp2372
g62
(dp2373
g70
I5
ssg71
g2367
sg64
(lp2374
g100
asbasbasbag57
(g73
g59
NtRp2375
(dp2376
g62
(dp2377
sg71
g67
sg64
(lp2378
g57
(g78
g59
NtRp2379
(dp2380
g62
(dp2381
g82
g83
ssg71
g2375
sg64
(lp2382
S'now'
p2383
asbag57
(g78
g59
NtRp2384
(dp2385
g62
(dp2386
g89
g90
ssg71
g2375
sg64
(lp2387
S':'
asbag57
(g78
g59
NtRp2388
(dp2389
g62
(dp2390
sg71
g2375
sg64
(lp2391
g57
(g58
g59
NtRp2392
(dp2393
g62
(dp2394
g70
I5
ssg71
g2388
sg64
(lp2395
S'datetime.datetime(2013, 4, 6, 19, 42, 7, 255191)'
p2396
asbasbasbag57
(g73
g59
NtRp2397
(dp2398
g62
(dp2399
sg71
g67
sg64
(lp2400
g57
(g78
g59
NtRp2401
(dp2402
g62
(dp2403
g82
g83
ssg71
g2397
sg64
(lp2404
S'post_vars'
p2405
asbag57
(g78
g59
NtRp2406
(dp2407
g62
(dp2408
g89
g90
ssg71
g2397
sg64
(lp2409
S':'
asbag57
(g78
g59
NtRp2410
(dp2411
g62
(dp2412
sg71
g2397
sg64
(lp2413
g57
(g58
g59
NtRp2414
(dp2415
g62
(dp2416
g70
I5
ssg71
g2410
sg64
(lp2417
g57
(g66
g59
NtRp2418
(dp2419
g62
(dp2420
g70
I4
ssg71
Nsg64
(lp2421
sbasbasbasbag57
(g73
g59
NtRp2422
(dp2423
g62
(dp2424
sg71
g67
sg64
(lp2425
g57
(g78
g59
NtRp2426
(dp2427
g62
(dp2428
g82
g83
ssg71
g2422
sg64
(lp2429
S'raw_args'
p2430
asbag57
(g78
g59
NtRp2431
(dp2432
g62
(dp2433
g89
g90
ssg71
g2422
sg64
(lp2434
S':'
asbag57
(g78
g59
NtRp2435
(dp2436
g62
(dp2437
sg71
g2422
sg64
(lp2438
g57
(g58
g59
NtRp2439
(dp2440
g62
(dp2441
g70
I5
ssg71
g2435
sg64
(lp2442
S''
asbasbasbag57
(g73
g59
NtRp2443
(dp2444
g62
(dp2445
sg71
g67
sg64
(lp2446
g57
(g78
g59
NtRp2447
(dp2448
g62
(dp2449
g82
g83
ssg71
g2443
sg64
(lp2450
S'raw_extension'
p2451
asbag57
(g78
g59
NtRp2452
(dp2453
g62
(dp2454
g89
g90
ssg71
g2443
sg64
(lp2455
S':'
asbag57
(g78
g59
NtRp2456
(dp2457
g62
(dp2458
sg71
g2443
sg64
(lp2459
g57
(g58
g59
NtRp2460
(dp2461
g62
(dp2462
g70
I5
ssg71
g2456
sg64
(lp2463
g1861
asbasbasbag57
(g73
g59
NtRp2464
(dp2465
g62
(dp2466
sg71
g67
sg64
(lp2467
g57
(g78
g59
NtRp2468
(dp2469
g62
(dp2470
g82
g83
ssg71
g2464
sg64
(lp2471
S'url'
p2472
asbag57
(g78
g59
NtRp2473
(dp2474
g62
(dp2475
g89
g90
ssg71
g2464
sg64
(lp2476
S':'
asbag57
(g78
g59
NtRp2477
(dp2478
g62
(dp2479
sg71
g2464
sg64
(lp2480
g57
(g58
g59
NtRp2481
(dp2482
g62
(dp2483
g70
I5
ssg71
g2477
sg64
(lp2484
g1314
asbasbasbag57
(g73
g59
NtRp2485
(dp2486
g62
(dp2487
sg71
g67
sg64
(lp2488
g57
(g78
g59
NtRp2489
(dp2490
g62
(dp2491
g82
g83
ssg71
g2485
sg64
(lp2492
S'utcnow'
p2493
asbag57
(g78
g59
NtRp2494
(dp2495
g62
(dp2496
g89
g90
ssg71
g2485
sg64
(lp2497
S':'
asbag57
(g78
g59
NtRp2498
(dp2499
g62
(dp2500
sg71
g2485
sg64
(lp2501
g57
(g58
g59
NtRp2502
(dp2503
g62
(dp2504
g70
I5
ssg71
g2498
sg64
(lp2505
S'datetime.datetime(2013, 4, 6, 14, 12, 7, 255237)'
p2506
asbasbasbag57
(g73
g59
NtRp2507
(dp2508
g62
(dp2509
sg71
g67
sg64
(lp2510
g57
(g78
g59
NtRp2511
(dp2512
g62
(dp2513
g82
g83
ssg71
g2507
sg64
(lp2514
S'uuid'
p2515
asbag57
(g78
g59
NtRp2516
(dp2517
g62
(dp2518
g89
g90
ssg71
g2507
sg64
(lp2519
S':'
asbag57
(g78
g59
NtRp2520
(dp2521
g62
(dp2522
sg71
g2507
sg64
(lp2523
g57
(g58
g59
NtRp2524
(dp2525
g62
(dp2526
g70
I5
ssg71
g2520
sg64
(lp2527
S'OnlineExamination/127.0.0.1.2013-04-06.19-42-07.bd4ee6c5-cfb2-450c-971e-c0fa74bc2e66'
p2528
asbasbasbag57
(g73
g59
NtRp2529
(dp2530
g62
(dp2531
sg71
g67
sg64
(lp2532
g57
(g78
g59
NtRp2533
(dp2534
g62
(dp2535
g82
g83
ssg71
g2529
sg64
(lp2536
S'vars'
p2537
asbag57
(g78
g59
NtRp2538
(dp2539
g62
(dp2540
g89
g90
ssg71
g2529
sg64
(lp2541
S':'
asbag57
(g78
g59
NtRp2542
(dp2543
g62
(dp2544
sg71
g2529
sg64
(lp2545
g57
(g58
g59
NtRp2546
(dp2547
g62
(dp2548
g70
I5
ssg71
g2542
sg64
(lp2549
g57
(g66
g59
NtRp2550
(dp2551
g62
(dp2552
g70
I4
ssg71
Nsg64
(lp2553
g57
(g73
g59
NtRp2554
(dp2555
g62
(dp2556
sg71
g2550
sg64
(lp2557
g57
(g78
g59
NtRp2558
(dp2559
g62
(dp2560
g82
g83
ssg71
g2554
sg64
(lp2561
S'records'
p2562
asbag57
(g78
g59
NtRp2563
(dp2564
g62
(dp2565
g89
g90
ssg71
g2554
sg64
(lp2566
S':'
asbag57
(g78
g59
NtRp2567
(dp2568
g62
(dp2569
sg71
g2554
sg64
(lp2570
g57
(g58
g59
NtRp2571
(dp2572
g62
(dp2573
g70
I4
ssg71
g2567
sg64
(lp2574
g57
(g66
g59
NtRp2575
(dp2576
g62
(dp2577
g70
I3
ssg71
Nsg64
(lp2578
sbasbasbasbasbasbasbasbag57
(g73
g59
NtRp2579
(dp2580
g62
(dp2581
sg71
g67
sg64
(lp2582
g57
(g78
g59
NtRp2583
(dp2584
g62
(dp2585
g82
g83
ssg71
g2579
sg64
(lp2586
S'wsgi'
p2587
asbag57
(g78
g59
NtRp2588
(dp2589
g62
(dp2590
g89
g90
ssg71
g2579
sg64
(lp2591
S':'
asbag57
(g78
g59
NtRp2592
(dp2593
g62
(dp2594
sg71
g2579
sg64
(lp2595
g57
(g58
g59
NtRp2596
(dp2597
g62
(dp2598
g70
I5
ssg71
g2592
sg64
(lp2599
g57
(g66
g59
NtRp2600
(dp2601
g62
(dp2602
g70
I4
ssg71
Nsg64
(lp2603
g57
(g73
g59
NtRp2604
(dp2605
g62
(dp2606
sg71
g2600
sg64
(lp2607
g57
(g78
g59
NtRp2608
(dp2609
g62
(dp2610
g82
g83
ssg71
g2604
sg64
(lp2611
S'environ'
p2612
asbag57
(g78
g59
NtRp2613
(dp2614
g62
(dp2615
g89
g90
ssg71
g2604
sg64
(lp2616
S':'
asbag57
(g78
g59
NtRp2617
(dp2618
g62
(dp2619
sg71
g2604
sg64
(lp2620
g57
(g58
g59
NtRp2621
(dp2622
g62
(dp2623
g70
I4
ssg71
g2617
sg64
(lp2624
g57
(g66
g59
NtRp2625
(dp2626
g62
(dp2627
g70
I3
ssg71
Nsg64
(lp2628
g57
(g73
g59
NtRp2629
(dp2630
g62
(dp2631
sg71
g2625
sg64
(lp2632
g57
(g78
g59
NtRp2633
(dp2634
g62
(dp2635
g82
g83
ssg71
g2629
sg64
(lp2636
S'HTTP_ACCEPT'
p2637
asbag57
(g78
g59
NtRp2638
(dp2639
g62
(dp2640
g89
g90
ssg71
g2629
sg64
(lp2641
S':'
asbag57
(g78
g59
NtRp2642
(dp2643
g62
(dp2644
sg71
g2629
sg64
(lp2645
g57
(g58
g59
NtRp2646
(dp2647
g62
(dp2648
g70
I3
ssg71
g2642
sg64
(lp2649
g1028
asbasbasbag57
(g73
g59
NtRp2650
(dp2651
g62
(dp2652
sg71
g2625
sg64
(lp2653
g57
(g78
g59
NtRp2654
(dp2655
g62
(dp2656
g82
g83
ssg71
g2650
sg64
(lp2657
S'HTTP_ACCEPT_ENCODING'
p2658
asbag57
(g78
g59
NtRp2659
(dp2660
g62
(dp2661
g89
g90
ssg71
g2650
sg64
(lp2662
S':'
asbag57
(g78
g59
NtRp2663
(dp2664
g62
(dp2665
sg71
g2650
sg64
(lp2666
g57
(g58
g59
NtRp2667
(dp2668
g62
(dp2669
g70
I3
ssg71
g2663
sg64
(lp2670
g1050
asbasbasbag57
(g73
g59
NtRp2671
(dp2672
g62
(dp2673
sg71
g2625
sg64
(lp2674
g57
(g78
g59
NtRp2675
(dp2676
g62
(dp2677
g82
g83
ssg71
g2671
sg64
(lp2678
S'HTTP_ACCEPT_LANGUAGE'
p2679
asbag57
(g78
g59
NtRp2680
(dp2681
g62
(dp2682
g89
g90
ssg71
g2671
sg64
(lp2683
S':'
asbag57
(g78
g59
NtRp2684
(dp2685
g62
(dp2686
sg71
g2671
sg64
(lp2687
g57
(g58
g59
NtRp2688
(dp2689
g62
(dp2690
g70
I3
ssg71
g2684
sg64
(lp2691
g1072
asbasbasbag57
(g73
g59
NtRp2692
(dp2693
g62
(dp2694
sg71
g2625
sg64
(lp2695
g57
(g78
g59
NtRp2696
(dp2697
g62
(dp2698
g82
g83
ssg71
g2692
sg64
(lp2699
S'HTTP_CONNECTION'
p2700
asbag57
(g78
g59
NtRp2701
(dp2702
g62
(dp2703
g89
g90
ssg71
g2692
sg64
(lp2704
S':'
asbag57
(g78
g59
NtRp2705
(dp2706
g62
(dp2707
sg71
g2692
sg64
(lp2708
g57
(g58
g59
NtRp2709
(dp2710
g62
(dp2711
g70
I3
ssg71
g2705
sg64
(lp2712
g1094
asbasbasbag57
(g73
g59
NtRp2713
(dp2714
g62
(dp2715
sg71
g2625
sg64
(lp2716
g57
(g78
g59
NtRp2717
(dp2718
g62
(dp2719
g82
g83
ssg71
g2713
sg64
(lp2720
S'HTTP_COOKIE'
p2721
asbag57
(g78
g59
NtRp2722
(dp2723
g62
(dp2724
g89
g90
ssg71
g2713
sg64
(lp2725
S':'
asbag57
(g78
g59
NtRp2726
(dp2727
g62
(dp2728
sg71
g2713
sg64
(lp2729
g57
(g58
g59
NtRp2730
(dp2731
g62
(dp2732
g70
I3
ssg71
g2726
sg64
(lp2733
g1116
asbasbasbag57
(g73
g59
NtRp2734
(dp2735
g62
(dp2736
sg71
g2625
sg64
(lp2737
g57
(g78
g59
NtRp2738
(dp2739
g62
(dp2740
g82
g83
ssg71
g2734
sg64
(lp2741
S'HTTP_HOST'
p2742
asbag57
(g78
g59
NtRp2743
(dp2744
g62
(dp2745
g89
g90
ssg71
g2734
sg64
(lp2746
S':'
asbag57
(g78
g59
NtRp2747
(dp2748
g62
(dp2749
sg71
g2734
sg64
(lp2750
g57
(g58
g59
NtRp2751
(dp2752
g62
(dp2753
g70
I3
ssg71
g2747
sg64
(lp2754
g1138
asbasbasbag57
(g73
g59
NtRp2755
(dp2756
g62
(dp2757
sg71
g2625
sg64
(lp2758
g57
(g78
g59
NtRp2759
(dp2760
g62
(dp2761
g82
g83
ssg71
g2755
sg64
(lp2762
S'HTTP_USER_AGENT'
p2763
asbag57
(g78
g59
NtRp2764
(dp2765
g62
(dp2766
g89
g90
ssg71
g2755
sg64
(lp2767
S':'
asbag57
(g78
g59
NtRp2768
(dp2769
g62
(dp2770
sg71
g2755
sg64
(lp2771
g57
(g58
g59
NtRp2772
(dp2773
g62
(dp2774
g70
I3
ssg71
g2768
sg64
(lp2775
g1160
asbasbasbag57
(g73
g59
NtRp2776
(dp2777
g62
(dp2778
sg71
g2625
sg64
(lp2779
g57
(g78
g59
NtRp2780
(dp2781
g62
(dp2782
g82
g83
ssg71
g2776
sg64
(lp2783
S'PATH_INFO'
p2784
asbag57
(g78
g59
NtRp2785
(dp2786
g62
(dp2787
g89
g90
ssg71
g2776
sg64
(lp2788
S':'
asbag57
(g78
g59
NtRp2789
(dp2790
g62
(dp2791
sg71
g2776
sg64
(lp2792
g57
(g58
g59
NtRp2793
(dp2794
g62
(dp2795
g70
I3
ssg71
g2789
sg64
(lp2796
g1314
asbasbasbag57
(g73
g59
NtRp2797
(dp2798
g62
(dp2799
sg71
g2625
sg64
(lp2800
g57
(g78
g59
NtRp2801
(dp2802
g62
(dp2803
g82
g83
ssg71
g2797
sg64
(lp2804
S'QUERY_STRING'
p2805
asbag57
(g78
g59
NtRp2806
(dp2807
g62
(dp2808
g89
g90
ssg71
g2797
sg64
(lp2809
S':'
asbag57
(g78
g59
NtRp2810
(dp2811
g62
(dp2812
sg71
g2797
sg64
(lp2813
g57
(g58
g59
NtRp2814
(dp2815
g62
(dp2816
g70
I3
ssg71
g2810
sg64
(lp2817
S''
asbasbasbag57
(g73
g59
NtRp2818
(dp2819
g62
(dp2820
sg71
g2625
sg64
(lp2821
g57
(g78
g59
NtRp2822
(dp2823
g62
(dp2824
g82
g83
ssg71
g2818
sg64
(lp2825
S'REMOTE_ADDR'
p2826
asbag57
(g78
g59
NtRp2827
(dp2828
g62
(dp2829
g89
g90
ssg71
g2818
sg64
(lp2830
S':'
asbag57
(g78
g59
NtRp2831
(dp2832
g62
(dp2833
sg71
g2818
sg64
(lp2834
g57
(g58
g59
NtRp2835
(dp2836
g62
(dp2837
g70
I3
ssg71
g2831
sg64
(lp2838
g212
asbasbasbag57
(g73
g59
NtRp2839
(dp2840
g62
(dp2841
sg71
g2625
sg64
(lp2842
g57
(g78
g59
NtRp2843
(dp2844
g62
(dp2845
g82
g83
ssg71
g2839
sg64
(lp2846
S'REMOTE_PORT'
p2847
asbag57
(g78
g59
NtRp2848
(dp2849
g62
(dp2850
g89
g90
ssg71
g2839
sg64
(lp2851
S':'
asbag57
(g78
g59
NtRp2852
(dp2853
g62
(dp2854
sg71
g2839
sg64
(lp2855
g57
(g58
g59
NtRp2856
(dp2857
g62
(dp2858
g70
I3
ssg71
g2852
sg64
(lp2859
g1378
asbasbasbag57
(g73
g59
NtRp2860
(dp2861
g62
(dp2862
sg71
g2625
sg64
(lp2863
g57
(g78
g59
NtRp2864
(dp2865
g62
(dp2866
g82
g83
ssg71
g2860
sg64
(lp2867
S'REQUEST_METHOD'
p2868
asbag57
(g78
g59
NtRp2869
(dp2870
g62
(dp2871
g89
g90
ssg71
g2860
sg64
(lp2872
S':'
asbag57
(g78
g59
NtRp2873
(dp2874
g62
(dp2875
sg71
g2860
sg64
(lp2876
g57
(g58
g59
NtRp2877
(dp2878
g62
(dp2879
g70
I3
ssg71
g2873
sg64
(lp2880
g1400
asbasbasbag57
(g73
g59
NtRp2881
(dp2882
g62
(dp2883
sg71
g2625
sg64
(lp2884
g57
(g78
g59
NtRp2885
(dp2886
g62
(dp2887
g82
g83
ssg71
g2881
sg64
(lp2888
S'REQUEST_URI'
p2889
asbag57
(g78
g59
NtRp2890
(dp2891
g62
(dp2892
g89
g90
ssg71
g2881
sg64
(lp2893
S':'
asbag57
(g78
g59
NtRp2894
(dp2895
g62
(dp2896
sg71
g2881
sg64
(lp2897
g57
(g58
g59
NtRp2898
(dp2899
g62
(dp2900
g70
I3
ssg71
g2894
sg64
(lp2901
g1314
asbasbasbag57
(g73
g59
NtRp2902
(dp2903
g62
(dp2904
sg71
g2625
sg64
(lp2905
g57
(g78
g59
NtRp2906
(dp2907
g62
(dp2908
g82
g83
ssg71
g2902
sg64
(lp2909
S'SCRIPT_NAME'
p2910
asbag57
(g78
g59
NtRp2911
(dp2912
g62
(dp2913
g89
g90
ssg71
g2902
sg64
(lp2914
S':'
asbag57
(g78
g59
NtRp2915
(dp2916
g62
(dp2917
sg71
g2902
sg64
(lp2918
g57
(g58
g59
NtRp2919
(dp2920
g62
(dp2921
g70
I3
ssg71
g2915
sg64
(lp2922
S''
asbasbasbag57
(g73
g59
NtRp2923
(dp2924
g62
(dp2925
sg71
g2625
sg64
(lp2926
g57
(g78
g59
NtRp2927
(dp2928
g62
(dp2929
g82
g83
ssg71
g2923
sg64
(lp2930
S'SERVER_NAME'
p2931
asbag57
(g78
g59
NtRp2932
(dp2933
g62
(dp2934
g89
g90
ssg71
g2923
sg64
(lp2935
S':'
asbag57
(g78
g59
NtRp2936
(dp2937
g62
(dp2938
sg71
g2923
sg64
(lp2939
g57
(g58
g59
NtRp2940
(dp2941
g62
(dp2942
g70
I3
ssg71
g2936
sg64
(lp2943
g1464
asbasbasbag57
(g73
g59
NtRp2944
(dp2945
g62
(dp2946
sg71
g2625
sg64
(lp2947
g57
(g78
g59
NtRp2948
(dp2949
g62
(dp2950
g82
g83
ssg71
g2944
sg64
(lp2951
S'SERVER_PORT'
p2952
asbag57
(g78
g59
NtRp2953
(dp2954
g62
(dp2955
g89
g90
ssg71
g2944
sg64
(lp2956
S':'
asbag57
(g78
g59
NtRp2957
(dp2958
g62
(dp2959
sg71
g2944
sg64
(lp2960
g57
(g58
g59
NtRp2961
(dp2962
g62
(dp2963
g70
I3
ssg71
g2957
sg64
(lp2964
g1486
asbasbasbag57
(g73
g59
NtRp2965
(dp2966
g62
(dp2967
sg71
g2625
sg64
(lp2968
g57
(g78
g59
NtRp2969
(dp2970
g62
(dp2971
g82
g83
ssg71
g2965
sg64
(lp2972
S'SERVER_PROTOCOL'
p2973
asbag57
(g78
g59
NtRp2974
(dp2975
g62
(dp2976
g89
g90
ssg71
g2965
sg64
(lp2977
S':'
asbag57
(g78
g59
NtRp2978
(dp2979
g62
(dp2980
sg71
g2965
sg64
(lp2981
g57
(g58
g59
NtRp2982
(dp2983
g62
(dp2984
g70
I3
ssg71
g2978
sg64
(lp2985
g1508
asbasbasbag57
(g73
g59
NtRp2986
(dp2987
g62
(dp2988
sg71
g2625
sg64
(lp2989
g57
(g78
g59
NtRp2990
(dp2991
g62
(dp2992
g82
g83
ssg71
g2986
sg64
(lp2993
S'SERVER_SOFTWARE'
p2994
asbag57
(g78
g59
NtRp2995
(dp2996
g62
(dp2997
g89
g90
ssg71
g2986
sg64
(lp2998
S':'
asbag57
(g78
g59
NtRp2999
(dp3000
g62
(dp3001
sg71
g2986
sg64
(lp3002
g57
(g58
g59
NtRp3003
(dp3004
g62
(dp3005
g70
I3
ssg71
g2999
sg64
(lp3006
g1530
asbasbasbag57
(g73
g59
NtRp3007
(dp3008
g62
(dp3009
sg71
g2625
sg64
(lp3010
g57
(g78
g59
NtRp3011
(dp3012
g62
(dp3013
g82
g83
ssg71
g3007
sg64
(lp3014
S'wsgi.errors'
p3015
asbag57
(g78
g59
NtRp3016
(dp3017
g62
(dp3018
g89
g90
ssg71
g3007
sg64
(lp3019
S':'
asbag57
(g78
g59
NtRp3020
(dp3021
g62
(dp3022
sg71
g3007
sg64
(lp3023
g57
(g58
g59
NtRp3024
(dp3025
g62
(dp3026
g70
I3
ssg71
g3020
sg64
(lp3027
S"<open file '<stderr>', mode 'w' at 0xb75540d0>"
p3028
asbasbasbag57
(g73
g59
NtRp3029
(dp3030
g62
(dp3031
sg71
g2625
sg64
(lp3032
g57
(g78
g59
NtRp3033
(dp3034
g62
(dp3035
g82
g83
ssg71
g3029
sg64
(lp3036
S'wsgi.file_wrapper'
p3037
asbag57
(g78
g59
NtRp3038
(dp3039
g62
(dp3040
g89
g90
ssg71
g3029
sg64
(lp3041
S':'
asbag57
(g78
g59
NtRp3042
(dp3043
g62
(dp3044
sg71
g3029
sg64
(lp3045
g57
(g58
g59
NtRp3046
(dp3047
g62
(dp3048
g70
I3
ssg71
g3042
sg64
(lp3049
S'<class wsgiref.util.FileWrapper at 0xa5b8ecc>'
p3050
asbasbasbag57
(g73
g59
NtRp3051
(dp3052
g62
(dp3053
sg71
g2625
sg64
(lp3054
g57
(g78
g59
NtRp3055
(dp3056
g62
(dp3057
g82
g83
ssg71
g3051
sg64
(lp3058
S'wsgi.input'
p3059
asbag57
(g78
g59
NtRp3060
(dp3061
g62
(dp3062
g89
g90
ssg71
g3051
sg64
(lp3063
S':'
asbag57
(g78
g59
NtRp3064
(dp3065
g62
(dp3066
sg71
g3051
sg64
(lp3067
g57
(g58
g59
NtRp3068
(dp3069
g62
(dp3070
g70
I3
ssg71
g3064
sg64
(lp3071
S'<cStringIO.StringO object at 0xadc1c280>'
p3072
asbasbasbag57
(g73
g59
NtRp3073
(dp3074
g62
(dp3075
sg71
g2625
sg64
(lp3076
g57
(g78
g59
NtRp3077
(dp3078
g62
(dp3079
g82
g83
ssg71
g3073
sg64
(lp3080
S'wsgi.multiprocess'
p3081
asbag57
(g78
g59
NtRp3082
(dp3083
g62
(dp3084
g89
g90
ssg71
g3073
sg64
(lp3085
S':'
asbag57
(g78
g59
NtRp3086
(dp3087
g62
(dp3088
sg71
g3073
sg64
(lp3089
g57
(g58
g59
NtRp3090
(dp3091
g62
(dp3092
g70
I3
ssg71
g3086
sg64
(lp3093
g100
asbasbasbag57
(g73
g59
NtRp3094
(dp3095
g62
(dp3096
sg71
g2625
sg64
(lp3097
g57
(g78
g59
NtRp3098
(dp3099
g62
(dp3100
g82
g83
ssg71
g3094
sg64
(lp3101
S'wsgi.multithread'
p3102
asbag57
(g78
g59
NtRp3103
(dp3104
g62
(dp3105
g89
g90
ssg71
g3094
sg64
(lp3106
S':'
asbag57
(g78
g59
NtRp3107
(dp3108
g62
(dp3109
sg71
g3094
sg64
(lp3110
g57
(g58
g59
NtRp3111
(dp3112
g62
(dp3113
g70
I3
ssg71
g3107
sg64
(lp3114
g1747
asbasbasbag57
(g73
g59
NtRp3115
(dp3116
g62
(dp3117
sg71
g2625
sg64
(lp3118
g57
(g78
g59
NtRp3119
(dp3120
g62
(dp3121
g82
g83
ssg71
g3115
sg64
(lp3122
S'wsgi.run_once'
p3123
asbag57
(g78
g59
NtRp3124
(dp3125
g62
(dp3126
g89
g90
ssg71
g3115
sg64
(lp3127
S':'
asbag57
(g78
g59
NtRp3128
(dp3129
g62
(dp3130
sg71
g3115
sg64
(lp3131
g57
(g58
g59
NtRp3132
(dp3133
g62
(dp3134
g70
I3
ssg71
g3128
sg64
(lp3135
g100
asbasbasbag57
(g73
g59
NtRp3136
(dp3137
g62
(dp3138
sg71
g2625
sg64
(lp3139
g57
(g78
g59
NtRp3140
(dp3141
g62
(dp3142
g82
g83
ssg71
g3136
sg64
(lp3143
S'wsgi.url_scheme'
p3144
asbag57
(g78
g59
NtRp3145
(dp3146
g62
(dp3147
g89
g90
ssg71
g3136
sg64
(lp3148
S':'
asbag57
(g78
g59
NtRp3149
(dp3150
g62
(dp3151
sg71
g3136
sg64
(lp3152
g57
(g58
g59
NtRp3153
(dp3154
g62
(dp3155
g70
I3
ssg71
g3149
sg64
(lp3156
g1790
asbasbasbag57
(g73
g59
NtRp3157
(dp3158
g62
(dp3159
sg71
g2625
sg64
(lp3160
g57
(g78
g59
NtRp3161
(dp3162
g62
(dp3163
g82
g83
ssg71
g3157
sg64
(lp3164
S'wsgi.version'
p3165
asbag57
(g78
g59
NtRp3166
(dp3167
g62
(dp3168
g89
g90
ssg71
g3157
sg64
(lp3169
S':'
asbag57
(g78
g59
NtRp3170
(dp3171
g62
(dp3172
sg71
g3157
sg64
(lp3173
g57
(g58
g59
NtRp3174
(dp3175
g62
(dp3176
g70
I3
ssg71
g3170
sg64
(lp3177
S'1'
asbasbasbasbasbasbasbasbasbasbasbasbasbsS'frames'
p3178
(lp3179
(dp3180
S'file'
p3181
S'/home/gaurav/classwork/WEB_PROGRAMMING/web2py/gluon/restricted.py'
p3182
sS'dump'
p3183
(dp3184
S'environment'
p3185
S"{'A': <class 'gluon.html.A'>, 'Auth': <class 'gluon.tools.Auth'>, 'B': <class 'gluon.html.B'>, 'BEAUTIFY': <class 'gluon.html.BEAUTIFY'>, 'BODY': <class 'gluon.html.BODY'>, 'BR': <class 'gluon.html.BR'>, 'BUTTON': <class 'gluon.html.BUTTON'>, 'CAT': <class 'gluon.html.CAT'>, 'CENTER': <class 'gluon.html.CENTER'>, 'CLEANUP': <class 'gluon.validators.CLEANUP'>, ...}"
p3186
sS'ccode'
p3187
S'<code object <module> at 0xae540bf0, file "/home...amination/views/default/show_paper.html", line 1>'
p3188
ssS'lnum'
p3189
I212
sS'lines'
p3190
(dp3191
I207
S'    try:'
p3192
sI208
S'        if isinstance(code, types.CodeType):'
p3193
sI209
S'            ccode = code'
p3194
sI210
S'        else:'
p3195
sI211
S'            ccode = compile2(code, layer)'
p3196
sI212
S'        exec ccode in environment'
p3197
sI213
S'    except HTTP:'
p3198
sI214
S'        raise'
p3199
sI215
S'    except RestrictedError:'
p3200
sI216
S'        # do not encapsulate (obfuscate) the original RestrictedError'
p3201
ssS'call'
p3202
S'(code=\'response.write(\\\'<!DOCTYPE html>\\\\n<!-- paulirish...."></script>\\\\n</body>\\\\n</html>\\\\n\\\\n\\\', escape=False)\', environment={\'A\': <class \'gluon.html.A\'>, \'Auth\': <class \'gluon.tools.Auth\'>, \'B\': <class \'gluon.html.B\'>, \'BEAUTIFY\': <class \'gluon.html.BEAUTIFY\'>, \'BODY\': <class \'gluon.html.BODY\'>, \'BR\': <class \'gluon.html.BR\'>, \'BUTTON\': <class \'gluon.html.BUTTON\'>, \'CAT\': <class \'gluon.html.CAT\'>, \'CENTER\': <class \'gluon.html.CENTER\'>, \'CLEANUP\': <class \'gluon.validators.CLEANUP\'>, ...}, layer=\'/home/gaurav/classwork/WEB_PROGRAMMING/web2py/ap...s/OnlineExamination/views/default/show_paper.html\')'
p3203
sS'func'
p3204
S'restricted'
p3205
sa(dp3206
g3181
S'/home/gaurav/classwork/WEB_PROGRAMMING/web2py/applications/OnlineExamination/views/default/show_paper.html'
p3207
sg3183
(dp3208
sg3189
I81
sg3190
(dp3209
I72
S'    response.write(\'\\n        <div class="span3 left-sidebar">\\n            \', escape=False)'
p3210
sI73
S"    response.write('\\n            <h3>Left Sidebar</h3>\\n            <p></p>\\n            ', escape=False)"
p3211
sI74
S"    response.write('\\n        </div>\\n        ', escape=False)"
p3212
sI75
S'    pass'
p3213
sI76
S'response.write(\'\\n\\n        <div class="\', escape=False)'
p3214
sI77
S'response.write(middle_columns)'
p3215
sI78
S'response.write(\'">\\n            \', escape=False)'
p3216
sI79
S"response.write('\\n            ', escape=False)"
p3217
sI80
S"response.write('\\n', escape=False)"
p3218
sI81
S'response.write(form)'
p3219
sI82
S"response.write('\\n', escape=False)"
p3220
sI83
S"response.write('\\n            ', escape=False)"
p3221
sI84
S"response.write('\\n        </div>\\n\\n        ', escape=False)"
p3222
sI85
S'if right_sidebar_enabled:'
p3223
sI86
S'    response.write(\'\\n        <div class="span3">\\n            \', escape=False)'
p3224
sI87
S"    response.write('\\n            <h3>Right Sidebar</h3>\\n            <p></p>\\n            ', escape=False)"
p3225
sI88
S"    response.write('\\n        </div>\\n        ', escape=False)"
p3226
sI89
S'    pass'
p3227
sI90
S'response.write(\'\\n    </section><!--/main-->\\n\\n    <!-- Footer ================================================== -->\\n    <div class="row">\\n        <footer class="footer span12" id="footer">\\n            <div class="footer-content">\\n                \', escape=False)'
p3228
sI91
S'response.write(\' <!-- this is default footer -->\\n\\t\\t<div class="copyright pull-left">\', escape=False)'
p3229
ssg3202
S'()'
p3230
sg3204
S'<module>'
p3231
sasS'pyver'
p3232
S'Python 2.7.3: /usr/bin/python'
p3233
sS'session'
p3234
g57
(g58
g59
NtRp3235
(dp3236
g62
(dp3237
sg64
(lp3238
g57
(g66
g59
NtRp3239
(dp3240
g62
(dp3241
g70
I5
ssg71
Nsg64
(lp3242
g57
(g73
g59
NtRp3243
(dp3244
g62
(dp3245
sg71
g3239
sg64
(lp3246
g57
(g78
g59
NtRp3247
(dp3248
g62
(dp3249
g82
g83
ssg71
g3243
sg64
(lp3250
S'auth'
p3251
asbag57
(g78
g59
NtRp3252
(dp3253
g62
(dp3254
g89
g90
ssg71
g3243
sg64
(lp3255
S':'
asbag57
(g78
g59
NtRp3256
(dp3257
g62
(dp3258
sg71
g3243
sg64
(lp3259
g57
(g58
g59
NtRp3260
(dp3261
g62
(dp3262
g70
I5
ssg71
g3256
sg64
(lp3263
g57
(g66
g59
NtRp3264
(dp3265
g62
(dp3266
g70
I4
ssg71
Nsg64
(lp3267
g57
(g73
g59
NtRp3268
(dp3269
g62
(dp3270
sg71
g3264
sg64
(lp3271
g57
(g78
g59
NtRp3272
(dp3273
g62
(dp3274
g82
g83
ssg71
g3268
sg64
(lp3275
S'expiration'
p3276
asbag57
(g78
g59
NtRp3277
(dp3278
g62
(dp3279
g89
g90
ssg71
g3268
sg64
(lp3280
S':'
asbag57
(g78
g59
NtRp3281
(dp3282
g62
(dp3283
sg71
g3268
sg64
(lp3284
g57
(g58
g59
NtRp3285
(dp3286
g62
(dp3287
g70
I4
ssg71
g3281
sg64
(lp3288
S'3600'
p3289
asbasbasbag57
(g73
g59
NtRp3290
(dp3291
g62
(dp3292
sg71
g3264
sg64
(lp3293
g57
(g78
g59
NtRp3294
(dp3295
g62
(dp3296
g82
g83
ssg71
g3290
sg64
(lp3297
S'hmac_key'
p3298
asbag57
(g78
g59
NtRp3299
(dp3300
g62
(dp3301
g89
g90
ssg71
g3290
sg64
(lp3302
S':'
asbag57
(g78
g59
NtRp3303
(dp3304
g62
(dp3305
sg71
g3290
sg64
(lp3306
g57
(g58
g59
NtRp3307
(dp3308
g62
(dp3309
g70
I4
ssg71
g3303
sg64
(lp3310
S'191ea1cf-cbfb-4eb6-9601-ae6d43bf0561'
p3311
asbasbasbag57
(g73
g59
NtRp3312
(dp3313
g62
(dp3314
sg71
g3264
sg64
(lp3315
g57
(g78
g59
NtRp3316
(dp3317
g62
(dp3318
g82
g83
ssg71
g3312
sg64
(lp3319
S'last_visit'
p3320
asbag57
(g78
g59
NtRp3321
(dp3322
g62
(dp3323
g89
g90
ssg71
g3312
sg64
(lp3324
S':'
asbag57
(g78
g59
NtRp3325
(dp3326
g62
(dp3327
sg71
g3312
sg64
(lp3328
g57
(g58
g59
NtRp3329
(dp3330
g62
(dp3331
g70
I4
ssg71
g3325
sg64
(lp3332
S'datetime.datetime(2013, 4, 6, 19, 39, 48, 668289)'
p3333
asbasbasbag57
(g73
g59
NtRp3334
(dp3335
g62
(dp3336
sg71
g3264
sg64
(lp3337
g57
(g78
g59
NtRp3338
(dp3339
g62
(dp3340
g82
g83
ssg71
g3334
sg64
(lp3341
S'remember'
p3342
asbag57
(g78
g59
NtRp3343
(dp3344
g62
(dp3345
g89
g90
ssg71
g3334
sg64
(lp3346
S':'
asbag57
(g78
g59
NtRp3347
(dp3348
g62
(dp3349
sg71
g3334
sg64
(lp3350
g57
(g58
g59
NtRp3351
(dp3352
g62
(dp3353
g70
I4
ssg71
g3347
sg64
(lp3354
g100
asbasbasbag57
(g73
g59
NtRp3355
(dp3356
g62
(dp3357
sg71
g3264
sg64
(lp3358
g57
(g78
g59
NtRp3359
(dp3360
g62
(dp3361
g82
g83
ssg71
g3355
sg64
(lp3362
S'user'
p3363
asbag57
(g78
g59
NtRp3364
(dp3365
g62
(dp3366
g89
g90
ssg71
g3355
sg64
(lp3367
S':'
asbag57
(g78
g59
NtRp3368
(dp3369
g62
(dp3370
sg71
g3355
sg64
(lp3371
g57
(g58
g59
NtRp3372
(dp3373
g62
(dp3374
g70
I4
ssg71
g3368
sg64
(lp3375
g57
(g66
g59
NtRp3376
(dp3377
g62
(dp3378
g70
I3
ssg71
Nsg64
(lp3379
g57
(g73
g59
NtRp3380
(dp3381
g62
(dp3382
sg71
g3376
sg64
(lp3383
g57
(g78
g59
NtRp3384
(dp3385
g62
(dp3386
g82
g83
ssg71
g3380
sg64
(lp3387
S'email'
p3388
asbag57
(g78
g59
NtRp3389
(dp3390
g62
(dp3391
g89
g90
ssg71
g3380
sg64
(lp3392
S':'
asbag57
(g78
g59
NtRp3393
(dp3394
g62
(dp3395
sg71
g3380
sg64
(lp3396
g57
(g58
g59
NtRp3397
(dp3398
g62
(dp3399
g70
I3
ssg71
g3393
sg64
(lp3400
S'kishore@gmail.com'
p3401
asbasbasbag57
(g73
g59
NtRp3402
(dp3403
g62
(dp3404
sg71
g3376
sg64
(lp3405
g57
(g78
g59
NtRp3406
(dp3407
g62
(dp3408
g82
g83
ssg71
g3402
sg64
(lp3409
S'first_name'
p3410
asbag57
(g78
g59
NtRp3411
(dp3412
g62
(dp3413
g89
g90
ssg71
g3402
sg64
(lp3414
S':'
asbag57
(g78
g59
NtRp3415
(dp3416
g62
(dp3417
sg71
g3402
sg64
(lp3418
g57
(g58
g59
NtRp3419
(dp3420
g62
(dp3421
g70
I3
ssg71
g3415
sg64
(lp3422
S'Kishore'
p3423
asbasbasbag57
(g73
g59
NtRp3424
(dp3425
g62
(dp3426
sg71
g3376
sg64
(lp3427
g57
(g78
g59
NtRp3428
(dp3429
g62
(dp3430
g82
g83
ssg71
g3424
sg64
(lp3431
S'id'
p3432
asbag57
(g78
g59
NtRp3433
(dp3434
g62
(dp3435
g89
g90
ssg71
g3424
sg64
(lp3436
S':'
asbag57
(g78
g59
NtRp3437
(dp3438
g62
(dp3439
sg71
g3424
sg64
(lp3440
g57
(g58
g59
NtRp3441
(dp3442
g62
(dp3443
g70
I3
ssg71
g3437
sg64
(lp3444
S'16'
p3445
asbasbasbag57
(g73
g59
NtRp3446
(dp3447
g62
(dp3448
sg71
g3376
sg64
(lp3449
g57
(g78
g59
NtRp3450
(dp3451
g62
(dp3452
g82
g83
ssg71
g3446
sg64
(lp3453
S'last_name'
p3454
asbag57
(g78
g59
NtRp3455
(dp3456
g62
(dp3457
g89
g90
ssg71
g3446
sg64
(lp3458
S':'
asbag57
(g78
g59
NtRp3459
(dp3460
g62
(dp3461
sg71
g3446
sg64
(lp3462
g57
(g58
g59
NtRp3463
(dp3464
g62
(dp3465
g70
I3
ssg71
g3459
sg64
(lp3466
S'Kothapalli'
p3467
asbasbasbag57
(g73
g59
NtRp3468
(dp3469
g62
(dp3470
sg71
g3376
sg64
(lp3471
g57
(g78
g59
NtRp3472
(dp3473
g62
(dp3474
g82
g83
ssg71
g3468
sg64
(lp3475
S'registration_id'
p3476
asbag57
(g78
g59
NtRp3477
(dp3478
g62
(dp3479
g89
g90
ssg71
g3468
sg64
(lp3480
S':'
asbag57
(g78
g59
NtRp3481
(dp3482
g62
(dp3483
sg71
g3468
sg64
(lp3484
g57
(g58
g59
NtRp3485
(dp3486
g62
(dp3487
g70
I3
ssg71
g3481
sg64
(lp3488
S''
asbasbasbag57
(g73
g59
NtRp3489
(dp3490
g62
(dp3491
sg71
g3376
sg64
(lp3492
g57
(g78
g59
NtRp3493
(dp3494
g62
(dp3495
g82
g83
ssg71
g3489
sg64
(lp3496
S'registration_key'
p3497
asbag57
(g78
g59
NtRp3498
(dp3499
g62
(dp3500
g89
g90
ssg71
g3489
sg64
(lp3501
S':'
asbag57
(g78
g59
NtRp3502
(dp3503
g62
(dp3504
sg71
g3489
sg64
(lp3505
g57
(g58
g59
NtRp3506
(dp3507
g62
(dp3508
g70
I3
ssg71
g3502
sg64
(lp3509
S''
asbasbasbag57
(g73
g59
NtRp3510
(dp3511
g62
(dp3512
sg71
g3376
sg64
(lp3513
g57
(g78
g59
NtRp3514
(dp3515
g62
(dp3516
g82
g83
ssg71
g3510
sg64
(lp3517
S'reset_password_key'
p3518
asbag57
(g78
g59
NtRp3519
(dp3520
g62
(dp3521
g89
g90
ssg71
g3510
sg64
(lp3522
S':'
asbag57
(g78
g59
NtRp3523
(dp3524
g62
(dp3525
sg71
g3510
sg64
(lp3526
g57
(g58
g59
NtRp3527
(dp3528
g62
(dp3529
g70
I3
ssg71
g3523
sg64
(lp3530
S''
asbasbasbasbasbasbasbag57
(g73
g59
NtRp3531
(dp3532
g62
(dp3533
sg71
g3264
sg64
(lp3534
g57
(g78
g59
NtRp3535
(dp3536
g62
(dp3537
g82
g83
ssg71
g3531
sg64
(lp3538
S'user_groups'
p3539
asbag57
(g78
g59
NtRp3540
(dp3541
g62
(dp3542
g89
g90
ssg71
g3531
sg64
(lp3543
S':'
asbag57
(g78
g59
NtRp3544
(dp3545
g62
(dp3546
sg71
g3531
sg64
(lp3547
g57
(g58
g59
NtRp3548
(dp3549
g62
(dp3550
g70
I4
ssg71
g3544
sg64
(lp3551
g57
(g66
g59
NtRp3552
(dp3553
g62
(dp3554
g70
I3
ssg71
Nsg64
(lp3555
g57
(g73
g59
NtRp3556
(dp3557
g62
(dp3558
sg71
g3552
sg64
(lp3559
g57
(g78
g59
NtRp3560
(dp3561
g62
(dp3562
g82
g83
ssg71
g3556
sg64
(lp3563
S'17'
p3564
asbag57
(g78
g59
NtRp3565
(dp3566
g62
(dp3567
g89
g90
ssg71
g3556
sg64
(lp3568
S':'
asbag57
(g78
g59
NtRp3569
(dp3570
g62
(dp3571
sg71
g3556
sg64
(lp3572
g57
(g58
g59
NtRp3573
(dp3574
g62
(dp3575
g70
I3
ssg71
g3569
sg64
(lp3576
S'IIIT_FACULTY_DEPARTMENT'
p3577
asbasbasbasbasbasbasbasbasbasbasbag57
(g73
g59
NtRp3578
(dp3579
g62
(dp3580
sg71
g3239
sg64
(lp3581
g57
(g78
g59
NtRp3582
(dp3583
g62
(dp3584
g82
g83
ssg71
g3578
sg64
(lp3585
S'flash'
p3586
asbag57
(g78
g59
NtRp3587
(dp3588
g62
(dp3589
g89
g90
ssg71
g3578
sg64
(lp3590
S':'
asbag57
(g78
g59
NtRp3591
(dp3592
g62
(dp3593
sg71
g3578
sg64
(lp3594
g57
(g58
g59
NtRp3595
(dp3596
g62
(dp3597
g70
I5
ssg71
g3591
sg64
(lp3598
S'None'
p3599
asbasbasbag57
(g73
g59
NtRp3600
(dp3601
g62
(dp3602
sg71
g3239
sg64
(lp3603
g57
(g78
g59
NtRp3604
(dp3605
g62
(dp3606
g82
g83
ssg71
g3600
sg64
(lp3607
S'last_orderby'
p3608
asbag57
(g78
g59
NtRp3609
(dp3610
g62
(dp3611
g89
g90
ssg71
g3600
sg64
(lp3612
S':'
asbag57
(g78
g59
NtRp3613
(dp3614
g62
(dp3615
sg71
g3600
sg64
(lp3616
g57
(g58
g59
NtRp3617
(dp3618
g62
(dp3619
g70
I5
ssg71
g3613
sg64
(lp3620
S'None'
p3621
asbasbasbag57
(g73
g59
NtRp3622
(dp3623
g62
(dp3624
sg71
g3239
sg64
(lp3625
g57
(g78
g59
NtRp3626
(dp3627
g62
(dp3628
g82
g83
ssg71
g3622
sg64
(lp3629
S'last_query'
p3630
asbag57
(g78
g59
NtRp3631
(dp3632
g62
(dp3633
g89
g90
ssg71
g3622
sg64
(lp3634
S':'
asbag57
(g78
g59
NtRp3635
(dp3636
g62
(dp3637
sg71
g3622
sg64
(lp3638
g57
(g58
g59
NtRp3639
(dp3640
g62
(dp3641
g70
I5
ssg71
g3635
sg64
(lp3642
S'db.auth_membership.id>0'
p3643
asbasbasbasbasbsS'etype'
p3644
S"<type 'exceptions.NameError'>"
p3645
sS'date'
p3646
S'Sat Apr  6 19:42:07 2013'
p3647
sS'response'
p3648
g57
(g58
g59
NtRp3649
(dp3650
g62
(dp3651
sg64
(lp3652
g57
(g66
g59
NtRp3653
(dp3654
g62
(dp3655
g70
I5
ssg71
Nsg64
(lp3656
g57
(g73
g59
NtRp3657
(dp3658
g62
(dp3659
sg71
g3653
sg64
(lp3660
g57
(g78
g59
NtRp3661
(dp3662
g62
(dp3663
g82
g83
ssg71
g3657
sg64
(lp3664
g155
asbag57
(g78
g59
NtRp3665
(dp3666
g62
(dp3667
g89
g90
ssg71
g3657
sg64
(lp3668
S':'
asbag57
(g78
g59
NtRp3669
(dp3670
g62
(dp3671
sg71
g3657
sg64
(lp3672
g57
(g58
g59
NtRp3673
(dp3674
g62
(dp3675
g70
I5
ssg71
g3669
sg64
(lp3676
S'<cStringIO.StringO object at 0xac56c60>'
p3677
asbasbasbag57
(g73
g59
NtRp3678
(dp3679
g62
(dp3680
sg71
g3653
sg64
(lp3681
g57
(g78
g59
NtRp3682
(dp3683
g62
(dp3684
g82
g83
ssg71
g3678
sg64
(lp3685
g243
asbag57
(g78
g59
NtRp3686
(dp3687
g62
(dp3688
g89
g90
ssg71
g3678
sg64
(lp3689
S':'
asbag57
(g78
g59
NtRp3690
(dp3691
g62
(dp3692
sg71
g3678
sg64
(lp3693
g57
(g58
g59
NtRp3694
(dp3695
g62
(dp3696
g70
I5
ssg71
g3690
sg64
(lp3697
g57
(g66
g59
NtRp3698
(dp3699
g62
(dp3700
g70
I4
ssg71
Nsg64
(lp3701
g57
(g73
g59
NtRp3702
(dp3703
g62
(dp3704
sg71
g3698
sg64
(lp3705
g57
(g78
g59
NtRp3706
(dp3707
g62
(dp3708
g82
g83
ssg71
g3702
sg64
(lp3709
S'session_id_onlineexamination'
p3710
asbag57
(g78
g59
NtRp3711
(dp3712
g62
(dp3713
g89
g90
ssg71
g3702
sg64
(lp3714
S':'
asbag57
(g78
g59
NtRp3715
(dp3716
g62
(dp3717
sg71
g3702
sg64
(lp3718
g57
(g58
g59
NtRp3719
(dp3720
g62
(dp3721
g70
I4
ssg71
g3715
sg64
(lp3722
g475
ag57
(g66
g59
NtRp3723
(dp3724
g62
(dp3725
g70
I3
ssg71
Nsg64
(lp3726
g57
(g73
g59
NtRp3727
(dp3728
g62
(dp3729
sg71
g3723
sg64
(lp3730
g57
(g78
g59
NtRp3731
(dp3732
g62
(dp3733
g82
g83
ssg71
g3727
sg64
(lp3734
g294
asbag57
(g78
g59
NtRp3735
(dp3736
g62
(dp3737
g89
g90
ssg71
g3727
sg64
(lp3738
S':'
asbag57
(g78
g59
NtRp3739
(dp3740
g62
(dp3741
sg71
g3727
sg64
(lp3742
g57
(g58
g59
NtRp3743
(dp3744
g62
(dp3745
g70
I3
ssg71
g3739
sg64
(lp3746
S''
asbasbasbag57
(g73
g59
NtRp3747
(dp3748
g62
(dp3749
sg71
g3723
sg64
(lp3750
g57
(g78
g59
NtRp3751
(dp3752
g62
(dp3753
g82
g83
ssg71
g3747
sg64
(lp3754
g315
asbag57
(g78
g59
NtRp3755
(dp3756
g62
(dp3757
g89
g90
ssg71
g3747
sg64
(lp3758
S':'
asbag57
(g78
g59
NtRp3759
(dp3760
g62
(dp3761
sg71
g3747
sg64
(lp3762
g57
(g58
g59
NtRp3763
(dp3764
g62
(dp3765
g70
I3
ssg71
g3759
sg64
(lp3766
S''
asbasbasbag57
(g73
g59
NtRp3767
(dp3768
g62
(dp3769
sg71
g3723
sg64
(lp3770
g57
(g78
g59
NtRp3771
(dp3772
g62
(dp3773
g82
g83
ssg71
g3767
sg64
(lp3774
g336
asbag57
(g78
g59
NtRp3775
(dp3776
g62
(dp3777
g89
g90
ssg71
g3767
sg64
(lp3778
S':'
asbag57
(g78
g59
NtRp3779
(dp3780
g62
(dp3781
sg71
g3767
sg64
(lp3782
g57
(g58
g59
NtRp3783
(dp3784
g62
(dp3785
g70
I3
ssg71
g3779
sg64
(lp3786
S''
asbasbasbag57
(g73
g59
NtRp3787
(dp3788
g62
(dp3789
sg71
g3723
sg64
(lp3790
g57
(g78
g59
NtRp3791
(dp3792
g62
(dp3793
g82
g83
ssg71
g3787
sg64
(lp3794
g357
asbag57
(g78
g59
NtRp3795
(dp3796
g62
(dp3797
g89
g90
ssg71
g3787
sg64
(lp3798
S':'
asbag57
(g78
g59
NtRp3799
(dp3800
g62
(dp3801
sg71
g3787
sg64
(lp3802
g57
(g58
g59
NtRp3803
(dp3804
g62
(dp3805
g70
I3
ssg71
g3799
sg64
(lp3806
S''
asbasbasbag57
(g73
g59
NtRp3807
(dp3808
g62
(dp3809
sg71
g3723
sg64
(lp3810
g57
(g78
g59
NtRp3811
(dp3812
g62
(dp3813
g82
g83
ssg71
g3807
sg64
(lp3814
g378
asbag57
(g78
g59
NtRp3815
(dp3816
g62
(dp3817
g89
g90
ssg71
g3807
sg64
(lp3818
S':'
asbag57
(g78
g59
NtRp3819
(dp3820
g62
(dp3821
sg71
g3807
sg64
(lp3822
g57
(g58
g59
NtRp3823
(dp3824
g62
(dp3825
g70
I3
ssg71
g3819
sg64
(lp3826
S''
asbasbasbag57
(g73
g59
NtRp3827
(dp3828
g62
(dp3829
sg71
g3723
sg64
(lp3830
g57
(g78
g59
NtRp3831
(dp3832
g62
(dp3833
g82
g83
ssg71
g3827
sg64
(lp3834
g399
asbag57
(g78
g59
NtRp3835
(dp3836
g62
(dp3837
g89
g90
ssg71
g3827
sg64
(lp3838
S':'
asbag57
(g78
g59
NtRp3839
(dp3840
g62
(dp3841
sg71
g3827
sg64
(lp3842
g57
(g58
g59
NtRp3843
(dp3844
g62
(dp3845
g70
I3
ssg71
g3839
sg64
(lp3846
S'/'
asbasbasbag57
(g73
g59
NtRp3847
(dp3848
g62
(dp3849
sg71
g3723
sg64
(lp3850
g57
(g78
g59
NtRp3851
(dp3852
g62
(dp3853
g82
g83
ssg71
g3847
sg64
(lp3854
g420
asbag57
(g78
g59
NtRp3855
(dp3856
g62
(dp3857
g89
g90
ssg71
g3847
sg64
(lp3858
S':'
asbag57
(g78
g59
NtRp3859
(dp3860
g62
(dp3861
sg71
g3847
sg64
(lp3862
g57
(g58
g59
NtRp3863
(dp3864
g62
(dp3865
g70
I3
ssg71
g3859
sg64
(lp3866
S''
asbasbasbag57
(g73
g59
NtRp3867
(dp3868
g62
(dp3869
sg71
g3723
sg64
(lp3870
g57
(g78
g59
NtRp3871
(dp3872
g62
(dp3873
g82
g83
ssg71
g3867
sg64
(lp3874
g441
asbag57
(g78
g59
NtRp3875
(dp3876
g62
(dp3877
g89
g90
ssg71
g3867
sg64
(lp3878
S':'
asbag57
(g78
g59
NtRp3879
(dp3880
g62
(dp3881
sg71
g3867
sg64
(lp3882
g57
(g58
g59
NtRp3883
(dp3884
g62
(dp3885
g70
I3
ssg71
g3879
sg64
(lp3886
S''
asbasbasbasbasbasbasbasbasbasbasbag57
(g73
g59
NtRp3887
(dp3888
g62
(dp3889
sg71
g3653
sg64
(lp3890
g57
(g78
g59
NtRp3891
(dp3892
g62
(dp3893
g82
g83
ssg71
g3887
sg64
(lp3894
S'delimiters'
p3895
asbag57
(g78
g59
NtRp3896
(dp3897
g62
(dp3898
g89
g90
ssg71
g3887
sg64
(lp3899
S':'
asbag57
(g78
g59
NtRp3900
(dp3901
g62
(dp3902
sg71
g3887
sg64
(lp3903
g57
(g58
g59
NtRp3904
(dp3905
g62
(dp3906
g70
I5
ssg71
g3900
sg64
(lp3907
g57
(g66
g59
NtRp3908
(dp3909
g62
(dp3910
g70
I4
ssg71
Nsg64
(lp3911
g57
(g73
g59
NtRp3912
(dp3913
g62
(dp3914
sg71
g3908
sg64
(lp3915
g57
(g78
g59
NtRp3916
(dp3917
g62
(dp3918
sg71
g3912
sg64
(lp3919
g57
(g58
g59
NtRp3920
(dp3921
g62
(dp3922
g70
I4
ssg71
g3916
sg64
(lp3923
S'{{'
p3924
asbasbasbag57
(g73
g59
NtRp3925
(dp3926
g62
(dp3927
sg71
g3908
sg64
(lp3928
g57
(g78
g59
NtRp3929
(dp3930
g62
(dp3931
sg71
g3925
sg64
(lp3932
g57
(g58
g59
NtRp3933
(dp3934
g62
(dp3935
g70
I4
ssg71
g3929
sg64
(lp3936
S'}}'
p3937
asbasbasbasbasbasbasbag57
(g73
g59
NtRp3938
(dp3939
g62
(dp3940
sg71
g3653
sg64
(lp3941
g57
(g78
g59
NtRp3942
(dp3943
g62
(dp3944
g82
g83
ssg71
g3938
sg64
(lp3945
S'files'
p3946
asbag57
(g78
g59
NtRp3947
(dp3948
g62
(dp3949
g89
g90
ssg71
g3938
sg64
(lp3950
S':'
asbag57
(g78
g59
NtRp3951
(dp3952
g62
(dp3953
sg71
g3938
sg64
(lp3954
g57
(g58
g59
NtRp3955
(dp3956
g62
(dp3957
g70
I5
ssg71
g3951
sg64
(lp3958
g57
(g66
g59
NtRp3959
(dp3960
g62
(dp3961
g70
I4
ssg71
Nsg64
(lp3962
g57
(g73
g59
NtRp3963
(dp3964
g62
(dp3965
sg71
g3959
sg64
(lp3966
g57
(g78
g59
NtRp3967
(dp3968
g62
(dp3969
sg71
g3963
sg64
(lp3970
g57
(g58
g59
NtRp3971
(dp3972
g62
(dp3973
g70
I4
ssg71
g3967
sg64
(lp3974
S'/OnlineExamination/static/js/jquery.js'
p3975
asbasbasbag57
(g73
g59
NtRp3976
(dp3977
g62
(dp3978
sg71
g3959
sg64
(lp3979
g57
(g78
g59
NtRp3980
(dp3981
g62
(dp3982
sg71
g3976
sg64
(lp3983
g57
(g58
g59
NtRp3984
(dp3985
g62
(dp3986
g70
I4
ssg71
g3980
sg64
(lp3987
S'/OnlineExamination/static/css/calendar.css'
p3988
asbasbasbag57
(g73
g59
NtRp3989
(dp3990
g62
(dp3991
sg71
g3959
sg64
(lp3992
g57
(g78
g59
NtRp3993
(dp3994
g62
(dp3995
sg71
g3989
sg64
(lp3996
g57
(g58
g59
NtRp3997
(dp3998
g62
(dp3999
g70
I4
ssg71
g3993
sg64
(lp4000
S'/OnlineExamination/static/js/calendar.js'
p4001
asbasbasbag57
(g73
g59
NtRp4002
(dp4003
g62
(dp4004
sg71
g3959
sg64
(lp4005
g57
(g78
g59
NtRp4006
(dp4007
g62
(dp4008
sg71
g4002
sg64
(lp4009
g57
(g58
g59
NtRp4010
(dp4011
g62
(dp4012
g70
I4
ssg71
g4006
sg64
(lp4013
S'/OnlineExamination/static/js/web2py.js'
p4014
asbasbasbag57
(g73
g59
NtRp4015
(dp4016
g62
(dp4017
sg71
g3959
sg64
(lp4018
g57
(g78
g59
NtRp4019
(dp4020
g62
(dp4021
sg71
g4015
sg64
(lp4022
g57
(g58
g59
NtRp4023
(dp4024
g62
(dp4025
g70
I4
ssg71
g4019
sg64
(lp4026
S'/OnlineExamination/static/css/web2py.css'
p4027
asbasbasbag57
(g73
g59
NtRp4028
(dp4029
g62
(dp4030
sg71
g3959
sg64
(lp4031
g57
(g78
g59
NtRp4032
(dp4033
g62
(dp4034
sg71
g4028
sg64
(lp4035
g57
(g58
g59
NtRp4036
(dp4037
g62
(dp4038
g70
I4
ssg71
g4032
sg64
(lp4039
S'/OnlineExamination/static/css/bootstrap.min.css'
p4040
asbasbasbag57
(g73
g59
NtRp4041
(dp4042
g62
(dp4043
sg71
g3959
sg64
(lp4044
g57
(g78
g59
NtRp4045
(dp4046
g62
(dp4047
sg71
g4041
sg64
(lp4048
g57
(g58
g59
NtRp4049
(dp4050
g62
(dp4051
g70
I4
ssg71
g4045
sg64
(lp4052
S'/OnlineExamination/static/css/bootstrap-responsive.min.css'
p4053
asbasbasbag57
(g73
g59
NtRp4054
(dp4055
g62
(dp4056
sg71
g3959
sg64
(lp4057
g57
(g78
g59
NtRp4058
(dp4059
g62
(dp4060
sg71
g4054
sg64
(lp4061
g57
(g58
g59
NtRp4062
(dp4063
g62
(dp4064
g70
I4
ssg71
g4058
sg64
(lp4065
S'/OnlineExamination/static/css/web2py_bootstrap.css'
p4066
asbasbasbasbasbasbasbag57
(g73
g59
NtRp4067
(dp4068
g62
(dp4069
sg71
g3653
sg64
(lp4070
g57
(g78
g59
NtRp4071
(dp4072
g62
(dp4073
g82
g83
ssg71
g4067
sg64
(lp4074
S'flash'
p4075
asbag57
(g78
g59
NtRp4076
(dp4077
g62
(dp4078
g89
g90
ssg71
g4067
sg64
(lp4079
S':'
asbag57
(g78
g59
NtRp4080
(dp4081
g62
(dp4082
sg71
g4067
sg64
(lp4083
g57
(g58
g59
NtRp4084
(dp4085
g62
(dp4086
g70
I5
ssg71
g4080
sg64
(lp4087
S''
asbasbasbag57
(g73
g59
NtRp4088
(dp4089
g62
(dp4090
sg71
g3653
sg64
(lp4091
g57
(g78
g59
NtRp4092
(dp4093
g62
(dp4094
g82
g83
ssg71
g4088
sg64
(lp4095
S'generic_patterns'
p4096
asbag57
(g78
g59
NtRp4097
(dp4098
g62
(dp4099
g89
g90
ssg71
g4088
sg64
(lp4100
S':'
asbag57
(g78
g59
NtRp4101
(dp4102
g62
(dp4103
sg71
g4088
sg64
(lp4104
g57
(g58
g59
NtRp4105
(dp4106
g62
(dp4107
g70
I5
ssg71
g4101
sg64
(lp4108
g57
(g66
g59
NtRp4109
(dp4110
g62
(dp4111
g70
I4
ssg71
Nsg64
(lp4112
g57
(g73
g59
NtRp4113
(dp4114
g62
(dp4115
sg71
g4109
sg64
(lp4116
g57
(g78
g59
NtRp4117
(dp4118
g62
(dp4119
sg71
g4113
sg64
(lp4120
g57
(g58
g59
NtRp4121
(dp4122
g62
(dp4123
g70
I4
ssg71
g4117
sg64
(lp4124
S'*'
asbasbasbasbasbasbasbag57
(g73
g59
NtRp4125
(dp4126
g62
(dp4127
sg71
g3653
sg64
(lp4128
g57
(g78
g59
NtRp4129
(dp4130
g62
(dp4131
g82
g83
ssg71
g4125
sg64
(lp4132
S'google_analytics_id'
p4133
asbag57
(g78
g59
NtRp4134
(dp4135
g62
(dp4136
g89
g90
ssg71
g4125
sg64
(lp4137
S':'
asbag57
(g78
g59
NtRp4138
(dp4139
g62
(dp4140
sg71
g4125
sg64
(lp4141
g57
(g58
g59
NtRp4142
(dp4143
g62
(dp4144
g70
I5
ssg71
g4138
sg64
(lp4145
S'None'
p4146
asbasbasbag57
(g73
g59
NtRp4147
(dp4148
g62
(dp4149
sg71
g3653
sg64
(lp4150
g57
(g78
g59
NtRp4151
(dp4152
g62
(dp4153
g82
g83
ssg71
g4147
sg64
(lp4154
S'headers'
p4155
asbag57
(g78
g59
NtRp4156
(dp4157
g62
(dp4158
g89
g90
ssg71
g4147
sg64
(lp4159
S':'
asbag57
(g78
g59
NtRp4160
(dp4161
g62
(dp4162
sg71
g4147
sg64
(lp4163
g57
(g58
g59
NtRp4164
(dp4165
g62
(dp4166
g70
I5
ssg71
g4160
sg64
(lp4167
g57
(g66
g59
NtRp4168
(dp4169
g62
(dp4170
g70
I4
ssg71
Nsg64
(lp4171
g57
(g73
g59
NtRp4172
(dp4173
g62
(dp4174
sg71
g4168
sg64
(lp4175
g57
(g78
g59
NtRp4176
(dp4177
g62
(dp4178
g82
g83
ssg71
g4172
sg64
(lp4179
S'X-Powered-By'
p4180
asbag57
(g78
g59
NtRp4181
(dp4182
g62
(dp4183
g89
g90
ssg71
g4172
sg64
(lp4184
S':'
asbag57
(g78
g59
NtRp4185
(dp4186
g62
(dp4187
sg71
g4172
sg64
(lp4188
g57
(g58
g59
NtRp4189
(dp4190
g62
(dp4191
g70
I4
ssg71
g4185
sg64
(lp4192
S'web2py'
p4193
asbasbasbasbasbasbasbag57
(g73
g59
NtRp4194
(dp4195
g62
(dp4196
sg71
g3653
sg64
(lp4197
g57
(g78
g59
NtRp4198
(dp4199
g62
(dp4200
g82
g83
ssg71
g4194
sg64
(lp4201
S'logo'
p4202
asbag57
(g78
g59
NtRp4203
(dp4204
g62
(dp4205
g89
g90
ssg71
g4194
sg64
(lp4206
S':'
asbag57
(g78
g59
NtRp4207
(dp4208
g62
(dp4209
sg71
g4194
sg64
(lp4210
g57
(g58
g59
NtRp4211
(dp4212
g62
(dp4213
g70
I5
ssg71
g4207
sg64
(lp4214
g57
(cgluon.html
A
p4215
g59
NtRp4216
(dp4217
g62
(dp4218
S'_class'
p4219
S'brand'
p4220
sS'_href'
p4221
S'http://www.web2py.com/'
p4222
ssg71
Nsg64
(lp4223
g57
(cgluon.html
B
p4224
g59
NtRp4225
(dp4226
g62
(dp4227
sg71
g4216
sg64
(lp4228
S'web'
p4229
ag57
(cgluon.html
SPAN
p4230
g59
NtRp4231
(dp4232
g62
(dp4233
sg71
g4225
sg64
(lp4234
I2
asbaS'py'
p4235
asbacgluon.html
XML_unpickle
p4236
(S's\r\x00\x00\x00&trade;&nbsp;'
tRp4237
asbasbasbasbag57
(g73
g59
NtRp4238
(dp4239
g62
(dp4240
sg71
g3653
sg64
(lp4241
g57
(g78
g59
NtRp4242
(dp4243
g62
(dp4244
g82
g83
ssg71
g4238
sg64
(lp4245
S'menu'
p4246
asbag57
(g78
g59
NtRp4247
(dp4248
g62
(dp4249
g89
g90
ssg71
g4238
sg64
(lp4250
S':'
asbag57
(g78
g59
NtRp4251
(dp4252
g62
(dp4253
sg71
g4238
sg64
(lp4254
g57
(g58
g59
NtRp4255
(dp4256
g62
(dp4257
g70
I5
ssg71
g4251
sg64
(lp4258
g57
(g66
g59
NtRp4259
(dp4260
g62
(dp4261
g70
I4
ssg71
Nsg64
(lp4262
g57
(g73
g59
NtRp4263
(dp4264
g62
(dp4265
sg71
g4259
sg64
(lp4266
g57
(g78
g59
NtRp4267
(dp4268
g62
(dp4269
sg71
g4263
sg64
(lp4270
g57
(g58
g59
NtRp4271
(dp4272
g62
(dp4273
g70
I4
ssg71
g4267
sg64
(lp4274
g57
(g66
g59
NtRp4275
(dp4276
g62
(dp4277
g70
I3
ssg71
Nsg64
(lp4278
g57
(g73
g59
NtRp4279
(dp4280
g62
(dp4281
sg71
g4275
sg64
(lp4282
g57
(g78
g59
NtRp4283
(dp4284
g62
(dp4285
sg71
g4279
sg64
(lp4286
g57
(g58
g59
NtRp4287
(dp4288
g62
(dp4289
g70
I3
ssg71
g4283
sg64
(lp4290
cgluon.languages
lazyT_unpickle
p4291
(S's\x04\x00\x00\x00Home'
tRp4292
asbasbasbag57
(g73
g59
NtRp4293
(dp4294
g62
(dp4295
sg71
g4275
sg64
(lp4296
g57
(g78
g59
NtRp4297
(dp4298
g62
(dp4299
sg71
g4293
sg64
(lp4300
g57
(g58
g59
NtRp4301
(dp4302
g62
(dp4303
g70
I3
ssg71
g4297
sg64
(lp4304
g100
asbasbasbag57
(g73
g59
NtRp4305
(dp4306
g62
(dp4307
sg71
g4275
sg64
(lp4308
g57
(g78
g59
NtRp4309
(dp4310
g62
(dp4311
sg71
g4305
sg64
(lp4312
g57
(g58
g59
NtRp4313
(dp4314
g62
(dp4315
g70
I3
ssg71
g4309
sg64
(lp4316
S'/OnlineExamination/default/index'
p4317
asbasbasbag57
(g73
g59
NtRp4318
(dp4319
g62
(dp4320
sg71
g4275
sg64
(lp4321
g57
(g78
g59
NtRp4322
(dp4323
g62
(dp4324
sg71
g4318
sg64
(lp4325
g57
(g58
g59
NtRp4326
(dp4327
g62
(dp4328
g70
I3
ssg71
g4322
sg64
(lp4329
g57
(g66
g59
NtRp4330
(dp4331
g62
(dp4332
g70
I2
ssg71
Nsg64
(lp4333
sbasbasbasbasbasbasbasbag57
(g73
g59
NtRp4334
(dp4335
g62
(dp4336
sg71
g4259
sg64
(lp4337
g57
(g78
g59
NtRp4338
(dp4339
g62
(dp4340
sg71
g4334
sg64
(lp4341
g57
(g58
g59
NtRp4342
(dp4343
g62
(dp4344
g70
I4
ssg71
g4338
sg64
(lp4345
g57
(g66
g59
NtRp4346
(dp4347
g62
(dp4348
g70
I3
ssg71
Nsg64
(lp4349
g57
(g73
g59
NtRp4350
(dp4351
g62
(dp4352
sg71
g4346
sg64
(lp4353
g57
(g78
g59
NtRp4354
(dp4355
g62
(dp4356
sg71
g4350
sg64
(lp4357
g57
(g58
g59
NtRp4358
(dp4359
g62
(dp4360
g70
I3
ssg71
g4354
sg64
(lp4361
g57
(g4230
g59
NtRp4362
(dp4363
g62
(dp4364
g4219
S'highlighted'
p4365
ssg71
g57
(g4215
g59
NtRp4366
(dp4367
g62
(dp4368
g4221
S'http://web2py.com'
p4369
ssg71
g57
(cgluon.html
LI
p4370
g59
NtRp4371
(dp4372
g62
(dp4373
g4219
S'dropdown'
p4374
ssg71
g57
(cgluon.html
UL
p4375
g59
NtRp4376
(dp4377
g62
(dp4378
S'mobile'
p4379
I00
sS'ul_class'
p4380
S'dropdown-menu'
p4381
sS'li_last'
p4382
S'web2py-menu-last'
p4383
sS'li_class'
p4384
g4374
sS'li_first'
p4385
S'web2py-menu-first'
p4386
sg4219
S'nav'
p4387
sS'li_active'
p4388
S'web2py-menu-active'
p4389
ssg71
Nsg64
(lp4390
g57
(g4370
g59
NtRp4391
(dp4392
g62
(dp4393
g4219
g4386
ssg71
g4376
sg64
(lp4394
g57
(g4215
g59
NtRp4395
(dp4396
g62
(dp4397
g4221
g4317
ssg71
g4391
sg64
(lp4398
g4292
asbasbag4371
asbsg64
(lp4399
g4366
ag57
(g4375
g59
NtRp4400
(dp4401
g62
(dp4402
g4219
g4381
ssg71
g4371
sg64
(lp4403
g57
(g4370
g59
NtRp4404
(dp4405
g62
(dp4406
sg71
g4400
sg64
(lp4407
g57
(g4215
g59
NtRp4408
(dp4409
g62
(dp4410
g4221
S'/admin/default/site'
p4411
ssg71
g4404
sg64
(lp4412
g4291
(S's\x08\x00\x00\x00My Sites'
tRp4413
asbasbag57
(g4370
g59
NtRp4414
(dp4415
g62
(dp4416
g4219
g4374
ssg71
g4400
sg64
(lp4417
g57
(g4215
g59
NtRp4418
(dp4419
g62
(dp4420
g4221
S'/admin/default/design/OnlineExamination'
p4421
ssg71
g4414
sg64
(lp4422
g4291
(S's\x08\x00\x00\x00This App'
tRp4423
asbag57
(g4375
g59
NtRp4424
(dp4425
g62
(dp4426
g4219
g4381
ssg71
g4414
sg64
(lp4427
g57
(g4370
g59
NtRp4428
(dp4429
g62
(dp4430
sg71
g4424
sg64
(lp4431
g57
(g4215
g59
NtRp4432
(dp4433
g62
(dp4434
g4221
S'/admin/default/edit/OnlineExamination/controllers/default.py'
p4435
ssg71
g4428
sg64
(lp4436
g4291
(S's\n\x00\x00\x00Controller'
tRp4437
asbasbag57
(g4370
g59
NtRp4438
(dp4439
g62
(dp4440
sg71
g4424
sg64
(lp4441
g57
(g4215
g59
NtRp4442
(dp4443
g62
(dp4444
g4221
S'/admin/default/edit/OnlineExamination/views/default/show_paper.html'
p4445
ssg71
g4438
sg64
(lp4446
g4291
(S's\x04\x00\x00\x00View'
tRp4447
asbasbag57
(g4370
g59
NtRp4448
(dp4449
g62
(dp4450
sg71
g4424
sg64
(lp4451
g57
(g4215
g59
NtRp4452
(dp4453
g62
(dp4454
g4221
S'/admin/default/edit/OnlineExamination/views/layout.html'
p4455
ssg71
g4448
sg64
(lp4456
g4291
(S's\x06\x00\x00\x00Layout'
tRp4457
asbasbag57
(g4370
g59
NtRp4458
(dp4459
g62
(dp4460
sg71
g4424
sg64
(lp4461
g57
(g4215
g59
NtRp4462
(dp4463
g62
(dp4464
g4221
S'/admin/default/edit/OnlineExamination/static/css/web2py.css'
p4465
ssg71
g4458
sg64
(lp4466
g4291
(S's\n\x00\x00\x00Stylesheet'
tRp4467
asbasbag57
(g4370
g59
NtRp4468
(dp4469
g62
(dp4470
sg71
g4424
sg64
(lp4471
g57
(g4215
g59
NtRp4472
(dp4473
g62
(dp4474
g4221
S'/admin/default/edit/OnlineExamination/models/db.py'
p4475
ssg71
g4468
sg64
(lp4476
g4291
(S's\x08\x00\x00\x00DB Model'
tRp4477
asbasbag57
(g4370
g59
NtRp4478
(dp4479
g62
(dp4480
sg71
g4424
sg64
(lp4481
g57
(g4215
g59
NtRp4482
(dp4483
g62
(dp4484
g4221
S'/admin/default/edit/OnlineExamination/models/menu.py'
p4485
ssg71
g4478
sg64
(lp4486
g4291
(S's\n\x00\x00\x00Menu Model'
tRp4487
asbasbag57
(g4370
g59
NtRp4488
(dp4489
g62
(dp4490
sg71
g4424
sg64
(lp4491
g57
(g4215
g59
NtRp4492
(dp4493
g62
(dp4494
g4221
S'/OnlineExamination/appadmin/index'
p4495
ssg71
g4488
sg64
(lp4496
g4291
(S's\x08\x00\x00\x00Database'
tRp4497
asbasbag57
(g4370
g59
NtRp4498
(dp4499
g62
(dp4500
sg71
g4424
sg64
(lp4501
g57
(g4215
g59
NtRp4502
(dp4503
g62
(dp4504
g4221
S'/admin/default/errors/OnlineExamination'
p4505
ssg71
g4498
sg64
(lp4506
g4291
(S's\x06\x00\x00\x00Errors'
tRp4507
asbasbag57
(g4370
g59
NtRp4508
(dp4509
g62
(dp4510
sg71
g4424
sg64
(lp4511
g57
(g4215
g59
NtRp4512
(dp4513
g62
(dp4514
g4221
S'/admin/default/about/OnlineExamination'
p4515
ssg71
g4508
sg64
(lp4516
g4291
(S's\x05\x00\x00\x00About'
tRp4517
asbasbasbasbag57
(g4370
g59
NtRp4518
(dp4519
g62
(dp4520
g4219
g4374
ssg71
g4400
sg64
(lp4521
g57
(g4215
g59
NtRp4522
(dp4523
g62
(dp4524
g4221
S'http://www.web2py.com'
p4525
ssg71
g4518
sg64
(lp4526
S'web2py.com'
p4527
asbag57
(g4375
g59
NtRp4528
(dp4529
g62
(dp4530
g4219
g4381
ssg71
g4518
sg64
(lp4531
g57
(g4370
g59
NtRp4532
(dp4533
g62
(dp4534
sg71
g4528
sg64
(lp4535
g57
(g4215
g59
NtRp4536
(dp4537
g62
(dp4538
g4221
S'http://www.web2py.com/examples/default/download'
p4539
ssg71
g4532
sg64
(lp4540
g4291
(S's\x08\x00\x00\x00Download'
tRp4541
asbasbag57
(g4370
g59
NtRp4542
(dp4543
g62
(dp4544
sg71
g4528
sg64
(lp4545
g57
(g4215
g59
NtRp4546
(dp4547
g62
(dp4548
g4221
S'http://www.web2py.com/examples/default/support'
p4549
ssg71
g4542
sg64
(lp4550
g4291
(S's\x07\x00\x00\x00Support'
tRp4551
asbasbag57
(g4370
g59
NtRp4552
(dp4553
g62
(dp4554
sg71
g4528
sg64
(lp4555
g57
(g4215
g59
NtRp4556
(dp4557
g62
(dp4558
g4221
S'http://web2py.com/demo_admin'
p4559
ssg71
g4552
sg64
(lp4560
g4291
(S's\x04\x00\x00\x00Demo'
tRp4561
asbasbag57
(g4370
g59
NtRp4562
(dp4563
g62
(dp4564
sg71
g4528
sg64
(lp4565
g57
(g4215
g59
NtRp4566
(dp4567
g62
(dp4568
g4221
S'http://web2py.com/examples/default/examples'
p4569
ssg71
g4562
sg64
(lp4570
g4291
(S's\x0e\x00\x00\x00Quick Examples'
tRp4571
asbasbag57
(g4370
g59
NtRp4572
(dp4573
g62
(dp4574
sg71
g4528
sg64
(lp4575
g57
(g4215
g59
NtRp4576
(dp4577
g62
(dp4578
g4221
S'http://web2py.com/AlterEgo'
p4579
ssg71
g4572
sg64
(lp4580
g4291
(S's\x03\x00\x00\x00FAQ'
tRp4581
asbasbag57
(g4370
g59
NtRp4582
(dp4583
g62
(dp4584
sg71
g4528
sg64
(lp4585
g57
(g4215
g59
NtRp4586
(dp4587
g62
(dp4588
g4221
S'http://www.web2py.com/examples/default/videos/'
p4589
ssg71
g4582
sg64
(lp4590
g4291
(S's\x06\x00\x00\x00Videos'
tRp4591
asbasbag57
(g4370
g59
NtRp4592
(dp4593
g62
(dp4594
sg71
g4528
sg64
(lp4595
g57
(g4215
g59
NtRp4596
(dp4597
g62
(dp4598
g4221
S'http://web2py.com/appliances'
p4599
ssg71
g4592
sg64
(lp4600
g4291
(S's\x11\x00\x00\x00Free Applications'
tRp4601
asbasbag57
(g4370
g59
NtRp4602
(dp4603
g62
(dp4604
sg71
g4528
sg64
(lp4605
g57
(g4215
g59
NtRp4606
(dp4607
g62
(dp4608
g4221
S'http://web2py.com/plugins'
p4609
ssg71
g4602
sg64
(lp4610
g4291
(S's\x07\x00\x00\x00Plugins'
tRp4611
asbasbag57
(g4370
g59
NtRp4612
(dp4613
g62
(dp4614
sg71
g4528
sg64
(lp4615
g57
(g4215
g59
NtRp4616
(dp4617
g62
(dp4618
g4221
S'http://web2py.com/layouts'
p4619
ssg71
g4612
sg64
(lp4620
g4291
(S's\x07\x00\x00\x00Layouts'
tRp4621
asbasbag57
(g4370
g59
NtRp4622
(dp4623
g62
(dp4624
sg71
g4528
sg64
(lp4625
g57
(g4215
g59
NtRp4626
(dp4627
g62
(dp4628
g4221
S'http://web2pyslices.com/'
p4629
ssg71
g4622
sg64
(lp4630
g4291
(S's\x07\x00\x00\x00Recipes'
tRp4631
asbasbag57
(g4370
g59
NtRp4632
(dp4633
g62
(dp4634
sg71
g4528
sg64
(lp4635
g57
(g4215
g59
NtRp4636
(dp4637
g62
(dp4638
g4221
S'http://web2py.com/semantic'
p4639
ssg71
g4632
sg64
(lp4640
g4291
(S's\x08\x00\x00\x00Semantic'
tRp4641
asbasbasbasbag57
(g4370
g59
NtRp4642
(dp4643
g62
(dp4644
g4219
g4374
ssg71
g4400
sg64
(lp4645
g57
(g4215
g59
NtRp4646
(dp4647
g62
(dp4648
g4221
S'http://www.web2py.com/book'
p4649
ssg71
g4642
sg64
(lp4650
g4291
(S's\r\x00\x00\x00Documentation'
tRp4651
asbag57
(g4375
g59
NtRp4652
(dp4653
g62
(dp4654
g4219
g4381
ssg71
g4642
sg64
(lp4655
g57
(g4370
g59
NtRp4656
(dp4657
g62
(dp4658
sg71
g4652
sg64
(lp4659
g57
(g4215
g59
NtRp4660
(dp4661
g62
(dp4662
g4221
S'http://www.web2py.com/book/default/chapter/00'
p4663
ssg71
g4656
sg64
(lp4664
g4291
(S's\x07\x00\x00\x00Preface'
tRp4665
asbasbag57
(g4370
g59
NtRp4666
(dp4667
g62
(dp4668
sg71
g4652
sg64
(lp4669
g57
(g4215
g59
NtRp4670
(dp4671
g62
(dp4672
g4221
S'http://www.web2py.com/book/default/chapter/01'
p4673
ssg71
g4666
sg64
(lp4674
g4291
(S's\x0c\x00\x00\x00Introduction'
tRp4675
asbasbag57
(g4370
g59
NtRp4676
(dp4677
g62
(dp4678
sg71
g4652
sg64
(lp4679
g57
(g4215
g59
NtRp4680
(dp4681
g62
(dp4682
g4221
S'http://www.web2py.com/book/default/chapter/02'
p4683
ssg71
g4676
sg64
(lp4684
g4291
(S's\x06\x00\x00\x00Python'
tRp4685
asbasbag57
(g4370
g59
NtRp4686
(dp4687
g62
(dp4688
sg71
g4652
sg64
(lp4689
g57
(g4215
g59
NtRp4690
(dp4691
g62
(dp4692
g4221
S'http://www.web2py.com/book/default/chapter/03'
p4693
ssg71
g4686
sg64
(lp4694
g4291
(S's\x08\x00\x00\x00Overview'
tRp4695
asbasbag57
(g4370
g59
NtRp4696
(dp4697
g62
(dp4698
sg71
g4652
sg64
(lp4699
g57
(g4215
g59
NtRp4700
(dp4701
g62
(dp4702
g4221
S'http://www.web2py.com/book/default/chapter/04'
p4703
ssg71
g4696
sg64
(lp4704
g4291
(S's\x08\x00\x00\x00The Core'
tRp4705
asbasbag57
(g4370
g59
NtRp4706
(dp4707
g62
(dp4708
sg71
g4652
sg64
(lp4709
g57
(g4215
g59
NtRp4710
(dp4711
g62
(dp4712
g4221
S'http://www.web2py.com/book/default/chapter/05'
p4713
ssg71
g4706
sg64
(lp4714
g4291
(S's\t\x00\x00\x00The Views'
tRp4715
asbasbag57
(g4370
g59
NtRp4716
(dp4717
g62
(dp4718
sg71
g4652
sg64
(lp4719
g57
(g4215
g59
NtRp4720
(dp4721
g62
(dp4722
g4221
S'http://www.web2py.com/book/default/chapter/06'
p4723
ssg71
g4716
sg64
(lp4724
g4291
(S's\x08\x00\x00\x00Database'
tRp4725
asbasbag57
(g4370
g59
NtRp4726
(dp4727
g62
(dp4728
sg71
g4652
sg64
(lp4729
g57
(g4215
g59
NtRp4730
(dp4731
g62
(dp4732
g4221
S'http://www.web2py.com/book/default/chapter/07'
p4733
ssg71
g4726
sg64
(lp4734
g4291
(S's\x14\x00\x00\x00Forms and Validators'
tRp4735
asbasbag57
(g4370
g59
NtRp4736
(dp4737
g62
(dp4738
sg71
g4652
sg64
(lp4739
g57
(g4215
g59
NtRp4740
(dp4741
g62
(dp4742
g4221
S'http://www.web2py.com/book/default/chapter/08'
p4743
ssg71
g4736
sg64
(lp4744
g4291
(S's\r\x00\x00\x00Email and SMS'
tRp4745
asbasbag57
(g4370
g59
NtRp4746
(dp4747
g62
(dp4748
sg71
g4652
sg64
(lp4749
g57
(g4215
g59
NtRp4750
(dp4751
g62
(dp4752
g4221
S'http://www.web2py.com/book/default/chapter/09'
p4753
ssg71
g4746
sg64
(lp4754
g4291
(S's\x0e\x00\x00\x00Access Control'
tRp4755
asbasbag57
(g4370
g59
NtRp4756
(dp4757
g62
(dp4758
sg71
g4652
sg64
(lp4759
g57
(g4215
g59
NtRp4760
(dp4761
g62
(dp4762
g4221
S'http://www.web2py.com/book/default/chapter/10'
p4763
ssg71
g4756
sg64
(lp4764
g4291
(S's\x08\x00\x00\x00Services'
tRp4765
asbasbag57
(g4370
g59
NtRp4766
(dp4767
g62
(dp4768
sg71
g4652
sg64
(lp4769
g57
(g4215
g59
NtRp4770
(dp4771
g62
(dp4772
g4221
S'http://www.web2py.com/book/default/chapter/11'
p4773
ssg71
g4766
sg64
(lp4774
g4291
(S's\x0c\x00\x00\x00Ajax Recipes'
tRp4775
asbasbag57
(g4370
g59
NtRp4776
(dp4777
g62
(dp4778
sg71
g4652
sg64
(lp4779
g57
(g4215
g59
NtRp4780
(dp4781
g62
(dp4782
g4221
S'http://www.web2py.com/book/default/chapter/12'
p4783
ssg71
g4776
sg64
(lp4784
g4291
(S's\x16\x00\x00\x00Components and Plugins'
tRp4785
asbasbag57
(g4370
g59
NtRp4786
(dp4787
g62
(dp4788
sg71
g4652
sg64
(lp4789
g57
(g4215
g59
NtRp4790
(dp4791
g62
(dp4792
g4221
S'http://www.web2py.com/book/default/chapter/13'
p4793
ssg71
g4786
sg64
(lp4794
g4291
(S's\x12\x00\x00\x00Deployment Recipes'
tRp4795
asbasbag57
(g4370
g59
NtRp4796
(dp4797
g62
(dp4798
sg71
g4652
sg64
(lp4799
g57
(g4215
g59
NtRp4800
(dp4801
g62
(dp4802
g4221
S'http://www.web2py.com/book/default/chapter/14'
p4803
ssg71
g4796
sg64
(lp4804
g4291
(S's\r\x00\x00\x00Other Recipes'
tRp4805
asbasbag57
(g4370
g59
NtRp4806
(dp4807
g62
(dp4808
sg71
g4652
sg64
(lp4809
g57
(g4215
g59
NtRp4810
(dp4811
g62
(dp4812
g4221
S'http://stores.lulu.com/web2py'
p4813
ssg71
g4806
sg64
(lp4814
g4291
(S's\r\x00\x00\x00Buy this book'
tRp4815
asbasbasbasbag57
(g4370
g59
NtRp4816
(dp4817
g62
(dp4818
g4219
g4374
ssg71
g4400
sg64
(lp4819
g57
(g4215
g59
NtRp4820
(dp4821
g62
(dp4822
S'_onclick'
p4823
S'javascript:void(0);return false;'
p4824
sg4221
S'#'
ssg71
g4816
sg64
(lp4825
g4291
(S's\t\x00\x00\x00Community'
tRp4826
asbag57
(g4375
g59
NtRp4827
(dp4828
g62
(dp4829
g4219
g4381
ssg71
g4816
sg64
(lp4830
g57
(g4370
g59
NtRp4831
(dp4832
g62
(dp4833
sg71
g4827
sg64
(lp4834
g57
(g4215
g59
NtRp4835
(dp4836
g62
(dp4837
g4221
S'http://www.web2py.com/examples/default/usergroups'
p4838
ssg71
g4831
sg64
(lp4839
g4291
(S's\x06\x00\x00\x00Groups'
tRp4840
asbasbag57
(g4370
g59
NtRp4841
(dp4842
g62
(dp4843
sg71
g4827
sg64
(lp4844
g57
(g4215
g59
NtRp4845
(dp4846
g62
(dp4847
g4221
S'http://twitter.com/web2py'
p4848
ssg71
g4841
sg64
(lp4849
g4291
(S's\x07\x00\x00\x00Twitter'
tRp4850
asbasbag57
(g4370
g59
NtRp4851
(dp4852
g62
(dp4853
sg71
g4827
sg64
(lp4854
g57
(g4215
g59
NtRp4855
(dp4856
g62
(dp4857
g4221
S'http://webchat.freenode.net/?channels=web2py'
p4858
ssg71
g4851
sg64
(lp4859
g4291
(S's\t\x00\x00\x00Live Chat'
tRp4860
asbasbasbasbag57
(g4370
g59
NtRp4861
(dp4862
g62
(dp4863
g4219
g4374
ssg71
g4400
sg64
(lp4864
g57
(g4215
g59
NtRp4865
(dp4866
g62
(dp4867
g4823
g4824
sg4221
S'#'
ssg71
g4861
sg64
(lp4868
g4291
(S's\x07\x00\x00\x00Plugins'
tRp4869
asbag57
(g4375
g59
NtRp4870
(dp4871
g62
(dp4872
g4219
g4381
ssg71
g4861
sg64
(lp4873
g57
(g4370
g59
NtRp4874
(dp4875
g62
(dp4876
sg71
g4870
sg64
(lp4877
g57
(g4215
g59
NtRp4878
(dp4879
g62
(dp4880
g4221
S'http://web2py.com/examples/default/download'
p4881
ssg71
g4874
sg64
(lp4882
S'plugin_wiki'
p4883
asbasbag57
(g4370
g59
NtRp4884
(dp4885
g62
(dp4886
sg71
g4870
sg64
(lp4887
g57
(g4215
g59
NtRp4888
(dp4889
g62
(dp4890
g4221
g4609
ssg71
g4884
sg64
(lp4891
g4291
(S's\r\x00\x00\x00Other Plugins'
tRp4892
asbasbag57
(g4370
g59
NtRp4893
(dp4894
g62
(dp4895
sg71
g4870
sg64
(lp4896
g57
(g4215
g59
NtRp4897
(dp4898
g62
(dp4899
g4221
g4619
ssg71
g4893
sg64
(lp4900
g4291
(S's\x0e\x00\x00\x00Layout Plugins'
tRp4901
asbasbasbasbasbasbsg64
(lp4902
g4362
asbsg64
(lp4903
g4193
asbasbasbasbag57
(g73
g59
NtRp4904
(dp4905
g62
(dp4906
sg71
g4346
sg64
(lp4907
g57
(g78
g59
NtRp4908
(dp4909
g62
(dp4910
sg71
g4904
sg64
(lp4911
g57
(g58
g59
NtRp4912
(dp4913
g62
(dp4914
g70
I3
ssg71
g4908
sg64
(lp4915
g100
asbasbasbag57
(g73
g59
NtRp4916
(dp4917
g62
(dp4918
sg71
g4346
sg64
(lp4919
g57
(g78
g59
NtRp4920
(dp4921
g62
(dp4922
sg71
g4916
sg64
(lp4923
g57
(g58
g59
NtRp4924
(dp4925
g62
(dp4926
g70
I3
ssg71
g4920
sg64
(lp4927
g4369
asbasbasbag57
(g73
g59
NtRp4928
(dp4929
g62
(dp4930
sg71
g4346
sg64
(lp4931
g57
(g78
g59
NtRp4932
(dp4933
g62
(dp4934
sg71
g4928
sg64
(lp4935
g57
(g58
g59
NtRp4936
(dp4937
g62
(dp4938
g70
I3
ssg71
g4932
sg64
(lp4939
g57
(g66
g59
NtRp4940
(dp4941
g62
(dp4942
g70
I2
ssg71
Nsg64
(lp4943
g57
(g73
g59
NtRp4944
(dp4945
g62
(dp4946
sg71
g4940
sg64
(lp4947
g57
(g78
g59
NtRp4948
(dp4949
g62
(dp4950
sg71
g4944
sg64
(lp4951
g57
(g58
g59
NtRp4952
(dp4953
g62
(dp4954
g70
I2
ssg71
g4948
sg64
(lp4955
g57
(g66
g59
NtRp4956
(dp4957
g62
(dp4958
g70
I1
ssg71
Nsg64
(lp4959
g57
(g73
g59
NtRp4960
(dp4961
g62
(dp4962
sg71
g4956
sg64
(lp4963
g57
(g78
g59
NtRp4964
(dp4965
g62
(dp4966
sg71
g4960
sg64
(lp4967
g57
(g58
g59
NtRp4968
(dp4969
g62
(dp4970
g70
I1
ssg71
g4964
sg64
(lp4971
g4413
asbasbasbag57
(g73
g59
NtRp4972
(dp4973
g62
(dp4974
sg71
g4956
sg64
(lp4975
g57
(g78
g59
NtRp4976
(dp4977
g62
(dp4978
sg71
g4972
sg64
(lp4979
g57
(g58
g59
NtRp4980
(dp4981
g62
(dp4982
g70
I1
ssg71
g4976
sg64
(lp4983
I00
asbasbasbag57
(g73
g59
NtRp4984
(dp4985
g62
(dp4986
sg71
g4956
sg64
(lp4987
g57
(g78
g59
NtRp4988
(dp4989
g62
(dp4990
sg71
g4984
sg64
(lp4991
g57
(g58
g59
NtRp4992
(dp4993
g62
(dp4994
g70
I1
ssg71
g4988
sg64
(lp4995
g4411
asbasbasbasbasbasbasbag57
(g73
g59
NtRp4996
(dp4997
g62
(dp4998
sg71
g4940
sg64
(lp4999
g57
(g78
g59
NtRp5000
(dp5001
g62
(dp5002
sg71
g4996
sg64
(lp5003
g57
(g58
g59
NtRp5004
(dp5005
g62
(dp5006
g70
I2
ssg71
g5000
sg64
(lp5007
g57
(g66
g59
NtRp5008
(dp5009
g62
(dp5010
g70
I1
ssg71
Nsg64
(lp5011
g57
(g73
g59
NtRp5012
(dp5013
g62
(dp5014
sg71
g5008
sg64
(lp5015
g57
(g78
g59
NtRp5016
(dp5017
g62
(dp5018
sg71
g5012
sg64
(lp5019
g57
(g58
g59
NtRp5020
(dp5021
g62
(dp5022
g70
I1
ssg71
g5016
sg64
(lp5023
g4423
asbasbasbag57
(g73
g59
NtRp5024
(dp5025
g62
(dp5026
sg71
g5008
sg64
(lp5027
g57
(g78
g59
NtRp5028
(dp5029
g62
(dp5030
sg71
g5024
sg64
(lp5031
g57
(g58
g59
NtRp5032
(dp5033
g62
(dp5034
g70
I1
ssg71
g5028
sg64
(lp5035
I00
asbasbasbag57
(g73
g59
NtRp5036
(dp5037
g62
(dp5038
sg71
g5008
sg64
(lp5039
g57
(g78
g59
NtRp5040
(dp5041
g62
(dp5042
sg71
g5036
sg64
(lp5043
g57
(g58
g59
NtRp5044
(dp5045
g62
(dp5046
g70
I1
ssg71
g5040
sg64
(lp5047
g4421
asbasbasbag57
(g73
g59
NtRp5048
(dp5049
g62
(dp5050
sg71
g5008
sg64
(lp5051
g57
(g78
g59
NtRp5052
(dp5053
g62
(dp5054
sg71
g5048
sg64
(lp5055
g57
(g58
g59
NtRp5056
(dp5057
g62
(dp5058
g70
I1
ssg71
g5052
sg64
(lp5059
(lp5060
(g4437
I00
g4435
tp5061
a(g4447
I00
g4445
tp5062
a(g4457
I00
g4455
tp5063
a(g4467
I00
g4465
tp5064
a(g4477
I00
g4475
tp5065
a(g4487
I00
g4485
tp5066
a(g4497
I00
g4495
tp5067
a(g4507
I00
g4505
tp5068
a(g4517
I00
g4515
tp5069
aasbasbasbasbasbasbasbag57
(g73
g59
NtRp5070
(dp5071
g62
(dp5072
sg71
g4940
sg64
(lp5073
g57
(g78
g59
NtRp5074
(dp5075
g62
(dp5076
sg71
g5070
sg64
(lp5077
g57
(g58
g59
NtRp5078
(dp5079
g62
(dp5080
g70
I2
ssg71
g5074
sg64
(lp5081
g57
(g66
g59
NtRp5082
(dp5083
g62
(dp5084
g70
I1
ssg71
Nsg64
(lp5085
g57
(g73
g59
NtRp5086
(dp5087
g62
(dp5088
sg71
g5082
sg64
(lp5089
g57
(g78
g59
NtRp5090
(dp5091
g62
(dp5092
sg71
g5086
sg64
(lp5093
g57
(g58
g59
NtRp5094
(dp5095
g62
(dp5096
g70
I1
ssg71
g5090
sg64
(lp5097
g4527
asbasbasbag57
(g73
g59
NtRp5098
(dp5099
g62
(dp5100
sg71
g5082
sg64
(lp5101
g57
(g78
g59
NtRp5102
(dp5103
g62
(dp5104
sg71
g5098
sg64
(lp5105
g57
(g58
g59
NtRp5106
(dp5107
g62
(dp5108
g70
I1
ssg71
g5102
sg64
(lp5109
I00
asbasbasbag57
(g73
g59
NtRp5110
(dp5111
g62
(dp5112
sg71
g5082
sg64
(lp5113
g57
(g78
g59
NtRp5114
(dp5115
g62
(dp5116
sg71
g5110
sg64
(lp5117
g57
(g58
g59
NtRp5118
(dp5119
g62
(dp5120
g70
I1
ssg71
g5114
sg64
(lp5121
g4525
asbasbasbag57
(g73
g59
NtRp5122
(dp5123
g62
(dp5124
sg71
g5082
sg64
(lp5125
g57
(g78
g59
NtRp5126
(dp5127
g62
(dp5128
sg71
g5122
sg64
(lp5129
g57
(g58
g59
NtRp5130
(dp5131
g62
(dp5132
g70
I1
ssg71
g5126
sg64
(lp5133
(lp5134
(g4541
I00
g4539
tp5135
a(g4551
I00
g4549
tp5136
a(g4561
I00
g4559
tp5137
a(g4571
I00
g4569
tp5138
a(g4581
I00
g4579
tp5139
a(g4591
I00
g4589
tp5140
a(g4601
I00
g4599
tp5141
a(g4611
I00
g4609
tp5142
a(g4621
I00
g4619
tp5143
a(g4631
I00
g4629
tp5144
a(g4641
I00
g4639
tp5145
aasbasbasbasbasbasbasbag57
(g73
g59
NtRp5146
(dp5147
g62
(dp5148
sg71
g4940
sg64
(lp5149
g57
(g78
g59
NtRp5150
(dp5151
g62
(dp5152
sg71
g5146
sg64
(lp5153
g57
(g58
g59
NtRp5154
(dp5155
g62
(dp5156
g70
I2
ssg71
g5150
sg64
(lp5157
g57
(g66
g59
NtRp5158
(dp5159
g62
(dp5160
g70
I1
ssg71
Nsg64
(lp5161
g57
(g73
g59
NtRp5162
(dp5163
g62
(dp5164
sg71
g5158
sg64
(lp5165
g57
(g78
g59
NtRp5166
(dp5167
g62
(dp5168
sg71
g5162
sg64
(lp5169
g57
(g58
g59
NtRp5170
(dp5171
g62
(dp5172
g70
I1
ssg71
g5166
sg64
(lp5173
g4651
asbasbasbag57
(g73
g59
NtRp5174
(dp5175
g62
(dp5176
sg71
g5158
sg64
(lp5177
g57
(g78
g59
NtRp5178
(dp5179
g62
(dp5180
sg71
g5174
sg64
(lp5181
g57
(g58
g59
NtRp5182
(dp5183
g62
(dp5184
g70
I1
ssg71
g5178
sg64
(lp5185
I00
asbasbasbag57
(g73
g59
NtRp5186
(dp5187
g62
(dp5188
sg71
g5158
sg64
(lp5189
g57
(g78
g59
NtRp5190
(dp5191
g62
(dp5192
sg71
g5186
sg64
(lp5193
g57
(g58
g59
NtRp5194
(dp5195
g62
(dp5196
g70
I1
ssg71
g5190
sg64
(lp5197
g4649
asbasbasbag57
(g73
g59
NtRp5198
(dp5199
g62
(dp5200
sg71
g5158
sg64
(lp5201
g57
(g78
g59
NtRp5202
(dp5203
g62
(dp5204
sg71
g5198
sg64
(lp5205
g57
(g58
g59
NtRp5206
(dp5207
g62
(dp5208
g70
I1
ssg71
g5202
sg64
(lp5209
(lp5210
(g4665
I00
g4663
tp5211
a(g4675
I00
g4673
tp5212
a(g4685
I00
g4683
tp5213
a(g4695
I00
g4693
tp5214
a(g4705
I00
g4703
tp5215
a(g4715
I00
g4713
tp5216
a(g4725
I00
g4723
tp5217
a(g4735
I00
g4733
tp5218
a(g4745
I00
g4743
tp5219
a(g4755
I00
g4753
tp5220
a(g4765
I00
g4763
tp5221
a(g4775
I00
g4773
tp5222
a(g4785
I00
g4783
tp5223
a(g4795
I00
g4793
tp5224
a(g4805
I00
g4803
tp5225
a(g4815
I00
g4813
tp5226
aasbasbasbasbasbasbasbag57
(g73
g59
NtRp5227
(dp5228
g62
(dp5229
sg71
g4940
sg64
(lp5230
g57
(g78
g59
NtRp5231
(dp5232
g62
(dp5233
sg71
g5227
sg64
(lp5234
g57
(g58
g59
NtRp5235
(dp5236
g62
(dp5237
g70
I2
ssg71
g5231
sg64
(lp5238
g57
(g66
g59
NtRp5239
(dp5240
g62
(dp5241
g70
I1
ssg71
Nsg64
(lp5242
g57
(g73
g59
NtRp5243
(dp5244
g62
(dp5245
sg71
g5239
sg64
(lp5246
g57
(g78
g59
NtRp5247
(dp5248
g62
(dp5249
sg71
g5243
sg64
(lp5250
g57
(g58
g59
NtRp5251
(dp5252
g62
(dp5253
g70
I1
ssg71
g5247
sg64
(lp5254
g4826
asbasbasbag57
(g73
g59
NtRp5255
(dp5256
g62
(dp5257
sg71
g5239
sg64
(lp5258
g57
(g78
g59
NtRp5259
(dp5260
g62
(dp5261
sg71
g5255
sg64
(lp5262
g57
(g58
g59
NtRp5263
(dp5264
g62
(dp5265
g70
I1
ssg71
g5259
sg64
(lp5266
I00
asbasbasbag57
(g73
g59
NtRp5267
(dp5268
g62
(dp5269
sg71
g5239
sg64
(lp5270
g57
(g78
g59
NtRp5271
(dp5272
g62
(dp5273
sg71
g5267
sg64
(lp5274
g57
(g58
g59
NtRp5275
(dp5276
g62
(dp5277
g70
I1
ssg71
g5271
sg64
(lp5278
Nasbasbasbag57
(g73
g59
NtRp5279
(dp5280
g62
(dp5281
sg71
g5239
sg64
(lp5282
g57
(g78
g59
NtRp5283
(dp5284
g62
(dp5285
sg71
g5279
sg64
(lp5286
g57
(g58
g59
NtRp5287
(dp5288
g62
(dp5289
g70
I1
ssg71
g5283
sg64
(lp5290
(lp5291
(g4840
I00
g4838
tp5292
a(g4850
I00
g4848
tp5293
a(g4860
I00
g4858
tp5294
aasbasbasbasbasbasbasbag57
(g73
g59
NtRp5295
(dp5296
g62
(dp5297
sg71
g4940
sg64
(lp5298
g57
(g78
g59
NtRp5299
(dp5300
g62
(dp5301
sg71
g5295
sg64
(lp5302
g57
(g58
g59
NtRp5303
(dp5304
g62
(dp5305
g70
I2
ssg71
g5299
sg64
(lp5306
g57
(g66
g59
NtRp5307
(dp5308
g62
(dp5309
g70
I1
ssg71
Nsg64
(lp5310
g57
(g73
g59
NtRp5311
(dp5312
g62
(dp5313
sg71
g5307
sg64
(lp5314
g57
(g78
g59
NtRp5315
(dp5316
g62
(dp5317
sg71
g5311
sg64
(lp5318
g57
(g58
g59
NtRp5319
(dp5320
g62
(dp5321
g70
I1
ssg71
g5315
sg64
(lp5322
g4869
asbasbasbag57
(g73
g59
NtRp5323
(dp5324
g62
(dp5325
sg71
g5307
sg64
(lp5326
g57
(g78
g59
NtRp5327
(dp5328
g62
(dp5329
sg71
g5323
sg64
(lp5330
g57
(g58
g59
NtRp5331
(dp5332
g62
(dp5333
g70
I1
ssg71
g5327
sg64
(lp5334
I00
asbasbasbag57
(g73
g59
NtRp5335
(dp5336
g62
(dp5337
sg71
g5307
sg64
(lp5338
g57
(g78
g59
NtRp5339
(dp5340
g62
(dp5341
sg71
g5335
sg64
(lp5342
g57
(g58
g59
NtRp5343
(dp5344
g62
(dp5345
g70
I1
ssg71
g5339
sg64
(lp5346
Nasbasbasbag57
(g73
g59
NtRp5347
(dp5348
g62
(dp5349
sg71
g5307
sg64
(lp5350
g57
(g78
g59
NtRp5351
(dp5352
g62
(dp5353
sg71
g5347
sg64
(lp5354
g57
(g58
g59
NtRp5355
(dp5356
g62
(dp5357
g70
I1
ssg71
g5351
sg64
(lp5358
(lp5359
(g4883
I00
g4881
tp5360
a(g4892
I00
g4609
tp5361
a(g4901
I00
g4619
tp5362
aasbasbasbasbasbasbasbasbasbasbasbasbasbasbasbasbasbasbasbag57
(g73
g59
NtRp5363
(dp5364
g62
(dp5365
sg71
g3653
sg64
(lp5366
g57
(g78
g59
NtRp5367
(dp5368
g62
(dp5369
g82
g83
ssg71
g5363
sg64
(lp5370
S'meta'
p5371
asbag57
(g78
g59
NtRp5372
(dp5373
g62
(dp5374
g89
g90
ssg71
g5363
sg64
(lp5375
S':'
asbag57
(g78
g59
NtRp5376
(dp5377
g62
(dp5378
sg71
g5363
sg64
(lp5379
g57
(g58
g59
NtRp5380
(dp5381
g62
(dp5382
g70
I5
ssg71
g5376
sg64
(lp5383
g57
(g66
g59
NtRp5384
(dp5385
g62
(dp5386
g70
I4
ssg71
Nsg64
(lp5387
g57
(g73
g59
NtRp5388
(dp5389
g62
(dp5390
sg71
g5384
sg64
(lp5391
g57
(g78
g59
NtRp5392
(dp5393
g62
(dp5394
g82
g83
ssg71
g5388
sg64
(lp5395
S'author'
p5396
asbag57
(g78
g59
NtRp5397
(dp5398
g62
(dp5399
g89
g90
ssg71
g5388
sg64
(lp5400
S':'
asbag57
(g78
g59
NtRp5401
(dp5402
g62
(dp5403
sg71
g5388
sg64
(lp5404
g57
(g58
g59
NtRp5405
(dp5406
g62
(dp5407
g70
I4
ssg71
g5401
sg64
(lp5408
S'Your Name <you@example.com>'
p5409
asbasbasbag57
(g73
g59
NtRp5410
(dp5411
g62
(dp5412
sg71
g5384
sg64
(lp5413
g57
(g78
g59
NtRp5414
(dp5415
g62
(dp5416
g82
g83
ssg71
g5410
sg64
(lp5417
S'description'
p5418
asbag57
(g78
g59
NtRp5419
(dp5420
g62
(dp5421
g89
g90
ssg71
g5410
sg64
(lp5422
S':'
asbag57
(g78
g59
NtRp5423
(dp5424
g62
(dp5425
sg71
g5410
sg64
(lp5426
g57
(g58
g59
NtRp5427
(dp5428
g62
(dp5429
g70
I4
ssg71
g5423
sg64
(lp5430
S'a cool new app'
p5431
asbasbasbag57
(g73
g59
NtRp5432
(dp5433
g62
(dp5434
sg71
g5384
sg64
(lp5435
g57
(g78
g59
NtRp5436
(dp5437
g62
(dp5438
g82
g83
ssg71
g5432
sg64
(lp5439
S'generator'
p5440
asbag57
(g78
g59
NtRp5441
(dp5442
g62
(dp5443
g89
g90
ssg71
g5432
sg64
(lp5444
S':'
asbag57
(g78
g59
NtRp5445
(dp5446
g62
(dp5447
sg71
g5432
sg64
(lp5448
g57
(g58
g59
NtRp5449
(dp5450
g62
(dp5451
g70
I4
ssg71
g5445
sg64
(lp5452
S'Web2py Web Framework'
p5453
asbasbasbag57
(g73
g59
NtRp5454
(dp5455
g62
(dp5456
sg71
g5384
sg64
(lp5457
g57
(g78
g59
NtRp5458
(dp5459
g62
(dp5460
g82
g83
ssg71
g5454
sg64
(lp5461
S'keywords'
p5462
asbag57
(g78
g59
NtRp5463
(dp5464
g62
(dp5465
g89
g90
ssg71
g5454
sg64
(lp5466
S':'
asbag57
(g78
g59
NtRp5467
(dp5468
g62
(dp5469
sg71
g5454
sg64
(lp5470
g57
(g58
g59
NtRp5471
(dp5472
g62
(dp5473
g70
I4
ssg71
g5467
sg64
(lp5474
S'web2py, python, framework'
p5475
asbasbasbasbasbasbasbag57
(g73
g59
NtRp5476
(dp5477
g62
(dp5478
sg71
g3653
sg64
(lp5479
g57
(g78
g59
NtRp5480
(dp5481
g62
(dp5482
g82
g83
ssg71
g5476
sg64
(lp5483
S'models_to_run'
p5484
asbag57
(g78
g59
NtRp5485
(dp5486
g62
(dp5487
g89
g90
ssg71
g5476
sg64
(lp5488
S':'
asbag57
(g78
g59
NtRp5489
(dp5490
g62
(dp5491
sg71
g5476
sg64
(lp5492
g57
(g58
g59
NtRp5493
(dp5494
g62
(dp5495
g70
I5
ssg71
g5489
sg64
(lp5496
g57
(g66
g59
NtRp5497
(dp5498
g62
(dp5499
g70
I4
ssg71
Nsg64
(lp5500
g57
(g73
g59
NtRp5501
(dp5502
g62
(dp5503
sg71
g5497
sg64
(lp5504
g57
(g78
g59
NtRp5505
(dp5506
g62
(dp5507
sg71
g5501
sg64
(lp5508
g57
(g58
g59
NtRp5509
(dp5510
g62
(dp5511
g70
I4
ssg71
g5505
sg64
(lp5512
S'^\\w+\\.py$'
p5513
asbasbasbag57
(g73
g59
NtRp5514
(dp5515
g62
(dp5516
sg71
g5497
sg64
(lp5517
g57
(g78
g59
NtRp5518
(dp5519
g62
(dp5520
sg71
g5514
sg64
(lp5521
g57
(g58
g59
NtRp5522
(dp5523
g62
(dp5524
g70
I4
ssg71
g5518
sg64
(lp5525
S'^default/\\w+\\.py$'
p5526
asbasbasbag57
(g73
g59
NtRp5527
(dp5528
g62
(dp5529
sg71
g5497
sg64
(lp5530
g57
(g78
g59
NtRp5531
(dp5532
g62
(dp5533
sg71
g5527
sg64
(lp5534
g57
(g58
g59
NtRp5535
(dp5536
g62
(dp5537
g70
I4
ssg71
g5531
sg64
(lp5538
S'^default/show_paper/\\w+\\.py$'
p5539
asbasbasbasbasbasbasbag57
(g73
g59
NtRp5540
(dp5541
g62
(dp5542
sg71
g3653
sg64
(lp5543
g57
(g78
g59
NtRp5544
(dp5545
g62
(dp5546
g82
g83
ssg71
g5540
sg64
(lp5547
S'postprocessing'
p5548
asbag57
(g78
g59
NtRp5549
(dp5550
g62
(dp5551
g89
g90
ssg71
g5540
sg64
(lp5552
S':'
asbag57
(g78
g59
NtRp5553
(dp5554
g62
(dp5555
sg71
g5540
sg64
(lp5556
g57
(g58
g59
NtRp5557
(dp5558
g62
(dp5559
g70
I5
ssg71
g5553
sg64
(lp5560
g57
(g66
g59
NtRp5561
(dp5562
g62
(dp5563
g70
I4
ssg71
Nsg64
(lp5564
sbasbasbasbag57
(g73
g59
NtRp5565
(dp5566
g62
(dp5567
sg71
g3653
sg64
(lp5568
g57
(g78
g59
NtRp5569
(dp5570
g62
(dp5571
g82
g83
ssg71
g5565
sg64
(lp5572
S'session_cookie_expires'
p5573
asbag57
(g78
g59
NtRp5574
(dp5575
g62
(dp5576
g89
g90
ssg71
g5565
sg64
(lp5577
S':'
asbag57
(g78
g59
NtRp5578
(dp5579
g62
(dp5580
sg71
g5565
sg64
(lp5581
g57
(g58
g59
NtRp5582
(dp5583
g62
(dp5584
g70
I5
ssg71
g5578
sg64
(lp5585
S'None'
p5586
asbasbasbag57
(g73
g59
NtRp5587
(dp5588
g62
(dp5589
sg71
g3653
sg64
(lp5590
g57
(g78
g59
NtRp5591
(dp5592
g62
(dp5593
g82
g83
ssg71
g5587
sg64
(lp5594
S'session_data_name'
p5595
asbag57
(g78
g59
NtRp5596
(dp5597
g62
(dp5598
g89
g90
ssg71
g5587
sg64
(lp5599
S':'
asbag57
(g78
g59
NtRp5600
(dp5601
g62
(dp5602
sg71
g5587
sg64
(lp5603
g57
(g58
g59
NtRp5604
(dp5605
g62
(dp5606
g70
I5
ssg71
g5600
sg64
(lp5607
S'session_data_onlineexamination'
p5608
asbasbasbag57
(g73
g59
NtRp5609
(dp5610
g62
(dp5611
sg71
g3653
sg64
(lp5612
g57
(g78
g59
NtRp5613
(dp5614
g62
(dp5615
g82
g83
ssg71
g5609
sg64
(lp5616
S'session_file'
p5617
asbag57
(g78
g59
NtRp5618
(dp5619
g62
(dp5620
g89
g90
ssg71
g5609
sg64
(lp5621
S':'
asbag57
(g78
g59
NtRp5622
(dp5623
g62
(dp5624
sg71
g5609
sg64
(lp5625
g57
(g58
g59
NtRp5626
(dp5627
g62
(dp5628
g70
I5
ssg71
g5622
sg64
(lp5629
S"<open file '/home/gaurav/classwork/WEB_PROGRAMMING/web2py/applications/OnlineExamination/sessions/127.0.0.1-890005ee-6292-472c-99ed-b32ea0089194', mode 'rb+' at 0xa8e75a0>"
p5630
asbasbasbag57
(g73
g59
NtRp5631
(dp5632
g62
(dp5633
sg71
g3653
sg64
(lp5634
g57
(g78
g59
NtRp5635
(dp5636
g62
(dp5637
g82
g83
ssg71
g5631
sg64
(lp5638
S'session_filename'
p5639
asbag57
(g78
g59
NtRp5640
(dp5641
g62
(dp5642
g89
g90
ssg71
g5631
sg64
(lp5643
S':'
asbag57
(g78
g59
NtRp5644
(dp5645
g62
(dp5646
sg71
g5631
sg64
(lp5647
g57
(g58
g59
NtRp5648
(dp5649
g62
(dp5650
g70
I5
ssg71
g5644
sg64
(lp5651
S'/home/gaurav/classwork/WEB_PROGRAMMING/web2py/applications/OnlineExamination/sessions/127.0.0.1-890005ee-6292-472c-99ed-b32ea0089194'
p5652
asbasbasbag57
(g73
g59
NtRp5653
(dp5654
g62
(dp5655
sg71
g3653
sg64
(lp5656
g57
(g78
g59
NtRp5657
(dp5658
g62
(dp5659
g82
g83
ssg71
g5653
sg64
(lp5660
S'session_id'
p5661
asbag57
(g78
g59
NtRp5662
(dp5663
g62
(dp5664
g89
g90
ssg71
g5653
sg64
(lp5665
S':'
asbag57
(g78
g59
NtRp5666
(dp5667
g62
(dp5668
sg71
g5653
sg64
(lp5669
g57
(g58
g59
NtRp5670
(dp5671
g62
(dp5672
g70
I5
ssg71
g5666
sg64
(lp5673
g475
asbasbasbag57
(g73
g59
NtRp5674
(dp5675
g62
(dp5676
sg71
g3653
sg64
(lp5677
g57
(g78
g59
NtRp5678
(dp5679
g62
(dp5680
g82
g83
ssg71
g5674
sg64
(lp5681
S'session_id_name'
p5682
asbag57
(g78
g59
NtRp5683
(dp5684
g62
(dp5685
g89
g90
ssg71
g5674
sg64
(lp5686
S':'
asbag57
(g78
g59
NtRp5687
(dp5688
g62
(dp5689
sg71
g5674
sg64
(lp5690
g57
(g58
g59
NtRp5691
(dp5692
g62
(dp5693
g70
I5
ssg71
g5687
sg64
(lp5694
g3710
asbasbasbag57
(g73
g59
NtRp5695
(dp5696
g62
(dp5697
sg71
g3653
sg64
(lp5698
g57
(g78
g59
NtRp5699
(dp5700
g62
(dp5701
g82
g83
ssg71
g5695
sg64
(lp5702
S'session_locked'
p5703
asbag57
(g78
g59
NtRp5704
(dp5705
g62
(dp5706
g89
g90
ssg71
g5695
sg64
(lp5707
S':'
asbag57
(g78
g59
NtRp5708
(dp5709
g62
(dp5710
sg71
g5695
sg64
(lp5711
g57
(g58
g59
NtRp5712
(dp5713
g62
(dp5714
g70
I5
ssg71
g5708
sg64
(lp5715
g1747
asbasbasbag57
(g73
g59
NtRp5716
(dp5717
g62
(dp5718
sg71
g3653
sg64
(lp5719
g57
(g78
g59
NtRp5720
(dp5721
g62
(dp5722
g82
g83
ssg71
g5716
sg64
(lp5723
S'session_new'
p5724
asbag57
(g78
g59
NtRp5725
(dp5726
g62
(dp5727
g89
g90
ssg71
g5716
sg64
(lp5728
S':'
asbag57
(g78
g59
NtRp5729
(dp5730
g62
(dp5731
sg71
g5716
sg64
(lp5732
g57
(g58
g59
NtRp5733
(dp5734
g62
(dp5735
g70
I5
ssg71
g5729
sg64
(lp5736
g100
asbasbasbag57
(g73
g59
NtRp5737
(dp5738
g62
(dp5739
sg71
g3653
sg64
(lp5740
g57
(g78
g59
NtRp5741
(dp5742
g62
(dp5743
g82
g83
ssg71
g5737
sg64
(lp5744
S'session_storage_type'
p5745
asbag57
(g78
g59
NtRp5746
(dp5747
g62
(dp5748
g89
g90
ssg71
g5737
sg64
(lp5749
S':'
asbag57
(g78
g59
NtRp5750
(dp5751
g62
(dp5752
sg71
g5737
sg64
(lp5753
g57
(g58
g59
NtRp5754
(dp5755
g62
(dp5756
g70
I5
ssg71
g5750
sg64
(lp5757
g3181
asbasbasbag57
(g73
g59
NtRp5758
(dp5759
g62
(dp5760
sg71
g3653
sg64
(lp5761
g57
(g78
g59
NtRp5762
(dp5763
g62
(dp5764
g82
g83
ssg71
g5758
sg64
(lp5765
S'status'
p5766
asbag57
(g78
g59
NtRp5767
(dp5768
g62
(dp5769
g89
g90
ssg71
g5758
sg64
(lp5770
S':'
asbag57
(g78
g59
NtRp5771
(dp5772
g62
(dp5773
sg71
g5758
sg64
(lp5774
g57
(g58
g59
NtRp5775
(dp5776
g62
(dp5777
g70
I5
ssg71
g5771
sg64
(lp5778
S'200'
p5779
asbasbasbag57
(g73
g59
NtRp5780
(dp5781
g62
(dp5782
sg71
g3653
sg64
(lp5783
g57
(g78
g59
NtRp5784
(dp5785
g62
(dp5786
g82
g83
ssg71
g5780
sg64
(lp5787
S'subtitle'
p5788
asbag57
(g78
g59
NtRp5789
(dp5790
g62
(dp5791
g89
g90
ssg71
g5780
sg64
(lp5792
S':'
asbag57
(g78
g59
NtRp5793
(dp5794
g62
(dp5795
sg71
g5780
sg64
(lp5796
g57
(g58
g59
NtRp5797
(dp5798
g62
(dp5799
g70
I5
ssg71
g5793
sg64
(lp5800
g4291
(S's\x13\x00\x00\x00Online Exam Portal!'
tRp5801
asbasbasbag57
(g73
g59
NtRp5802
(dp5803
g62
(dp5804
sg71
g3653
sg64
(lp5805
g57
(g78
g59
NtRp5806
(dp5807
g62
(dp5808
g82
g83
ssg71
g5802
sg64
(lp5809
S'title'
p5810
asbag57
(g78
g59
NtRp5811
(dp5812
g62
(dp5813
g89
g90
ssg71
g5802
sg64
(lp5814
S':'
asbag57
(g78
g59
NtRp5815
(dp5816
g62
(dp5817
sg71
g5802
sg64
(lp5818
g57
(g58
g59
NtRp5819
(dp5820
g62
(dp5821
g70
I5
ssg71
g5815
sg64
(lp5822
S'Onlineexamination'
p5823
asbasbasbag57
(g73
g59
NtRp5824
(dp5825
g62
(dp5826
sg71
g3653
sg64
(lp5827
g57
(g78
g59
NtRp5828
(dp5829
g62
(dp5830
g82
g83
ssg71
g5824
sg64
(lp5831
S'view'
p5832
asbag57
(g78
g59
NtRp5833
(dp5834
g62
(dp5835
g89
g90
ssg71
g5824
sg64
(lp5836
S':'
asbag57
(g78
g59
NtRp5837
(dp5838
g62
(dp5839
sg71
g5824
sg64
(lp5840
g57
(g58
g59
NtRp5841
(dp5842
g62
(dp5843
g70
I5
ssg71
g5837
sg64
(lp5844
S'default/show_paper.html'
p5845
asbasbasbasbasbsS'locals'
p5846
(dp5847
S'Service'
p5848
S"<class 'gluon.tools.Service'>"
p5849
sS'OBJECT'
p5850
S"<class 'gluon.html.OBJECT'>"
p5851
sS'SQLDB'
p5852
S"<class 'gluon.dal.DAL'>"
p5853
sg3234
S"<Storage {'last_query': 'db.auth_membership.id>0...login]': '2c7c5510-aeeb-48d8-9310-2517442b6f25'}>"
p5854
sS'LINK'
p5855
S"<class 'gluon.html.LINK'>"
p5856
sS'BR'
p5857
S"<class 'gluon.html.BR'>"
p5858
sS'local_import'
p5859
S'<function <lambda>>'
p5860
sS'OPTGROUP'
p5861
S"<class 'gluon.html.OPTGROUP'>"
p5862
sS'query'
p5863
S'<Rows (2)>'
p5864
sS'__package__'
p5865
S'None'
p5866
sS'PRE'
p5867
S"<class 'gluon.html.PRE'>"
p5868
sS'IS_INT_IN_RANGE'
p5869
S"<class 'gluon.validators.IS_INT_IN_RANGE'>"
p5870
sS'left_sidebar_enabled'
p5871
g100
sS'IS_LOWER'
p5872
S"<class 'gluon.validators.IS_LOWER'>"
p5873
sS'IS_STRONG'
p5874
S"<class 'gluon.validators.IS_STRONG'>"
p5875
sS'cache'
p5876
S'<gluon.cache.Cache object>'
p5877
sS'IS_IN_DB'
p5878
S"<class 'gluon.validators.IS_IN_DB'>"
p5879
sS'TAG'
p5880
S'<gluon.html.__TAG__ object>'
p5881
sS'SQLField'
p5882
S"<class 'gluon.dal.Field'>"
p5883
sS'mail'
p5884
S'<gluon.tools.Mail object>'
p5885
sS'BODY'
p5886
S"<class 'gluon.html.BODY'>"
p5887
sS'IS_DATE_IN_RANGE'
p5888
S"<class 'gluon.validators.IS_DATE_IN_RANGE'>"
p5889
sS'IFRAME'
p5890
S"<class 'gluon.html.IFRAME'>"
p5891
sS'URL'
p5892
S'<function URL>'
p5893
sS'__file__'
p5894
S"'/home/gaurav/classwork/WEB_PROGRAMMING/web2py/ap...s/OnlineExamination/views/default/show_paper.html'"
p5895
sS'db'
p5896
S'<DAL uri="sqlite://storage.sqlite">'
p5897
sS'auth'
p5898
S'<gluon.tools.Auth object>'
p5899
sS'P'
S"<class 'gluon.html.P'>"
p5900
sS'grid'
p5901
S'<gluon.html.DIV object>'
p5902
sS'TFOOT'
p5903
S"<class 'gluon.html.TFOOT'>"
p5904
sS'XHTML'
p5905
S"<class 'gluon.html.XHTML'>"
p5906
sS'ON'
p5907
g1747
sS'OL'
p5908
S"<class 'gluon.html.OL'>"
p5909
sS'TEXTAREA'
p5910
S"<class 'gluon.html.TEXTAREA'>"
p5911
sS'MENU'
p5912
S"<class 'gluon.html.MENU'>"
p5913
sS'IS_IMAGE'
p5914
S"<class 'gluon.validators.IS_IMAGE'>"
p5915
sS'EM'
p5916
S"<class 'gluon.html.EM'>"
p5917
sS'CODE'
p5918
S"<class 'gluon.html.CODE'>"
p5919
sS'HTTP'
p5920
S"<class 'gluon.http.HTTP'>"
p5921
sS'HR'
p5922
S"<class 'gluon.html.HR'>"
p5923
sS'IS_DATETIME'
p5924
S"<class 'gluon.validators.IS_DATETIME'>"
p5925
sS'STYLE'
p5926
S"<class 'gluon.html.STYLE'>"
p5927
sS'LABEL'
p5928
S"<class 'gluon.html.LABEL'>"
p5929
sS'CLEANUP'
p5930
S"<class 'gluon.validators.CLEANUP'>"
p5931
sS'plugins'
p5932
S'<gluon.tools.PluginManager object>'
p5933
sS'SELECT'
p5934
S"<class 'gluon.html.SELECT'>"
p5935
sS'use_janrain'
p5936
S'<function use_janrain>'
p5937
sS'CENTER'
p5938
S"<class 'gluon.html.CENTER'>"
p5939
sS'prettydate'
p5940
S'<function prettydate>'
p5941
sS'Crud'
p5942
S"<class 'gluon.tools.Crud'>"
p5943
sS'Auth'
p5944
S"<class 'gluon.tools.Auth'>"
p5945
sS'DEVELOPMENT_MENU'
p5946
g1747
sS'__builtins__'
p5947
S"{'ArithmeticError': <type 'exceptions.ArithmeticError'>, 'AssertionError': <type 'exceptions.AssertionError'>, 'AttributeError': <type 'exceptions.AttributeError'>, 'BaseException': <type 'exceptions.BaseException'>, 'BufferError': <type 'exceptions.BufferError'>, 'BytesWarning': <type 'exceptions.BytesWarning'>, 'DeprecationWarning': <type 'exceptions.DeprecationWarning'>, 'EOFError': <type 'exceptions.EOFError'>, 'Ellipsis': Ellipsis, 'EnvironmentError': <type 'exceptions.EnvironmentError'>, ...}"
p5948
sS'HTML'
p5949
S"<class 'gluon.html.HTML'>"
p5950
sS'SQLFORM'
p5951
S"<class 'gluon.sqlhtml.SQLFORM'>"
p5952
sS'LOAD'
p5953
S'<function LOAD>'
p5954
sS'redirect'
p5955
S'<function redirect>'
p5956
sS'FIELDSET'
p5957
S"<class 'gluon.html.FIELDSET'>"
p5958
sS'IS_EQUAL_TO'
p5959
S"<class 'gluon.validators.IS_EQUAL_TO'>"
p5960
sS'embed64'
p5961
S'<function embed64>'
p5962
sS'IS_LIST_OF'
p5963
S"<class 'gluon.validators.IS_LIST_OF'>"
p5964
sS'INPUT'
p5965
S"<class 'gluon.html.INPUT'>"
p5966
sS'EMBED'
p5967
S"<class 'gluon.html.EMBED'>"
p5968
sS'_'
S'<function _>'
p5969
sS'H2'
p5970
S"<class 'gluon.html.H2'>"
p5971
sS'H3'
p5972
S"<class 'gluon.html.H3'>"
p5973
sS'BUTTON'
p5974
S"<class 'gluon.html.BUTTON'>"
p5975
sS'H1'
p5976
S"<class 'gluon.html.H1'>"
p5977
sS'H6'
p5978
S"<class 'gluon.html.H6'>"
p5979
sS'H4'
p5980
S"<class 'gluon.html.H4'>"
p5981
sS'H5'
p5982
S"<class 'gluon.html.H5'>"
p5983
sS'UL'
p5984
S"<class 'gluon.html.UL'>"
p5985
sS'IS_UPPER'
p5986
S"<class 'gluon.validators.IS_UPPER'>"
p5987
sS'xmlescape'
p5988
S'<function xmlescape>'
p5989
sS'IS_TIME'
p5990
S"<class 'gluon.validators.IS_TIME'>"
p5991
sS'OPTION'
p5992
S"<class 'gluon.html.OPTION'>"
p5993
sS'TITLE'
p5994
S"<class 'gluon.html.TITLE'>"
p5995
sS'CRYPT'
p5996
S"<class 'gluon.validators.CRYPT'>"
p5997
sS'IS_EMPTY_OR'
p5998
S"<class 'gluon.validators.IS_EMPTY_OR'>"
p5999
sS'MARKMIN'
p6000
S"<class 'gluon.html.MARKMIN'>"
p6001
sS'__name__'
p6002
S"'__restricted__'"
p6003
sS'STRONG'
p6004
S"<class 'gluon.html.STRONG'>"
p6005
sS'COL'
p6006
S"<class 'gluon.html.COL'>"
p6007
sS'service'
p6008
S'<gluon.tools.Service object>'
p6009
sS'SCRIPT'
p6010
S"<class 'gluon.html.SCRIPT'>"
p6011
sS'is_mobile'
p6012
g100
sS'TABLE'
p6013
S"<class 'gluon.html.TABLE'>"
p6014
sS'IS_IPV4'
p6015
S"<class 'gluon.validators.IS_IPV4'>"
p6016
sS'IS_LENGTH'
p6017
S"<class 'gluon.validators.IS_LENGTH'>"
p6018
sS'XML'
p6019
S"<class 'gluon.html.XML'>"
p6020
sS'B'
S"<class 'gluon.html.B'>"
p6021
sS'IMG'
p6022
S"<class 'gluon.html.IMG'>"
p6023
sS'SQLTABLE'
p6024
S"<class 'gluon.sqlhtml.SQLTABLE'>"
p6025
sS'IS_MATCH'
p6026
S"<class 'gluon.validators.IS_MATCH'>"
p6027
sS'IS_ALPHANUMERIC'
p6028
S"<class 'gluon.validators.IS_ALPHANUMERIC'>"
p6029
sS'SPAN'
p6030
S"<class 'gluon.html.SPAN'>"
p6031
sS'IS_SLUG'
p6032
S"<class 'gluon.validators.IS_SLUG'>"
p6033
sS'BEAUTIFY'
p6034
S"<class 'gluon.html.BEAUTIFY'>"
p6035
sS'META'
p6036
S"<class 'gluon.html.META'>"
p6037
sS'IS_DATE'
p6038
S"<class 'gluon.validators.IS_DATE'>"
p6039
sS'IS_EMAIL'
p6040
S"<class 'gluon.validators.IS_EMAIL'>"
p6041
sS'IS_NOT_EMPTY'
p6042
S"<class 'gluon.validators.IS_NOT_EMPTY'>"
p6043
sS'IS_FLOAT_IN_RANGE'
p6044
S"<class 'gluon.validators.IS_FLOAT_IN_RANGE'>"
p6045
sS'TBODY'
p6046
S"<class 'gluon.html.TBODY'>"
p6047
sS'CAT'
p6048
S"<class 'gluon.html.CAT'>"
p6049
sS'Field'
p6050
S"<class 'gluon.dal.Field'>"
p6051
sS'middle_columns'
p6052
S"'span12'"
p6053
sS'DIV'
p6054
S"<class 'gluon.html.DIV'>"
p6055
sS'LEGEND'
p6056
S"<class 'gluon.html.LEGEND'>"
p6057
sS'COLGROUP'
p6058
S"<class 'gluon.html.COLGROUP'>"
p6059
sS'DAL'
p6060
S"<class 'gluon.dal.DAL'>"
p6061
sS'TT'
p6062
S"<class 'gluon.html.TT'>"
p6063
sS'TR'
p6064
S"<class 'gluon.html.TR'>"
p6065
sS'LI'
p6066
S"<class 'gluon.html.LI'>"
p6067
sS'right_sidebar_enabled'
p6068
g100
sS'TH'
p6069
S"<class 'gluon.html.TH'>"
p6070
sS'TD'
p6071
S"<class 'gluon.html.TD'>"
p6072
sS'PluginManager'
p6073
S"<class 'gluon.tools.PluginManager'>"
p6074
sS'IS_URL'
p6075
S"<class 'gluon.validators.IS_URL'>"
p6076
sS'A'
S"<class 'gluon.html.A'>"
p6077
sS'HEAD'
p6078
S"<class 'gluon.html.HEAD'>"
p6079
sS'IS_DATETIME_IN_RANGE'
p6080
S"<class 'gluon.validators.IS_DATETIME_IN_RANGE'>"
p6081
sS'FORM'
p6082
S"<class 'gluon.html.FORM'>"
p6083
sS'I'
S"<class 'gluon.html.I'>"
p6084
sS'crud'
p6085
S'<gluon.tools.Crud object>'
p6086
sS'IS_NOT_IN_DB'
p6087
S"<class 'gluon.validators.IS_NOT_IN_DB'>"
p6088
sg3648
S"<Storage {'body': <cStringIO.StringO object at 0...t 0xac4a374>, 'view': 'default/show_paper.html'}>"
p6089
sS'THEAD'
p6090
S"<class 'gluon.html.THEAD'>"
p6091
sS'IS_NULL_OR'
p6092
S"<class 'gluon.validators.IS_EMPTY_OR'>"
p6093
sg56
S"<Storage {'function': 'show_paper', 'body': <cSt.../OnlineExamination/', 'post_vars': <Storage {}>}>"
p6094
sS'IS_EXPR'
p6095
S"<class 'gluon.validators.IS_EXPR'>"
p6096
sS'T'
S'<gluon.languages.translator object>'
p6097
sS'IS_IN_SET'
p6098
S"<class 'gluon.validators.IS_IN_SET'>"
p6099
sS'IS_UPLOAD_FILENAME'
p6100
S"<class 'gluon.validators.IS_UPLOAD_FILENAME'>"
p6101
sS'IS_DECIMAL_IN_RANGE'
p6102
S"<class 'gluon.validators.IS_DECIMAL_IN_RANGE'>"
p6103
sssS'traceback'
p6104
S'Traceback (most recent call last):\n  File "/home/gaurav/classwork/WEB_PROGRAMMING/web2py/gluon/restricted.py", line 212, in restricted\n    exec ccode in environment\n  File "/home/gaurav/classwork/WEB_PROGRAMMING/web2py/applications/OnlineExamination/views/default/show_paper.html", line 81, in <module>\nNameError: name \'form\' is not defined\n'
p6105
s.