(dp1
S'output'
p2
S"<type 'exceptions.SyntaxError'> invalid syntax (default.py, line 145)"
p3
sS'layer'
p4
S'/home/gaurav/classwork/WEB_PROGRAMMING/web2py/applications/OnlineExamination/controllers/default.py'
p5
sS'code'
p6
S'# -*- coding: utf-8 -*-\n# this file is released under public domain and you can use without limitations\n\n#########################################################################\n## This is a samples controller\n## - index is the default action of any application\n## - user is required for authentication and authorization\n## - download is for downloading files uploaded in the db (does streaming)\n## - call exposes all registered services (none by default)\n#########################################################################\n\n\ndef index():\n    """\n    example action using the internationalization operator T and flash\n    rendered by views/default/index.html or views/generic.html\n\n    if you need a simple wiki simple replace the two lines below with:\n    return auth.wiki()\n    """\n    response.flash = T("Welcome To Online Examination")\n    if(auth.user):\n\t print \'count is updated\'\n\t db(auth.user.email==db.student.email).update(coun=1)\n    return dict(message=T(\'Hello World\'))\n\n@auth.requires_login()\n@auth.requires_membership(\'IIIT_FACULTY_DEPARTMENT\')\ndef teacher_index():\n    if(auth.user):\n\t print \'count is updated 1\'\n\t db(auth.user.email==db.student.email).update(coun=1)\n    return locals()\n\n\n@auth.requires_login()\ndef student_index(): \n    db(auth.user.email==db.student.email).update(coun=1)\n    return locals()\n\n@auth.requires_login()\ndef performance():\n     redirect(URL(\'show_paper\'))\n\ndef user():\n    """\n    exposes:\n    http://..../[app]/default/user/login\n    http://..../[app]/default/user/logout\n    http://..../[app]/default/user/register\n    http://..../[app]/default/user/profile\n    http://..../[app]/default/user/retrieve_password\n    http://..../[app]/default/user/change_password\n    use @auth.requires_login()\n        @auth.requires_membership(\'group name\')\n        @auth.requires_permission(\'read\',\'table name\',record_id)\n\n    to decorate functions that need access control\n    """\n    return dict(form=auth())\n\n\ndef download():\n    """\n    allows downloading of uploaded files\n    http://..../[app]/default/download/[filename]\n    """\n    return response.download(request, db)\n\n\ndef call():\n    """\n    exposes services. for example:\n    http://..../[app]/default/call/jsonrpc\n    decorate with @services.jsonrpc the functions to expose\n    supports xml, json, xmlrpc, jsonrpc, amfrpc, rss, csv\n    """\n    return service()\n\n\n@auth.requires_signature()\ndef data():\n    """\n    http://..../[app]/default/data/tables\n    http://..../[app]/default/data/create/[table]\n    http://..../[app]/default/data/read/[table]/[id]\n    http://..../[app]/default/data/update/[table]/[id]\n    http://..../[app]/default/data/delete/[table]/[id]\n    http://..../[app]/default/data/select/[table]\n    http://..../[app]/default/data/search/[table]\n    but URLs must be signed, i.e. linked with\n      A(\'table\',_href=URL(\'data/tables\',user_signature=True))\n    or with the signed load operator\n      LOAD(\'default\',\'data.load\',args=\'tables\',ajax=True,user_signature=True)\n    """\n    return dict(form=crud())\n\n\n\n\n\n#---------------------------------------------------Project Starts---------------------------------------------------------------#\n\n@auth.requires_login()\ndef student_info():\n     db(auth.user.email==db.student.email).update(coun=1)\n     a=auth.user.email\n     b=auth.user.first_name\n     c=auth.user.last_name\n     response.flash=\'Logged in as \'+b+\' \'+c\n     form=SQLFORM(db.student)\n     form.vars.email=a\n     if (form.accepts(request,session)):\n\t  session.flash="Personal Information Successfully Added"\n          db(auth.user.email==db.student.email).update(coun=1)\n\t  #redirect(\'index\')\n     return dict(form=form)\n\n@auth.requires_login()\n@auth.requires_membership(\'IIIT_FACULTY_DEPARTMENT\')\ndef set_paper():\n     form=SQLFORM(db.questions)\n     form.vars.faculty_id=auth.user.email\n     if form.accepts(request,session):\n\t  response.flash="Question Inserted"\n     return dict(form=form)\n\n\n@auth.requires_login()\ndef exam():\n     import datetime\n     now=datetime.datetime.now()\n     xx=datetime.time(now.hour, now.minute, now.second)\n     \n     p={}\n     CHECK_TEACHER=db((auth.user.id==db.auth_membership.user_id)&(db.auth_membership.group_id==17)).select(db.auth_user.ALL)\n     x=db(db.see.id==8).select(db.see.course)\n     x=x[0][\'course\']\n     \n     end_times=db(db.times.course==x).select(db.times.end_time)\n     end_times=end_times[0][\'end_time\']\n     if(xx<=end_times):\n\t  redirect(URL(\'index\')\n     \n     k=db(auth.user.email==db.student.email).select(db.student.email)\n     if k:\n\t  t=db((auth.user.email==db.answer.stid) & (x==db.answer.course)).select(db.answer.given)\n\t  print t\n\t  if t:\n\t       if t[0][\'given\']==1:\n\t\t    response.flash=\'You have already given the Examination\'\n\t\t    redirect(\'index\')\n\t  start_time=db(db.times.course==x).select(db.times.start_time)\n          end_time=db(db.times.course==x).select(db.times.end_time)\n          exam_date=db(db.times.course==x).select(db.times.date_of_exam)\n          p=db(auth.user.email==db.student.email).select(db.student.coun)\n\t  print \'p\'\n\t  print p\n          n=p[0][\'coun\']\n\t  print \'it is count\'\n\t  print n\n          que={}\n          que=db((db.questions.course==x)&(db.questions.que_number==n)).select(db.questions.que_number,\n\t       \t\t\t\t            db.questions.question,\n\t\t\t\t\t            db.questions.option_a,\n\t                                            db.questions.option_b,\n\t                                            db.questions.option_c,\n\t                                            db.questions.option_d,\n\t  \t\t\t\t            )\n          if (db((auth.user.id==db.auth_membership.user_id)&(db.auth_membership.group_id==17)).select(db.auth_user.ALL)):\n\t       form=SQLFORM.factory(\n\t\t\t Field(\'ans\',requires=IS_IN_SET([\'A\',\'B\',\'C\',\'D\'],multiple=True),widget=SQLFORM.widgets.checkboxes.widget),\n\t\t\t Field(\'com\',\'text\'))\n\t\t\t      \n\t\t\t \n\t       \n\t  else:\n\t       form=SQLFORM.factory(\n\t\t\t Field(\'ans\',requires=IS_IN_SET([\'A\',\'B\',\'C\',\'D\'],multiple=True),widget=SQLFORM.widgets.checkboxes.widget\n\t\t\t      )\n\t\t\t )\n\t  check=db((auth.user.email==db.answer.stid)&(n==db.answer.que_num)&(db.see.course==db.answer.course)).select(db.answer.ALL)\n\t  if(form.accepts(request,session)):\n\t       response.flash="Answer Submitted"\n\t       if check:\n\t\t    db((auth.user.email==db.answer.stid)&(n==db.answer.que_num)&(x==db.answer.course)).update(op= form.vars.ans,course=x)\n\t       else:\n\t\t    db.answer.insert(que_num=n,stid=auth.user.email,op=form.vars.ans,course=x)\n\t       response.flash=str(form.vars.ans)+"asdasd"\n\t       if CHECK_TEACHER:\n\t\t    if(form.vars.com):\n\t\t\t db.comments.insert(faculty_id=auth.user.email,que=n,course=x,comment_given=form.vars.com)\n\t     \n\t       redirect(\'next\')\n\n     if k:\n\t  if que:\n\t       if CHECK_TEACHER:\n\t\t    com=db((db.comments.que==n)&(db.comments.course==x)).select(db.comments.comment_given)\n\t\t    return dict(que=que,form=form,com=com,start_time=start_time,end_time=end_time,exam_date=exam_date)\n\t       else:\n\t\t    com={}\n\t\t    return dict(que=que,form=form,com=com,start_time=start_time,end_time=end_time,exam_date=exam_date)\n\n\t  else:\n\t       print \'amit has given exam\'\n\t       redirect(URL(\'default\',\'show\'))\n     else:\n\t  redirect(URL(\'default\',\'student_info\'))\n\t  \n\n\n@auth.requires_login()\ndef next():\n     p=db(auth.user.email==db.student.email).select(db.student.coun)\n     x=db(db.see.id==8).select(db.see.course)\n     x=x[0][\'course\']\n     n=p[0][\'coun\']\n     correct=db((db.questions.que_number==n)&(db.questions.course==x)).select(db.questions.ans)\n     given=db((db.answer.stid==auth.user.email)&(db.answer.que_num==n)&(db.answer.course==x)).select(db.answer.op)\n     print given[0][\'op\']\n     if given and given[0][\'op\']!=\'||\':\n\t  print \'aaaaa\'\n\t  if(given!=None and correct[0][\'ans\']==given[0][\'op\']):\n\t       db(db.questions.que_number==n).update(stid=auth.user.email)\n\t       db((db.questions.stid==auth.user.email)&(db.questions.que_number==n)).update(obtained_marks=4)\n\t  elif(correct!=given and given!=None):\n\t       db(db.questions.que_number==n).update(stid=auth.user.email)\n\t       db((db.questions.stid==auth.user.email)&(db.questions.que_number==n)).update(obtained_marks=-1)\n     \n     db(auth.user.email==db.student.email).update(coun=n+1)\n     que=db(db.questions.que_number>0).select(db.questions.que_number)\n     redirect(URL(\'default\',\'exam\'))\n\n\ndef prev():\n     p=db(auth.user.email==db.student.email).select(db.student.coun)\n     n=p[0][\'coun\']\n     if(n-1>0):\n\t  db(auth.user.email==db.student.email).update(coun=n-1)\n     if(n-1>0):\n\t  redirect(URL(\'default\',\'exam\'))\n     else:\n\t  redirect(URL(\'default\',\'exam\'))\ndef courses():\n     return locals()\ndef noq():\n     return locals()\n\ndef list():\n     k=db((db.auth_membership.user_id==db.auth_user.id)&(db.auth_membership.group_id!=17)).select(db.auth_user.first_name,db.auth_user.last_name)\n     return dict(k=k)\n\n\ndef faculty():\n     f=db((db.auth_membership.user_id==db.auth_user.id)&(db.auth_membership.group_id==17)).select(db.auth_user.first_name,db.auth_user.last_name)\n     return dict(f=f)\n\ndef show():\n     x=db(db.see.id==8).select(db.see.course)\n     x=x[0][\'course\']\n     a=auth.user.email\n     k=db((db.questions.stid==a)&(db.questions.course==x)).select(db.questions.obtained_marks)\n     marks=0\n     db((auth.user.email==db.answer.stid)&(x==db.answer.course)).update(given=1)\n     for i in range(len(k)):\n\t  marks=marks+k[i][\'obtained_marks\']\n     db(auth.user.email==db.student.email).update(final_marks=marks)\n     return dict(marks=marks)\n     if (db((auth.user.id==db.auth_membership.user_id)&(db.auth_membership.group_id==17)).select(db.auth_user.ALL)):\n\t  print\'wallah\'\n\ndef give_exam():\n     return locals()\n\ndef which_one():\n     p=request.post_vars[\'id\']\n     db(db.see.id==8).update(course=p)\n     redirect(URL(\'exam\'))\n\n@auth.requires_login()\ndef show_paper():\n     if (db((auth.user.id==db.auth_membership.user_id)&(db.auth_membership.group_id==17)).select(db.auth_user.ALL)):\n\t  query=db.questions.faculty_id==auth.user.email\n\t  grid=SQLFORM.grid(query)\n\t  return locals()\n     else:\n\t  redirect(URL(\'F1\'))\n\t  return locals()\n\n\n@auth.requires_login()\ndef F1():\n     return locals()\n\n\n@auth.requires_login()\ndef F2():\n     x=request.post_vars[\'id\']\n     t=db((auth.user.email==db.answer.stid) & (x==db.answer.course)).select(db.answer.given)\n     if t:\n\t  ans=db((auth.user.email==db.answer.stid) & (db.answer.course==x)).select(db.answer.que_num,db.answer.op)\n\t  ques=db(x==db.questions.course).select(db.questions.ALL)\n\t  return dict(ans=ans,ques=ques)\n     else:\n\t  session.flash="You have not given exam of this course"\n\t  redirect(URL(\'student_index\'))\n     return locals()\n\n\n@auth.requires_login()\n@auth.requires_membership(\'IIIT_FACULTY_DEPARTMENT\')\ndef set_time():\n     form=SQLFORM(db.times)\n     if (form.accepts(request,session)):\n\t  response.flash="Time Setted"\n     return dict(form=form)\n\nresponse._vars=response._caller(exam)\n'
p7
sS'snapshot'
p8
(dp9
S'exception'
p10
(dp11
S'__getslice__'
p12
S"<method-wrapper '__getslice__' of exceptions.SyntaxError object>"
p13
sS'text'
p14
S"'     k=db(auth.user.email==db.student.email).select(db.student.email)\\n'"
p15
sS'__str__'
p16
S"<method-wrapper '__str__' of exceptions.SyntaxError object>"
p17
sS'__reduce__'
p18
S'<built-in method __reduce__ of exceptions.SyntaxError object>'
p19
sS'__dict__'
p20
S'{}'
p21
sS'__sizeof__'
p22
S'<built-in method __sizeof__ of exceptions.SyntaxError object>'
p23
sS'__init__'
p24
S"<method-wrapper '__init__' of exceptions.SyntaxError object>"
p25
sS'__setattr__'
p26
S"<method-wrapper '__setattr__' of exceptions.SyntaxError object>"
p27
sS'__reduce_ex__'
p28
S'<built-in method __reduce_ex__ of exceptions.SyntaxError object>'
p29
sS'__new__'
p30
S'<built-in method __new__ of type object>'
p31
sS'__format__'
p32
S'<built-in method __format__ of exceptions.SyntaxError object>'
p33
sS'__class__'
p34
S"<type 'exceptions.SyntaxError'>"
p35
sS'filename'
p36
S"'/home/gaurav/classwork/WEB_PROGRAMMING/web2py/applications/OnlineExamination/controllers/default.py'"
p37
sS'lineno'
p38
S'145'
p39
sS'msg'
p40
S"'invalid syntax'"
p41
sS'__doc__'
p42
S"'Invalid syntax.'"
p43
sS'__getitem__'
p44
S"<method-wrapper '__getitem__' of exceptions.SyntaxError object>"
p45
sS'__setstate__'
p46
S'<built-in method __setstate__ of exceptions.SyntaxError object>'
p47
sS'__getattribute__'
p48
S"<method-wrapper '__getattribute__' of exceptions.SyntaxError object>"
p49
sS'print_file_and_line'
p50
S'None'
p51
sS'args'
p52
S"('invalid syntax', ('/home/gaurav/classwork/WEB_PROGRAMMING/web2py/applications/OnlineExamination/controllers/default.py', 145, 6, '     k=db(auth.user.email==db.student.email).select(db.student.email)\\n'))"
p53
sS'__subclasshook__'
p54
S'<built-in method __subclasshook__ of type object>'
p55
sS'offset'
p56
S'6'
sS'__unicode__'
p57
S'<built-in method __unicode__ of exceptions.SyntaxError object>'
p58
sS'__delattr__'
p59
S"<method-wrapper '__delattr__' of exceptions.SyntaxError object>"
p60
sS'__repr__'
p61
S"<method-wrapper '__repr__' of exceptions.SyntaxError object>"
p62
sS'__hash__'
p63
S"<method-wrapper '__hash__' of exceptions.SyntaxError object>"
p64
ssS'evalue'
p65
S'invalid syntax (default.py, line 145)'
p66
sS'request'
p67
ccopy_reg
_reconstructor
p68
(cgluon.html
BEAUTIFY
p69
c__builtin__
object
p70
NtRp71
(dp72
S'attributes'
p73
(dp74
sS'components'
p75
(lp76
g68
(cgluon.html
TABLE
p77
g70
NtRp78
(dp79
g73
(dp80
S'level'
p81
I5
ssS'parent'
p82
Nsg75
(lp83
g68
(cgluon.html
TR
p84
g70
NtRp85
(dp86
g73
(dp87
sg82
g78
sg75
(lp88
g68
(cgluon.html
TD
p89
g70
NtRp90
(dp91
g73
(dp92
S'_style'
p93
S'font-weight:bold;vertical-align:top'
p94
ssg82
g85
sg75
(lp95
S'ajax'
p96
asbag68
(g89
g70
NtRp97
(dp98
g73
(dp99
S'_valign'
p100
S'top'
p101
ssg82
g85
sg75
(lp102
S':'
asbag68
(g89
g70
NtRp103
(dp104
g73
(dp105
sg82
g85
sg75
(lp106
g68
(g69
g70
NtRp107
(dp108
g73
(dp109
g81
I5
ssg82
g103
sg75
(lp110
S'False'
p111
asbasbasbag68
(g84
g70
NtRp112
(dp113
g73
(dp114
sg82
g78
sg75
(lp115
g68
(g89
g70
NtRp116
(dp117
g73
(dp118
g93
g94
ssg82
g112
sg75
(lp119
S'application'
p120
asbag68
(g89
g70
NtRp121
(dp122
g73
(dp123
g100
g101
ssg82
g112
sg75
(lp124
S':'
asbag68
(g89
g70
NtRp125
(dp126
g73
(dp127
sg82
g112
sg75
(lp128
g68
(g69
g70
NtRp129
(dp130
g73
(dp131
g81
I5
ssg82
g125
sg75
(lp132
S'OnlineExamination'
p133
asbasbasbag68
(g84
g70
NtRp134
(dp135
g73
(dp136
sg82
g78
sg75
(lp137
g68
(g89
g70
NtRp138
(dp139
g73
(dp140
g93
g94
ssg82
g134
sg75
(lp141
g52
asbag68
(g89
g70
NtRp142
(dp143
g73
(dp144
g100
g101
ssg82
g134
sg75
(lp145
S':'
asbag68
(g89
g70
NtRp146
(dp147
g73
(dp148
sg82
g134
sg75
(lp149
g68
(g69
g70
NtRp150
(dp151
g73
(dp152
g81
I5
ssg82
g146
sg75
(lp153
g68
(g77
g70
NtRp154
(dp155
g73
(dp156
g81
I4
ssg82
Nsg75
(lp157
sbasbasbasbag68
(g84
g70
NtRp158
(dp159
g73
(dp160
sg82
g78
sg75
(lp161
g68
(g89
g70
NtRp162
(dp163
g73
(dp164
g93
g94
ssg82
g158
sg75
(lp165
S'body'
p166
asbag68
(g89
g70
NtRp167
(dp168
g73
(dp169
g100
g101
ssg82
g158
sg75
(lp170
S':'
asbag68
(g89
g70
NtRp171
(dp172
g73
(dp173
sg82
g158
sg75
(lp174
g68
(g69
g70
NtRp175
(dp176
g73
(dp177
g81
I5
ssg82
g171
sg75
(lp178
S'<cStringIO.StringO object at 0xae355fc0>'
p179
asbasbasbag68
(g84
g70
NtRp180
(dp181
g73
(dp182
sg82
g78
sg75
(lp183
g68
(g89
g70
NtRp184
(dp185
g73
(dp186
g93
g94
ssg82
g180
sg75
(lp187
S'cid'
p188
asbag68
(g89
g70
NtRp189
(dp190
g73
(dp191
g100
g101
ssg82
g180
sg75
(lp192
S':'
asbag68
(g89
g70
NtRp193
(dp194
g73
(dp195
sg82
g180
sg75
(lp196
g68
(g69
g70
NtRp197
(dp198
g73
(dp199
g81
I5
ssg82
g193
sg75
(lp200
S'None'
p201
asbasbasbag68
(g84
g70
NtRp202
(dp203
g73
(dp204
sg82
g78
sg75
(lp205
g68
(g89
g70
NtRp206
(dp207
g73
(dp208
g93
g94
ssg82
g202
sg75
(lp209
S'client'
p210
asbag68
(g89
g70
NtRp211
(dp212
g73
(dp213
g100
g101
ssg82
g202
sg75
(lp214
S':'
asbag68
(g89
g70
NtRp215
(dp216
g73
(dp217
sg82
g202
sg75
(lp218
g68
(g69
g70
NtRp219
(dp220
g73
(dp221
g81
I5
ssg82
g215
sg75
(lp222
S'127.0.0.1'
p223
asbasbasbag68
(g84
g70
NtRp224
(dp225
g73
(dp226
sg82
g78
sg75
(lp227
g68
(g89
g70
NtRp228
(dp229
g73
(dp230
g93
g94
ssg82
g224
sg75
(lp231
S'controller'
p232
asbag68
(g89
g70
NtRp233
(dp234
g73
(dp235
g100
g101
ssg82
g224
sg75
(lp236
S':'
asbag68
(g89
g70
NtRp237
(dp238
g73
(dp239
sg82
g224
sg75
(lp240
g68
(g69
g70
NtRp241
(dp242
g73
(dp243
g81
I5
ssg82
g237
sg75
(lp244
S'default'
p245
asbasbasbag68
(g84
g70
NtRp246
(dp247
g73
(dp248
sg82
g78
sg75
(lp249
g68
(g89
g70
NtRp250
(dp251
g73
(dp252
g93
g94
ssg82
g246
sg75
(lp253
S'cookies'
p254
asbag68
(g89
g70
NtRp255
(dp256
g73
(dp257
g100
g101
ssg82
g246
sg75
(lp258
S':'
asbag68
(g89
g70
NtRp259
(dp260
g73
(dp261
sg82
g246
sg75
(lp262
g68
(g69
g70
NtRp263
(dp264
g73
(dp265
g81
I5
ssg82
g259
sg75
(lp266
g68
(g77
g70
NtRp267
(dp268
g73
(dp269
g81
I4
ssg82
Nsg75
(lp270
g68
(g84
g70
NtRp271
(dp272
g73
(dp273
sg82
g267
sg75
(lp274
g68
(g89
g70
NtRp275
(dp276
g73
(dp277
g93
g94
ssg82
g271
sg75
(lp278
S'session_id_admin'
p279
asbag68
(g89
g70
NtRp280
(dp281
g73
(dp282
g100
g101
ssg82
g271
sg75
(lp283
S':'
asbag68
(g89
g70
NtRp284
(dp285
g73
(dp286
sg82
g271
sg75
(lp287
g68
(g69
g70
NtRp288
(dp289
g73
(dp290
g81
I4
ssg82
g284
sg75
(lp291
S'127.0.0.1-b90b89cf-3183-446b-a00b-faa54ea32acb'
p292
ag68
(g77
g70
NtRp293
(dp294
g73
(dp295
g81
I3
ssg82
Nsg75
(lp296
g68
(g84
g70
NtRp297
(dp298
g73
(dp299
sg82
g293
sg75
(lp300
g68
(g89
g70
NtRp301
(dp302
g73
(dp303
g93
g94
ssg82
g297
sg75
(lp304
S'comment'
p305
asbag68
(g89
g70
NtRp306
(dp307
g73
(dp308
g100
g101
ssg82
g297
sg75
(lp309
S':'
asbag68
(g89
g70
NtRp310
(dp311
g73
(dp312
sg82
g297
sg75
(lp313
g68
(g69
g70
NtRp314
(dp315
g73
(dp316
g81
I3
ssg82
g310
sg75
(lp317
S''
asbasbasbag68
(g84
g70
NtRp318
(dp319
g73
(dp320
sg82
g293
sg75
(lp321
g68
(g89
g70
NtRp322
(dp323
g73
(dp324
g93
g94
ssg82
g318
sg75
(lp325
S'domain'
p326
asbag68
(g89
g70
NtRp327
(dp328
g73
(dp329
g100
g101
ssg82
g318
sg75
(lp330
S':'
asbag68
(g89
g70
NtRp331
(dp332
g73
(dp333
sg82
g318
sg75
(lp334
g68
(g69
g70
NtRp335
(dp336
g73
(dp337
g81
I3
ssg82
g331
sg75
(lp338
S''
asbasbasbag68
(g84
g70
NtRp339
(dp340
g73
(dp341
sg82
g293
sg75
(lp342
g68
(g89
g70
NtRp343
(dp344
g73
(dp345
g93
g94
ssg82
g339
sg75
(lp346
S'expires'
p347
asbag68
(g89
g70
NtRp348
(dp349
g73
(dp350
g100
g101
ssg82
g339
sg75
(lp351
S':'
asbag68
(g89
g70
NtRp352
(dp353
g73
(dp354
sg82
g339
sg75
(lp355
g68
(g69
g70
NtRp356
(dp357
g73
(dp358
g81
I3
ssg82
g352
sg75
(lp359
S''
asbasbasbag68
(g84
g70
NtRp360
(dp361
g73
(dp362
sg82
g293
sg75
(lp363
g68
(g89
g70
NtRp364
(dp365
g73
(dp366
g93
g94
ssg82
g360
sg75
(lp367
S'httponly'
p368
asbag68
(g89
g70
NtRp369
(dp370
g73
(dp371
g100
g101
ssg82
g360
sg75
(lp372
S':'
asbag68
(g89
g70
NtRp373
(dp374
g73
(dp375
sg82
g360
sg75
(lp376
g68
(g69
g70
NtRp377
(dp378
g73
(dp379
g81
I3
ssg82
g373
sg75
(lp380
S''
asbasbasbag68
(g84
g70
NtRp381
(dp382
g73
(dp383
sg82
g293
sg75
(lp384
g68
(g89
g70
NtRp385
(dp386
g73
(dp387
g93
g94
ssg82
g381
sg75
(lp388
S'max-age'
p389
asbag68
(g89
g70
NtRp390
(dp391
g73
(dp392
g100
g101
ssg82
g381
sg75
(lp393
S':'
asbag68
(g89
g70
NtRp394
(dp395
g73
(dp396
sg82
g381
sg75
(lp397
g68
(g69
g70
NtRp398
(dp399
g73
(dp400
g81
I3
ssg82
g394
sg75
(lp401
S''
asbasbasbag68
(g84
g70
NtRp402
(dp403
g73
(dp404
sg82
g293
sg75
(lp405
g68
(g89
g70
NtRp406
(dp407
g73
(dp408
g93
g94
ssg82
g402
sg75
(lp409
S'path'
p410
asbag68
(g89
g70
NtRp411
(dp412
g73
(dp413
g100
g101
ssg82
g402
sg75
(lp414
S':'
asbag68
(g89
g70
NtRp415
(dp416
g73
(dp417
sg82
g402
sg75
(lp418
g68
(g69
g70
NtRp419
(dp420
g73
(dp421
g81
I3
ssg82
g415
sg75
(lp422
S''
asbasbasbag68
(g84
g70
NtRp423
(dp424
g73
(dp425
sg82
g293
sg75
(lp426
g68
(g89
g70
NtRp427
(dp428
g73
(dp429
g93
g94
ssg82
g423
sg75
(lp430
S'secure'
p431
asbag68
(g89
g70
NtRp432
(dp433
g73
(dp434
g100
g101
ssg82
g423
sg75
(lp435
S':'
asbag68
(g89
g70
NtRp436
(dp437
g73
(dp438
sg82
g423
sg75
(lp439
g68
(g69
g70
NtRp440
(dp441
g73
(dp442
g81
I3
ssg82
g436
sg75
(lp443
S''
asbasbasbag68
(g84
g70
NtRp444
(dp445
g73
(dp446
sg82
g293
sg75
(lp447
g68
(g89
g70
NtRp448
(dp449
g73
(dp450
g93
g94
ssg82
g444
sg75
(lp451
S'version'
p452
asbag68
(g89
g70
NtRp453
(dp454
g73
(dp455
g100
g101
ssg82
g444
sg75
(lp456
S':'
asbag68
(g89
g70
NtRp457
(dp458
g73
(dp459
sg82
g444
sg75
(lp460
g68
(g69
g70
NtRp461
(dp462
g73
(dp463
g81
I3
ssg82
g457
sg75
(lp464
S''
asbasbasbasbasbasbasbag68
(g84
g70
NtRp465
(dp466
g73
(dp467
sg82
g267
sg75
(lp468
g68
(g89
g70
NtRp469
(dp470
g73
(dp471
g93
g94
ssg82
g465
sg75
(lp472
S'session_id_onlineexamination'
p473
asbag68
(g89
g70
NtRp474
(dp475
g73
(dp476
g100
g101
ssg82
g465
sg75
(lp477
S':'
asbag68
(g89
g70
NtRp478
(dp479
g73
(dp480
sg82
g465
sg75
(lp481
g68
(g69
g70
NtRp482
(dp483
g73
(dp484
g81
I4
ssg82
g478
sg75
(lp485
S'127.0.0.1-c946dbc5-3ee7-4ce1-86c5-f16bb3a3c13c'
p486
ag68
(g77
g70
NtRp487
(dp488
g73
(dp489
g81
I3
ssg82
Nsg75
(lp490
g68
(g84
g70
NtRp491
(dp492
g73
(dp493
sg82
g487
sg75
(lp494
g68
(g89
g70
NtRp495
(dp496
g73
(dp497
g93
g94
ssg82
g491
sg75
(lp498
g305
asbag68
(g89
g70
NtRp499
(dp500
g73
(dp501
g100
g101
ssg82
g491
sg75
(lp502
S':'
asbag68
(g89
g70
NtRp503
(dp504
g73
(dp505
sg82
g491
sg75
(lp506
g68
(g69
g70
NtRp507
(dp508
g73
(dp509
g81
I3
ssg82
g503
sg75
(lp510
S''
asbasbasbag68
(g84
g70
NtRp511
(dp512
g73
(dp513
sg82
g487
sg75
(lp514
g68
(g89
g70
NtRp515
(dp516
g73
(dp517
g93
g94
ssg82
g511
sg75
(lp518
g326
asbag68
(g89
g70
NtRp519
(dp520
g73
(dp521
g100
g101
ssg82
g511
sg75
(lp522
S':'
asbag68
(g89
g70
NtRp523
(dp524
g73
(dp525
sg82
g511
sg75
(lp526
g68
(g69
g70
NtRp527
(dp528
g73
(dp529
g81
I3
ssg82
g523
sg75
(lp530
S''
asbasbasbag68
(g84
g70
NtRp531
(dp532
g73
(dp533
sg82
g487
sg75
(lp534
g68
(g89
g70
NtRp535
(dp536
g73
(dp537
g93
g94
ssg82
g531
sg75
(lp538
g347
asbag68
(g89
g70
NtRp539
(dp540
g73
(dp541
g100
g101
ssg82
g531
sg75
(lp542
S':'
asbag68
(g89
g70
NtRp543
(dp544
g73
(dp545
sg82
g531
sg75
(lp546
g68
(g69
g70
NtRp547
(dp548
g73
(dp549
g81
I3
ssg82
g543
sg75
(lp550
S''
asbasbasbag68
(g84
g70
NtRp551
(dp552
g73
(dp553
sg82
g487
sg75
(lp554
g68
(g89
g70
NtRp555
(dp556
g73
(dp557
g93
g94
ssg82
g551
sg75
(lp558
g368
asbag68
(g89
g70
NtRp559
(dp560
g73
(dp561
g100
g101
ssg82
g551
sg75
(lp562
S':'
asbag68
(g89
g70
NtRp563
(dp564
g73
(dp565
sg82
g551
sg75
(lp566
g68
(g69
g70
NtRp567
(dp568
g73
(dp569
g81
I3
ssg82
g563
sg75
(lp570
S''
asbasbasbag68
(g84
g70
NtRp571
(dp572
g73
(dp573
sg82
g487
sg75
(lp574
g68
(g89
g70
NtRp575
(dp576
g73
(dp577
g93
g94
ssg82
g571
sg75
(lp578
g389
asbag68
(g89
g70
NtRp579
(dp580
g73
(dp581
g100
g101
ssg82
g571
sg75
(lp582
S':'
asbag68
(g89
g70
NtRp583
(dp584
g73
(dp585
sg82
g571
sg75
(lp586
g68
(g69
g70
NtRp587
(dp588
g73
(dp589
g81
I3
ssg82
g583
sg75
(lp590
S''
asbasbasbag68
(g84
g70
NtRp591
(dp592
g73
(dp593
sg82
g487
sg75
(lp594
g68
(g89
g70
NtRp595
(dp596
g73
(dp597
g93
g94
ssg82
g591
sg75
(lp598
g410
asbag68
(g89
g70
NtRp599
(dp600
g73
(dp601
g100
g101
ssg82
g591
sg75
(lp602
S':'
asbag68
(g89
g70
NtRp603
(dp604
g73
(dp605
sg82
g591
sg75
(lp606
g68
(g69
g70
NtRp607
(dp608
g73
(dp609
g81
I3
ssg82
g603
sg75
(lp610
S''
asbasbasbag68
(g84
g70
NtRp611
(dp612
g73
(dp613
sg82
g487
sg75
(lp614
g68
(g89
g70
NtRp615
(dp616
g73
(dp617
g93
g94
ssg82
g611
sg75
(lp618
g431
asbag68
(g89
g70
NtRp619
(dp620
g73
(dp621
g100
g101
ssg82
g611
sg75
(lp622
S':'
asbag68
(g89
g70
NtRp623
(dp624
g73
(dp625
sg82
g611
sg75
(lp626
g68
(g69
g70
NtRp627
(dp628
g73
(dp629
g81
I3
ssg82
g623
sg75
(lp630
S''
asbasbasbag68
(g84
g70
NtRp631
(dp632
g73
(dp633
sg82
g487
sg75
(lp634
g68
(g89
g70
NtRp635
(dp636
g73
(dp637
g93
g94
ssg82
g631
sg75
(lp638
g452
asbag68
(g89
g70
NtRp639
(dp640
g73
(dp641
g100
g101
ssg82
g631
sg75
(lp642
S':'
asbag68
(g89
g70
NtRp643
(dp644
g73
(dp645
sg82
g631
sg75
(lp646
g68
(g69
g70
NtRp647
(dp648
g73
(dp649
g81
I3
ssg82
g643
sg75
(lp650
S''
asbasbasbasbasbasbasbag68
(g84
g70
NtRp651
(dp652
g73
(dp653
sg82
g267
sg75
(lp654
g68
(g89
g70
NtRp655
(dp656
g73
(dp657
g93
g94
ssg82
g651
sg75
(lp658
S'session_id_welcome'
p659
asbag68
(g89
g70
NtRp660
(dp661
g73
(dp662
g100
g101
ssg82
g651
sg75
(lp663
S':'
asbag68
(g89
g70
NtRp664
(dp665
g73
(dp666
sg82
g651
sg75
(lp667
g68
(g69
g70
NtRp668
(dp669
g73
(dp670
g81
I4
ssg82
g664
sg75
(lp671
S'127.0.0.1-60af83f5-082a-48eb-ae91-6ebdb2dfc268'
p672
ag68
(g77
g70
NtRp673
(dp674
g73
(dp675
g81
I3
ssg82
Nsg75
(lp676
g68
(g84
g70
NtRp677
(dp678
g73
(dp679
sg82
g673
sg75
(lp680
g68
(g89
g70
NtRp681
(dp682
g73
(dp683
g93
g94
ssg82
g677
sg75
(lp684
g305
asbag68
(g89
g70
NtRp685
(dp686
g73
(dp687
g100
g101
ssg82
g677
sg75
(lp688
S':'
asbag68
(g89
g70
NtRp689
(dp690
g73
(dp691
sg82
g677
sg75
(lp692
g68
(g69
g70
NtRp693
(dp694
g73
(dp695
g81
I3
ssg82
g689
sg75
(lp696
S''
asbasbasbag68
(g84
g70
NtRp697
(dp698
g73
(dp699
sg82
g673
sg75
(lp700
g68
(g89
g70
NtRp701
(dp702
g73
(dp703
g93
g94
ssg82
g697
sg75
(lp704
g326
asbag68
(g89
g70
NtRp705
(dp706
g73
(dp707
g100
g101
ssg82
g697
sg75
(lp708
S':'
asbag68
(g89
g70
NtRp709
(dp710
g73
(dp711
sg82
g697
sg75
(lp712
g68
(g69
g70
NtRp713
(dp714
g73
(dp715
g81
I3
ssg82
g709
sg75
(lp716
S''
asbasbasbag68
(g84
g70
NtRp717
(dp718
g73
(dp719
sg82
g673
sg75
(lp720
g68
(g89
g70
NtRp721
(dp722
g73
(dp723
g93
g94
ssg82
g717
sg75
(lp724
g347
asbag68
(g89
g70
NtRp725
(dp726
g73
(dp727
g100
g101
ssg82
g717
sg75
(lp728
S':'
asbag68
(g89
g70
NtRp729
(dp730
g73
(dp731
sg82
g717
sg75
(lp732
g68
(g69
g70
NtRp733
(dp734
g73
(dp735
g81
I3
ssg82
g729
sg75
(lp736
S''
asbasbasbag68
(g84
g70
NtRp737
(dp738
g73
(dp739
sg82
g673
sg75
(lp740
g68
(g89
g70
NtRp741
(dp742
g73
(dp743
g93
g94
ssg82
g737
sg75
(lp744
g368
asbag68
(g89
g70
NtRp745
(dp746
g73
(dp747
g100
g101
ssg82
g737
sg75
(lp748
S':'
asbag68
(g89
g70
NtRp749
(dp750
g73
(dp751
sg82
g737
sg75
(lp752
g68
(g69
g70
NtRp753
(dp754
g73
(dp755
g81
I3
ssg82
g749
sg75
(lp756
S''
asbasbasbag68
(g84
g70
NtRp757
(dp758
g73
(dp759
sg82
g673
sg75
(lp760
g68
(g89
g70
NtRp761
(dp762
g73
(dp763
g93
g94
ssg82
g757
sg75
(lp764
g389
asbag68
(g89
g70
NtRp765
(dp766
g73
(dp767
g100
g101
ssg82
g757
sg75
(lp768
S':'
asbag68
(g89
g70
NtRp769
(dp770
g73
(dp771
sg82
g757
sg75
(lp772
g68
(g69
g70
NtRp773
(dp774
g73
(dp775
g81
I3
ssg82
g769
sg75
(lp776
S''
asbasbasbag68
(g84
g70
NtRp777
(dp778
g73
(dp779
sg82
g673
sg75
(lp780
g68
(g89
g70
NtRp781
(dp782
g73
(dp783
g93
g94
ssg82
g777
sg75
(lp784
g410
asbag68
(g89
g70
NtRp785
(dp786
g73
(dp787
g100
g101
ssg82
g777
sg75
(lp788
S':'
asbag68
(g89
g70
NtRp789
(dp790
g73
(dp791
sg82
g777
sg75
(lp792
g68
(g69
g70
NtRp793
(dp794
g73
(dp795
g81
I3
ssg82
g789
sg75
(lp796
S''
asbasbasbag68
(g84
g70
NtRp797
(dp798
g73
(dp799
sg82
g673
sg75
(lp800
g68
(g89
g70
NtRp801
(dp802
g73
(dp803
g93
g94
ssg82
g797
sg75
(lp804
g431
asbag68
(g89
g70
NtRp805
(dp806
g73
(dp807
g100
g101
ssg82
g797
sg75
(lp808
S':'
asbag68
(g89
g70
NtRp809
(dp810
g73
(dp811
sg82
g797
sg75
(lp812
g68
(g69
g70
NtRp813
(dp814
g73
(dp815
g81
I3
ssg82
g809
sg75
(lp816
S''
asbasbasbag68
(g84
g70
NtRp817
(dp818
g73
(dp819
sg82
g673
sg75
(lp820
g68
(g89
g70
NtRp821
(dp822
g73
(dp823
g93
g94
ssg82
g817
sg75
(lp824
g452
asbag68
(g89
g70
NtRp825
(dp826
g73
(dp827
g100
g101
ssg82
g817
sg75
(lp828
S':'
asbag68
(g89
g70
NtRp829
(dp830
g73
(dp831
sg82
g817
sg75
(lp832
g68
(g69
g70
NtRp833
(dp834
g73
(dp835
g81
I3
ssg82
g829
sg75
(lp836
S''
asbasbasbasbasbasbasbasbasbasbasbag68
(g84
g70
NtRp837
(dp838
g73
(dp839
sg82
g78
sg75
(lp840
g68
(g89
g70
NtRp841
(dp842
g73
(dp843
g93
g94
ssg82
g837
sg75
(lp844
S'env'
p845
asbag68
(g89
g70
NtRp846
(dp847
g73
(dp848
g100
g101
ssg82
g837
sg75
(lp849
S':'
asbag68
(g89
g70
NtRp850
(dp851
g73
(dp852
sg82
g837
sg75
(lp853
g68
(g69
g70
NtRp854
(dp855
g73
(dp856
g81
I5
ssg82
g850
sg75
(lp857
g68
(g77
g70
NtRp858
(dp859
g73
(dp860
g81
I4
ssg82
Nsg75
(lp861
g68
(g84
g70
NtRp862
(dp863
g73
(dp864
sg82
g858
sg75
(lp865
g68
(g89
g70
NtRp866
(dp867
g73
(dp868
g93
g94
ssg82
g862
sg75
(lp869
S'app_folders'
p870
asbag68
(g89
g70
NtRp871
(dp872
g73
(dp873
g100
g101
ssg82
g862
sg75
(lp874
S':'
asbag68
(g89
g70
NtRp875
(dp876
g73
(dp877
sg82
g862
sg75
(lp878
g68
(g69
g70
NtRp879
(dp880
g73
(dp881
g81
I4
ssg82
g875
sg75
(lp882
S"set(['/home/gaurav/classwork/WEB_PROGRAMMING/web2py/applications/OnlineExamination/', '/home/gaurav/classwork/WEB_PROGRAMMING/web2py/applications/admin/', '/home/gaurav/classwork/WEB_PROGRAMMING/web2py/applications/welcome/'])"
p883
asbasbasbag68
(g84
g70
NtRp884
(dp885
g73
(dp886
sg82
g858
sg75
(lp887
g68
(g89
g70
NtRp888
(dp889
g73
(dp890
g93
g94
ssg82
g884
sg75
(lp891
S'applications_parent'
p892
asbag68
(g89
g70
NtRp893
(dp894
g73
(dp895
g100
g101
ssg82
g884
sg75
(lp896
S':'
asbag68
(g89
g70
NtRp897
(dp898
g73
(dp899
sg82
g884
sg75
(lp900
g68
(g69
g70
NtRp901
(dp902
g73
(dp903
g81
I4
ssg82
g897
sg75
(lp904
S'/home/gaurav/classwork/WEB_PROGRAMMING/web2py'
p905
asbasbasbag68
(g84
g70
NtRp906
(dp907
g73
(dp908
sg82
g858
sg75
(lp909
g68
(g89
g70
NtRp910
(dp911
g73
(dp912
g93
g94
ssg82
g906
sg75
(lp913
S'cmd_args'
p914
asbag68
(g89
g70
NtRp915
(dp916
g73
(dp917
g100
g101
ssg82
g906
sg75
(lp918
S':'
asbag68
(g89
g70
NtRp919
(dp920
g73
(dp921
sg82
g906
sg75
(lp922
g68
(g69
g70
NtRp923
(dp924
g73
(dp925
g81
I4
ssg82
g919
sg75
(lp926
g68
(g77
g70
NtRp927
(dp928
g73
(dp929
g81
I3
ssg82
Nsg75
(lp930
sbasbasbasbag68
(g84
g70
NtRp931
(dp932
g73
(dp933
sg82
g858
sg75
(lp934
g68
(g89
g70
NtRp935
(dp936
g73
(dp937
g93
g94
ssg82
g931
sg75
(lp938
S'cmd_options'
p939
asbag68
(g89
g70
NtRp940
(dp941
g73
(dp942
g100
g101
ssg82
g931
sg75
(lp943
S':'
asbag68
(g89
g70
NtRp944
(dp945
g73
(dp946
sg82
g931
sg75
(lp947
g68
(g69
g70
NtRp948
(dp949
g73
(dp950
g81
I4
ssg82
g944
sg75
(lp951
S"<Values at 0x9faf6ac: {'verbose': False, 'ip': '127.0.0.1', 'with_scheduler': False, 'ips': [], 'shutdown_timeout': 5, 'taskbar': False, 'port': 8000, 'maxthreads': None, 'softcron': False, 'server_name': 'gaurav-Compaq-Presario-C700-Notebook-PC', 'bpython': False, 'nogui': False, 'pid_filename': 'httpserver.pid', 'extcron': False, 'runcron': False, 'run_system_tests': False, 'test': None, 'folder': '/home/gaurav/classwork/WEB_PROGRAMMING/web2py', 'config': '', 'import_models': False, 'winservice': '', 'shell': None, 'run': '', 'log_filename': 'httpserver.log', 'debuglevel': 30, 'args': [''], 'socket_timeout': 5, 'ssl_ca_certificate': None, 'scheduler': None, 'profiler_filename': None, 'ssl_private_key': '', 'scheduler_groups': None, 'password': '<ask>', 'request_queue_size': 5, 'ssl_certificate': '', 'cronjob': False, 'numthreads': None, 'quiet': False, 'interfaces': None, 'minthreads': None, 'timeout': 10, 'plain': False, 'nobanner': False}>"
p952
asbasbasbag68
(g84
g70
NtRp953
(dp954
g73
(dp955
sg82
g858
sg75
(lp956
g68
(g89
g70
NtRp957
(dp958
g73
(dp959
g93
g94
ssg82
g953
sg75
(lp960
S'db_sessions'
p961
asbag68
(g89
g70
NtRp962
(dp963
g73
(dp964
g100
g101
ssg82
g953
sg75
(lp965
S':'
asbag68
(g89
g70
NtRp966
(dp967
g73
(dp968
sg82
g953
sg75
(lp969
g68
(g69
g70
NtRp970
(dp971
g73
(dp972
g81
I4
ssg82
g966
sg75
(lp973
S'set([])'
p974
asbasbasbag68
(g84
g70
NtRp975
(dp976
g73
(dp977
sg82
g858
sg75
(lp978
g68
(g89
g70
NtRp979
(dp980
g73
(dp981
g93
g94
ssg82
g975
sg75
(lp982
S'debugging'
p983
asbag68
(g89
g70
NtRp984
(dp985
g73
(dp986
g100
g101
ssg82
g975
sg75
(lp987
S':'
asbag68
(g89
g70
NtRp988
(dp989
g73
(dp990
sg82
g975
sg75
(lp991
g68
(g69
g70
NtRp992
(dp993
g73
(dp994
g81
I4
ssg82
g988
sg75
(lp995
g111
asbasbasbag68
(g84
g70
NtRp996
(dp997
g73
(dp998
sg82
g858
sg75
(lp999
g68
(g89
g70
NtRp1000
(dp1001
g73
(dp1002
g93
g94
ssg82
g996
sg75
(lp1003
S'gluon_parent'
p1004
asbag68
(g89
g70
NtRp1005
(dp1006
g73
(dp1007
g100
g101
ssg82
g996
sg75
(lp1008
S':'
asbag68
(g89
g70
NtRp1009
(dp1010
g73
(dp1011
sg82
g996
sg75
(lp1012
g68
(g69
g70
NtRp1013
(dp1014
g73
(dp1015
g81
I4
ssg82
g1009
sg75
(lp1016
S'/home/gaurav/classwork/WEB_PROGRAMMING/web2py'
p1017
asbasbasbag68
(g84
g70
NtRp1018
(dp1019
g73
(dp1020
sg82
g858
sg75
(lp1021
g68
(g89
g70
NtRp1022
(dp1023
g73
(dp1024
g93
g94
ssg82
g1018
sg75
(lp1025
S'http_accept'
p1026
asbag68
(g89
g70
NtRp1027
(dp1028
g73
(dp1029
g100
g101
ssg82
g1018
sg75
(lp1030
S':'
asbag68
(g89
g70
NtRp1031
(dp1032
g73
(dp1033
sg82
g1018
sg75
(lp1034
g68
(g69
g70
NtRp1035
(dp1036
g73
(dp1037
g81
I4
ssg82
g1031
sg75
(lp1038
S'text/html,application/xhtml+xml,application/xml;q=0.9,*/*;q=0.8'
p1039
asbasbasbag68
(g84
g70
NtRp1040
(dp1041
g73
(dp1042
sg82
g858
sg75
(lp1043
g68
(g89
g70
NtRp1044
(dp1045
g73
(dp1046
g93
g94
ssg82
g1040
sg75
(lp1047
S'http_accept_encoding'
p1048
asbag68
(g89
g70
NtRp1049
(dp1050
g73
(dp1051
g100
g101
ssg82
g1040
sg75
(lp1052
S':'
asbag68
(g89
g70
NtRp1053
(dp1054
g73
(dp1055
sg82
g1040
sg75
(lp1056
g68
(g69
g70
NtRp1057
(dp1058
g73
(dp1059
g81
I4
ssg82
g1053
sg75
(lp1060
S'gzip, deflate'
p1061
asbasbasbag68
(g84
g70
NtRp1062
(dp1063
g73
(dp1064
sg82
g858
sg75
(lp1065
g68
(g89
g70
NtRp1066
(dp1067
g73
(dp1068
g93
g94
ssg82
g1062
sg75
(lp1069
S'http_accept_language'
p1070
asbag68
(g89
g70
NtRp1071
(dp1072
g73
(dp1073
g100
g101
ssg82
g1062
sg75
(lp1074
S':'
asbag68
(g89
g70
NtRp1075
(dp1076
g73
(dp1077
sg82
g1062
sg75
(lp1078
g68
(g69
g70
NtRp1079
(dp1080
g73
(dp1081
g81
I4
ssg82
g1075
sg75
(lp1082
S'en-US,en;q=0.5'
p1083
asbasbasbag68
(g84
g70
NtRp1084
(dp1085
g73
(dp1086
sg82
g858
sg75
(lp1087
g68
(g89
g70
NtRp1088
(dp1089
g73
(dp1090
g93
g94
ssg82
g1084
sg75
(lp1091
S'http_cache_control'
p1092
asbag68
(g89
g70
NtRp1093
(dp1094
g73
(dp1095
g100
g101
ssg82
g1084
sg75
(lp1096
S':'
asbag68
(g89
g70
NtRp1097
(dp1098
g73
(dp1099
sg82
g1084
sg75
(lp1100
g68
(g69
g70
NtRp1101
(dp1102
g73
(dp1103
g81
I4
ssg82
g1097
sg75
(lp1104
S'max-age=0'
p1105
asbasbasbag68
(g84
g70
NtRp1106
(dp1107
g73
(dp1108
sg82
g858
sg75
(lp1109
g68
(g89
g70
NtRp1110
(dp1111
g73
(dp1112
g93
g94
ssg82
g1106
sg75
(lp1113
S'http_connection'
p1114
asbag68
(g89
g70
NtRp1115
(dp1116
g73
(dp1117
g100
g101
ssg82
g1106
sg75
(lp1118
S':'
asbag68
(g89
g70
NtRp1119
(dp1120
g73
(dp1121
sg82
g1106
sg75
(lp1122
g68
(g69
g70
NtRp1123
(dp1124
g73
(dp1125
g81
I4
ssg82
g1119
sg75
(lp1126
S'keep-alive'
p1127
asbasbasbag68
(g84
g70
NtRp1128
(dp1129
g73
(dp1130
sg82
g858
sg75
(lp1131
g68
(g89
g70
NtRp1132
(dp1133
g73
(dp1134
g93
g94
ssg82
g1128
sg75
(lp1135
S'http_cookie'
p1136
asbag68
(g89
g70
NtRp1137
(dp1138
g73
(dp1139
g100
g101
ssg82
g1128
sg75
(lp1140
S':'
asbag68
(g89
g70
NtRp1141
(dp1142
g73
(dp1143
sg82
g1128
sg75
(lp1144
g68
(g69
g70
NtRp1145
(dp1146
g73
(dp1147
g81
I4
ssg82
g1141
sg75
(lp1148
S'session_id_welcome=127.0.0.1-60af83f5-082a-48eb-ae91-6ebdb2dfc268; session_id_admin=127.0.0.1-b90b89cf-3183-446b-a00b-faa54ea32acb; session_id_onlineexamination=127.0.0.1-c946dbc5-3ee7-4ce1-86c5-f16bb3a3c13c'
p1149
asbasbasbag68
(g84
g70
NtRp1150
(dp1151
g73
(dp1152
sg82
g858
sg75
(lp1153
g68
(g89
g70
NtRp1154
(dp1155
g73
(dp1156
g93
g94
ssg82
g1150
sg75
(lp1157
S'http_host'
p1158
asbag68
(g89
g70
NtRp1159
(dp1160
g73
(dp1161
g100
g101
ssg82
g1150
sg75
(lp1162
S':'
asbag68
(g89
g70
NtRp1163
(dp1164
g73
(dp1165
sg82
g1150
sg75
(lp1166
g68
(g69
g70
NtRp1167
(dp1168
g73
(dp1169
g81
I4
ssg82
g1163
sg75
(lp1170
S'127.0.0.1:8000'
p1171
asbasbasbag68
(g84
g70
NtRp1172
(dp1173
g73
(dp1174
sg82
g858
sg75
(lp1175
g68
(g89
g70
NtRp1176
(dp1177
g73
(dp1178
g93
g94
ssg82
g1172
sg75
(lp1179
S'http_referer'
p1180
asbag68
(g89
g70
NtRp1181
(dp1182
g73
(dp1183
g100
g101
ssg82
g1172
sg75
(lp1184
S':'
asbag68
(g89
g70
NtRp1185
(dp1186
g73
(dp1187
sg82
g1172
sg75
(lp1188
g68
(g69
g70
NtRp1189
(dp1190
g73
(dp1191
g81
I4
ssg82
g1185
sg75
(lp1192
S'http://127.0.0.1:8000/OnlineExamination/default/give_exam.html'
p1193
asbasbasbag68
(g84
g70
NtRp1194
(dp1195
g73
(dp1196
sg82
g858
sg75
(lp1197
g68
(g89
g70
NtRp1198
(dp1199
g73
(dp1200
g93
g94
ssg82
g1194
sg75
(lp1201
S'http_user_agent'
p1202
asbag68
(g89
g70
NtRp1203
(dp1204
g73
(dp1205
g100
g101
ssg82
g1194
sg75
(lp1206
S':'
asbag68
(g89
g70
NtRp1207
(dp1208
g73
(dp1209
sg82
g1194
sg75
(lp1210
g68
(g69
g70
NtRp1211
(dp1212
g73
(dp1213
g81
I4
ssg82
g1207
sg75
(lp1214
S'Mozilla/5.0 (X11; Ubuntu; Linux i686; rv:16.0) Gecko/20100101 Firefox/16.0'
p1215
asbasbasbag68
(g84
g70
NtRp1216
(dp1217
g73
(dp1218
sg82
g858
sg75
(lp1219
g68
(g89
g70
NtRp1220
(dp1221
g73
(dp1222
g93
g94
ssg82
g1216
sg75
(lp1223
S'is_jython'
p1224
asbag68
(g89
g70
NtRp1225
(dp1226
g73
(dp1227
g100
g101
ssg82
g1216
sg75
(lp1228
S':'
asbag68
(g89
g70
NtRp1229
(dp1230
g73
(dp1231
sg82
g1216
sg75
(lp1232
g68
(g69
g70
NtRp1233
(dp1234
g73
(dp1235
g81
I4
ssg82
g1229
sg75
(lp1236
g111
asbasbasbag68
(g84
g70
NtRp1237
(dp1238
g73
(dp1239
sg82
g858
sg75
(lp1240
g68
(g89
g70
NtRp1241
(dp1242
g73
(dp1243
g93
g94
ssg82
g1237
sg75
(lp1244
S'is_pypy'
p1245
asbag68
(g89
g70
NtRp1246
(dp1247
g73
(dp1248
g100
g101
ssg82
g1237
sg75
(lp1249
S':'
asbag68
(g89
g70
NtRp1250
(dp1251
g73
(dp1252
sg82
g1237
sg75
(lp1253
g68
(g69
g70
NtRp1254
(dp1255
g73
(dp1256
g81
I4
ssg82
g1250
sg75
(lp1257
g111
asbasbasbag68
(g84
g70
NtRp1258
(dp1259
g73
(dp1260
sg82
g858
sg75
(lp1261
g68
(g89
g70
NtRp1262
(dp1263
g73
(dp1264
g93
g94
ssg82
g1258
sg75
(lp1265
S'local_hosts'
p1266
asbag68
(g89
g70
NtRp1267
(dp1268
g73
(dp1269
g100
g101
ssg82
g1258
sg75
(lp1270
S':'
asbag68
(g89
g70
NtRp1271
(dp1272
g73
(dp1273
sg82
g1258
sg75
(lp1274
g68
(g69
g70
NtRp1275
(dp1276
g73
(dp1277
g81
I4
ssg82
g1271
sg75
(lp1278
g68
(g77
g70
NtRp1279
(dp1280
g73
(dp1281
g81
I3
ssg82
Nsg75
(lp1282
g68
(g84
g70
NtRp1283
(dp1284
g73
(dp1285
sg82
g1279
sg75
(lp1286
g68
(g89
g70
NtRp1287
(dp1288
g73
(dp1289
sg82
g1283
sg75
(lp1290
g68
(g69
g70
NtRp1291
(dp1292
g73
(dp1293
g81
I3
ssg82
g1287
sg75
(lp1294
S'gaurav-Compaq-Presario-C700-Notebook-PC'
p1295
asbasbasbag68
(g84
g70
NtRp1296
(dp1297
g73
(dp1298
sg82
g1279
sg75
(lp1299
g68
(g89
g70
NtRp1300
(dp1301
g73
(dp1302
sg82
g1296
sg75
(lp1303
g68
(g69
g70
NtRp1304
(dp1305
g73
(dp1306
g81
I3
ssg82
g1300
sg75
(lp1307
S'::1'
p1308
asbasbasbag68
(g84
g70
NtRp1309
(dp1310
g73
(dp1311
sg82
g1279
sg75
(lp1312
g68
(g89
g70
NtRp1313
(dp1314
g73
(dp1315
sg82
g1309
sg75
(lp1316
g68
(g69
g70
NtRp1317
(dp1318
g73
(dp1319
g81
I3
ssg82
g1313
sg75
(lp1320
S'127.0.1.1'
p1321
asbasbasbag68
(g84
g70
NtRp1322
(dp1323
g73
(dp1324
sg82
g1279
sg75
(lp1325
g68
(g89
g70
NtRp1326
(dp1327
g73
(dp1328
sg82
g1322
sg75
(lp1329
g68
(g69
g70
NtRp1330
(dp1331
g73
(dp1332
g81
I3
ssg82
g1326
sg75
(lp1333
S'::ffff:127.0.0.1'
p1334
asbasbasbag68
(g84
g70
NtRp1335
(dp1336
g73
(dp1337
sg82
g1279
sg75
(lp1338
g68
(g89
g70
NtRp1339
(dp1340
g73
(dp1341
sg82
g1335
sg75
(lp1342
g68
(g69
g70
NtRp1343
(dp1344
g73
(dp1345
g81
I3
ssg82
g1339
sg75
(lp1346
S'127.0.0.1'
p1347
asbasbasbasbasbasbasbag68
(g84
g70
NtRp1348
(dp1349
g73
(dp1350
sg82
g858
sg75
(lp1351
g68
(g89
g70
NtRp1352
(dp1353
g73
(dp1354
g93
g94
ssg82
g1348
sg75
(lp1355
S'path_info'
p1356
asbag68
(g89
g70
NtRp1357
(dp1358
g73
(dp1359
g100
g101
ssg82
g1348
sg75
(lp1360
S':'
asbag68
(g89
g70
NtRp1361
(dp1362
g73
(dp1363
sg82
g1348
sg75
(lp1364
g68
(g69
g70
NtRp1365
(dp1366
g73
(dp1367
g81
I4
ssg82
g1361
sg75
(lp1368
S'/OnlineExamination/default/exam'
p1369
asbasbasbag68
(g84
g70
NtRp1370
(dp1371
g73
(dp1372
sg82
g858
sg75
(lp1373
g68
(g89
g70
NtRp1374
(dp1375
g73
(dp1376
g93
g94
ssg82
g1370
sg75
(lp1377
S'query_string'
p1378
asbag68
(g89
g70
NtRp1379
(dp1380
g73
(dp1381
g100
g101
ssg82
g1370
sg75
(lp1382
S':'
asbag68
(g89
g70
NtRp1383
(dp1384
g73
(dp1385
sg82
g1370
sg75
(lp1386
g68
(g69
g70
NtRp1387
(dp1388
g73
(dp1389
g81
I4
ssg82
g1383
sg75
(lp1390
S''
asbasbasbag68
(g84
g70
NtRp1391
(dp1392
g73
(dp1393
sg82
g858
sg75
(lp1394
g68
(g89
g70
NtRp1395
(dp1396
g73
(dp1397
g93
g94
ssg82
g1391
sg75
(lp1398
S'remote_addr'
p1399
asbag68
(g89
g70
NtRp1400
(dp1401
g73
(dp1402
g100
g101
ssg82
g1391
sg75
(lp1403
S':'
asbag68
(g89
g70
NtRp1404
(dp1405
g73
(dp1406
sg82
g1391
sg75
(lp1407
g68
(g69
g70
NtRp1408
(dp1409
g73
(dp1410
g81
I4
ssg82
g1404
sg75
(lp1411
g223
asbasbasbag68
(g84
g70
NtRp1412
(dp1413
g73
(dp1414
sg82
g858
sg75
(lp1415
g68
(g89
g70
NtRp1416
(dp1417
g73
(dp1418
g93
g94
ssg82
g1412
sg75
(lp1419
S'remote_port'
p1420
asbag68
(g89
g70
NtRp1421
(dp1422
g73
(dp1423
g100
g101
ssg82
g1412
sg75
(lp1424
S':'
asbag68
(g89
g70
NtRp1425
(dp1426
g73
(dp1427
sg82
g1412
sg75
(lp1428
g68
(g69
g70
NtRp1429
(dp1430
g73
(dp1431
g81
I4
ssg82
g1425
sg75
(lp1432
S'39112'
p1433
asbasbasbag68
(g84
g70
NtRp1434
(dp1435
g73
(dp1436
sg82
g858
sg75
(lp1437
g68
(g89
g70
NtRp1438
(dp1439
g73
(dp1440
g93
g94
ssg82
g1434
sg75
(lp1441
S'request_method'
p1442
asbag68
(g89
g70
NtRp1443
(dp1444
g73
(dp1445
g100
g101
ssg82
g1434
sg75
(lp1446
S':'
asbag68
(g89
g70
NtRp1447
(dp1448
g73
(dp1449
sg82
g1434
sg75
(lp1450
g68
(g69
g70
NtRp1451
(dp1452
g73
(dp1453
g81
I4
ssg82
g1447
sg75
(lp1454
S'GET'
p1455
asbasbasbag68
(g84
g70
NtRp1456
(dp1457
g73
(dp1458
sg82
g858
sg75
(lp1459
g68
(g89
g70
NtRp1460
(dp1461
g73
(dp1462
g93
g94
ssg82
g1456
sg75
(lp1463
S'request_uri'
p1464
asbag68
(g89
g70
NtRp1465
(dp1466
g73
(dp1467
g100
g101
ssg82
g1456
sg75
(lp1468
S':'
asbag68
(g89
g70
NtRp1469
(dp1470
g73
(dp1471
sg82
g1456
sg75
(lp1472
g68
(g69
g70
NtRp1473
(dp1474
g73
(dp1475
g81
I4
ssg82
g1469
sg75
(lp1476
g1369
asbasbasbag68
(g84
g70
NtRp1477
(dp1478
g73
(dp1479
sg82
g858
sg75
(lp1480
g68
(g89
g70
NtRp1481
(dp1482
g73
(dp1483
g93
g94
ssg82
g1477
sg75
(lp1484
S'script_name'
p1485
asbag68
(g89
g70
NtRp1486
(dp1487
g73
(dp1488
g100
g101
ssg82
g1477
sg75
(lp1489
S':'
asbag68
(g89
g70
NtRp1490
(dp1491
g73
(dp1492
sg82
g1477
sg75
(lp1493
g68
(g69
g70
NtRp1494
(dp1495
g73
(dp1496
g81
I4
ssg82
g1490
sg75
(lp1497
S''
asbasbasbag68
(g84
g70
NtRp1498
(dp1499
g73
(dp1500
sg82
g858
sg75
(lp1501
g68
(g89
g70
NtRp1502
(dp1503
g73
(dp1504
g93
g94
ssg82
g1498
sg75
(lp1505
S'server_name'
p1506
asbag68
(g89
g70
NtRp1507
(dp1508
g73
(dp1509
g100
g101
ssg82
g1498
sg75
(lp1510
S':'
asbag68
(g89
g70
NtRp1511
(dp1512
g73
(dp1513
sg82
g1498
sg75
(lp1514
g68
(g69
g70
NtRp1515
(dp1516
g73
(dp1517
g81
I4
ssg82
g1511
sg75
(lp1518
S'gaurav-Compaq-Presario-C700-Notebook-PC'
p1519
asbasbasbag68
(g84
g70
NtRp1520
(dp1521
g73
(dp1522
sg82
g858
sg75
(lp1523
g68
(g89
g70
NtRp1524
(dp1525
g73
(dp1526
g93
g94
ssg82
g1520
sg75
(lp1527
S'server_port'
p1528
asbag68
(g89
g70
NtRp1529
(dp1530
g73
(dp1531
g100
g101
ssg82
g1520
sg75
(lp1532
S':'
asbag68
(g89
g70
NtRp1533
(dp1534
g73
(dp1535
sg82
g1520
sg75
(lp1536
g68
(g69
g70
NtRp1537
(dp1538
g73
(dp1539
g81
I4
ssg82
g1533
sg75
(lp1540
S'8000'
p1541
asbasbasbag68
(g84
g70
NtRp1542
(dp1543
g73
(dp1544
sg82
g858
sg75
(lp1545
g68
(g89
g70
NtRp1546
(dp1547
g73
(dp1548
g93
g94
ssg82
g1542
sg75
(lp1549
S'server_protocol'
p1550
asbag68
(g89
g70
NtRp1551
(dp1552
g73
(dp1553
g100
g101
ssg82
g1542
sg75
(lp1554
S':'
asbag68
(g89
g70
NtRp1555
(dp1556
g73
(dp1557
sg82
g1542
sg75
(lp1558
g68
(g69
g70
NtRp1559
(dp1560
g73
(dp1561
g81
I4
ssg82
g1555
sg75
(lp1562
S'HTTP/1.1'
p1563
asbasbasbag68
(g84
g70
NtRp1564
(dp1565
g73
(dp1566
sg82
g858
sg75
(lp1567
g68
(g89
g70
NtRp1568
(dp1569
g73
(dp1570
g93
g94
ssg82
g1564
sg75
(lp1571
S'server_software'
p1572
asbag68
(g89
g70
NtRp1573
(dp1574
g73
(dp1575
g100
g101
ssg82
g1564
sg75
(lp1576
S':'
asbag68
(g89
g70
NtRp1577
(dp1578
g73
(dp1579
sg82
g1564
sg75
(lp1580
g68
(g69
g70
NtRp1581
(dp1582
g73
(dp1583
g81
I4
ssg82
g1577
sg75
(lp1584
S'Rocket 1.2.6'
p1585
asbasbasbag68
(g84
g70
NtRp1586
(dp1587
g73
(dp1588
sg82
g858
sg75
(lp1589
g68
(g89
g70
NtRp1590
(dp1591
g73
(dp1592
g93
g94
ssg82
g1586
sg75
(lp1593
S'web2py_path'
p1594
asbag68
(g89
g70
NtRp1595
(dp1596
g73
(dp1597
g100
g101
ssg82
g1586
sg75
(lp1598
S':'
asbag68
(g89
g70
NtRp1599
(dp1600
g73
(dp1601
sg82
g1586
sg75
(lp1602
g68
(g69
g70
NtRp1603
(dp1604
g73
(dp1605
g81
I4
ssg82
g1599
sg75
(lp1606
g905
asbasbasbag68
(g84
g70
NtRp1607
(dp1608
g73
(dp1609
sg82
g858
sg75
(lp1610
g68
(g89
g70
NtRp1611
(dp1612
g73
(dp1613
g93
g94
ssg82
g1607
sg75
(lp1614
S'web2py_version'
p1615
asbag68
(g89
g70
NtRp1616
(dp1617
g73
(dp1618
g100
g101
ssg82
g1607
sg75
(lp1619
S':'
asbag68
(g89
g70
NtRp1620
(dp1621
g73
(dp1622
sg82
g1607
sg75
(lp1623
g68
(g69
g70
NtRp1624
(dp1625
g73
(dp1626
g81
I4
ssg82
g1620
sg75
(lp1627
g68
(g77
g70
NtRp1628
(dp1629
g73
(dp1630
g81
I3
ssg82
Nsg75
(lp1631
g68
(g84
g70
NtRp1632
(dp1633
g73
(dp1634
sg82
g1628
sg75
(lp1635
g68
(g89
g70
NtRp1636
(dp1637
g73
(dp1638
sg82
g1632
sg75
(lp1639
g68
(g69
g70
NtRp1640
(dp1641
g73
(dp1642
g81
I3
ssg82
g1636
sg75
(lp1643
S'2'
asbasbasbag68
(g84
g70
NtRp1644
(dp1645
g73
(dp1646
sg82
g1628
sg75
(lp1647
g68
(g89
g70
NtRp1648
(dp1649
g73
(dp1650
sg82
g1644
sg75
(lp1651
g68
(g69
g70
NtRp1652
(dp1653
g73
(dp1654
g81
I3
ssg82
g1648
sg75
(lp1655
S'3'
asbasbasbag68
(g84
g70
NtRp1656
(dp1657
g73
(dp1658
sg82
g1628
sg75
(lp1659
g68
(g89
g70
NtRp1660
(dp1661
g73
(dp1662
sg82
g1656
sg75
(lp1663
g68
(g69
g70
NtRp1664
(dp1665
g73
(dp1666
g81
I3
ssg82
g1660
sg75
(lp1667
S'2'
asbasbasbag68
(g84
g70
NtRp1668
(dp1669
g73
(dp1670
sg82
g1628
sg75
(lp1671
g68
(g89
g70
NtRp1672
(dp1673
g73
(dp1674
sg82
g1668
sg75
(lp1675
g68
(g69
g70
NtRp1676
(dp1677
g73
(dp1678
g81
I3
ssg82
g1672
sg75
(lp1679
S'datetime.datetime(2012, 12, 17, 15, 3, 30)'
p1680
asbasbasbag68
(g84
g70
NtRp1681
(dp1682
g73
(dp1683
sg82
g1628
sg75
(lp1684
g68
(g89
g70
NtRp1685
(dp1686
g73
(dp1687
sg82
g1681
sg75
(lp1688
g68
(g69
g70
NtRp1689
(dp1690
g73
(dp1691
g81
I3
ssg82
g1685
sg75
(lp1692
S'stable'
p1693
asbasbasbasbasbasbasbag68
(g84
g70
NtRp1694
(dp1695
g73
(dp1696
sg82
g858
sg75
(lp1697
g68
(g89
g70
NtRp1698
(dp1699
g73
(dp1700
g93
g94
ssg82
g1694
sg75
(lp1701
S'wsgi_errors'
p1702
asbag68
(g89
g70
NtRp1703
(dp1704
g73
(dp1705
g100
g101
ssg82
g1694
sg75
(lp1706
S':'
asbag68
(g89
g70
NtRp1707
(dp1708
g73
(dp1709
sg82
g1694
sg75
(lp1710
g68
(g69
g70
NtRp1711
(dp1712
g73
(dp1713
g81
I4
ssg82
g1707
sg75
(lp1714
S"<open file '<stderr>', mode 'w' at 0xb749a0d0>"
p1715
asbasbasbag68
(g84
g70
NtRp1716
(dp1717
g73
(dp1718
sg82
g858
sg75
(lp1719
g68
(g89
g70
NtRp1720
(dp1721
g73
(dp1722
g93
g94
ssg82
g1716
sg75
(lp1723
S'wsgi_file_wrapper'
p1724
asbag68
(g89
g70
NtRp1725
(dp1726
g73
(dp1727
g100
g101
ssg82
g1716
sg75
(lp1728
S':'
asbag68
(g89
g70
NtRp1729
(dp1730
g73
(dp1731
sg82
g1716
sg75
(lp1732
g68
(g69
g70
NtRp1733
(dp1734
g73
(dp1735
g81
I4
ssg82
g1729
sg75
(lp1736
S'<class wsgiref.util.FileWrapper at 0x9f61ecc>'
p1737
asbasbasbag68
(g84
g70
NtRp1738
(dp1739
g73
(dp1740
sg82
g858
sg75
(lp1741
g68
(g89
g70
NtRp1742
(dp1743
g73
(dp1744
g93
g94
ssg82
g1738
sg75
(lp1745
S'wsgi_input'
p1746
asbag68
(g89
g70
NtRp1747
(dp1748
g73
(dp1749
g100
g101
ssg82
g1738
sg75
(lp1750
S':'
asbag68
(g89
g70
NtRp1751
(dp1752
g73
(dp1753
sg82
g1738
sg75
(lp1754
g68
(g69
g70
NtRp1755
(dp1756
g73
(dp1757
g81
I4
ssg82
g1751
sg75
(lp1758
S'<socket._fileobject object at 0xadc7fa6c>'
p1759
asbasbasbag68
(g84
g70
NtRp1760
(dp1761
g73
(dp1762
sg82
g858
sg75
(lp1763
g68
(g89
g70
NtRp1764
(dp1765
g73
(dp1766
g93
g94
ssg82
g1760
sg75
(lp1767
S'wsgi_multiprocess'
p1768
asbag68
(g89
g70
NtRp1769
(dp1770
g73
(dp1771
g100
g101
ssg82
g1760
sg75
(lp1772
S':'
asbag68
(g89
g70
NtRp1773
(dp1774
g73
(dp1775
sg82
g1760
sg75
(lp1776
g68
(g69
g70
NtRp1777
(dp1778
g73
(dp1779
g81
I4
ssg82
g1773
sg75
(lp1780
g111
asbasbasbag68
(g84
g70
NtRp1781
(dp1782
g73
(dp1783
sg82
g858
sg75
(lp1784
g68
(g89
g70
NtRp1785
(dp1786
g73
(dp1787
g93
g94
ssg82
g1781
sg75
(lp1788
S'wsgi_multithread'
p1789
asbag68
(g89
g70
NtRp1790
(dp1791
g73
(dp1792
g100
g101
ssg82
g1781
sg75
(lp1793
S':'
asbag68
(g89
g70
NtRp1794
(dp1795
g73
(dp1796
sg82
g1781
sg75
(lp1797
g68
(g69
g70
NtRp1798
(dp1799
g73
(dp1800
g81
I4
ssg82
g1794
sg75
(lp1801
S'True'
p1802
asbasbasbag68
(g84
g70
NtRp1803
(dp1804
g73
(dp1805
sg82
g858
sg75
(lp1806
g68
(g89
g70
NtRp1807
(dp1808
g73
(dp1809
g93
g94
ssg82
g1803
sg75
(lp1810
S'wsgi_run_once'
p1811
asbag68
(g89
g70
NtRp1812
(dp1813
g73
(dp1814
g100
g101
ssg82
g1803
sg75
(lp1815
S':'
asbag68
(g89
g70
NtRp1816
(dp1817
g73
(dp1818
sg82
g1803
sg75
(lp1819
g68
(g69
g70
NtRp1820
(dp1821
g73
(dp1822
g81
I4
ssg82
g1816
sg75
(lp1823
g111
asbasbasbag68
(g84
g70
NtRp1824
(dp1825
g73
(dp1826
sg82
g858
sg75
(lp1827
g68
(g89
g70
NtRp1828
(dp1829
g73
(dp1830
g93
g94
ssg82
g1824
sg75
(lp1831
S'wsgi_url_scheme'
p1832
asbag68
(g89
g70
NtRp1833
(dp1834
g73
(dp1835
g100
g101
ssg82
g1824
sg75
(lp1836
S':'
asbag68
(g89
g70
NtRp1837
(dp1838
g73
(dp1839
sg82
g1824
sg75
(lp1840
g68
(g69
g70
NtRp1841
(dp1842
g73
(dp1843
g81
I4
ssg82
g1837
sg75
(lp1844
S'http'
p1845
asbasbasbag68
(g84
g70
NtRp1846
(dp1847
g73
(dp1848
sg82
g858
sg75
(lp1849
g68
(g89
g70
NtRp1850
(dp1851
g73
(dp1852
g93
g94
ssg82
g1846
sg75
(lp1853
S'wsgi_version'
p1854
asbag68
(g89
g70
NtRp1855
(dp1856
g73
(dp1857
g100
g101
ssg82
g1846
sg75
(lp1858
S':'
asbag68
(g89
g70
NtRp1859
(dp1860
g73
(dp1861
sg82
g1846
sg75
(lp1862
g68
(g69
g70
NtRp1863
(dp1864
g73
(dp1865
g81
I4
ssg82
g1859
sg75
(lp1866
g68
(g77
g70
NtRp1867
(dp1868
g73
(dp1869
g81
I3
ssg82
Nsg75
(lp1870
g68
(g84
g70
NtRp1871
(dp1872
g73
(dp1873
sg82
g1867
sg75
(lp1874
g68
(g89
g70
NtRp1875
(dp1876
g73
(dp1877
sg82
g1871
sg75
(lp1878
g68
(g69
g70
NtRp1879
(dp1880
g73
(dp1881
g81
I3
ssg82
g1875
sg75
(lp1882
S'1'
asbasbasbag68
(g84
g70
NtRp1883
(dp1884
g73
(dp1885
sg82
g1867
sg75
(lp1886
g68
(g89
g70
NtRp1887
(dp1888
g73
(dp1889
sg82
g1883
sg75
(lp1890
g68
(g69
g70
NtRp1891
(dp1892
g73
(dp1893
g81
I3
ssg82
g1887
sg75
(lp1894
S'0'
asbasbasbasbasbasbasbasbasbasbasbag68
(g84
g70
NtRp1895
(dp1896
g73
(dp1897
sg82
g78
sg75
(lp1898
g68
(g89
g70
NtRp1899
(dp1900
g73
(dp1901
g93
g94
ssg82
g1895
sg75
(lp1902
S'extension'
p1903
asbag68
(g89
g70
NtRp1904
(dp1905
g73
(dp1906
g100
g101
ssg82
g1895
sg75
(lp1907
S':'
asbag68
(g89
g70
NtRp1908
(dp1909
g73
(dp1910
sg82
g1895
sg75
(lp1911
g68
(g69
g70
NtRp1912
(dp1913
g73
(dp1914
g81
I5
ssg82
g1908
sg75
(lp1915
S'html'
p1916
asbasbasbag68
(g84
g70
NtRp1917
(dp1918
g73
(dp1919
sg82
g78
sg75
(lp1920
g68
(g89
g70
NtRp1921
(dp1922
g73
(dp1923
g93
g94
ssg82
g1917
sg75
(lp1924
S'folder'
p1925
asbag68
(g89
g70
NtRp1926
(dp1927
g73
(dp1928
g100
g101
ssg82
g1917
sg75
(lp1929
S':'
asbag68
(g89
g70
NtRp1930
(dp1931
g73
(dp1932
sg82
g1917
sg75
(lp1933
g68
(g69
g70
NtRp1934
(dp1935
g73
(dp1936
g81
I5
ssg82
g1930
sg75
(lp1937
S'/home/gaurav/classwork/WEB_PROGRAMMING/web2py/applications/OnlineExamination/'
p1938
asbasbasbag68
(g84
g70
NtRp1939
(dp1940
g73
(dp1941
sg82
g78
sg75
(lp1942
g68
(g89
g70
NtRp1943
(dp1944
g73
(dp1945
g93
g94
ssg82
g1939
sg75
(lp1946
S'function'
p1947
asbag68
(g89
g70
NtRp1948
(dp1949
g73
(dp1950
g100
g101
ssg82
g1939
sg75
(lp1951
S':'
asbag68
(g89
g70
NtRp1952
(dp1953
g73
(dp1954
sg82
g1939
sg75
(lp1955
g68
(g69
g70
NtRp1956
(dp1957
g73
(dp1958
g81
I5
ssg82
g1952
sg75
(lp1959
S'exam'
p1960
asbasbasbag68
(g84
g70
NtRp1961
(dp1962
g73
(dp1963
sg82
g78
sg75
(lp1964
g68
(g89
g70
NtRp1965
(dp1966
g73
(dp1967
g93
g94
ssg82
g1961
sg75
(lp1968
S'get_vars'
p1969
asbag68
(g89
g70
NtRp1970
(dp1971
g73
(dp1972
g100
g101
ssg82
g1961
sg75
(lp1973
S':'
asbag68
(g89
g70
NtRp1974
(dp1975
g73
(dp1976
sg82
g1961
sg75
(lp1977
g68
(g69
g70
NtRp1978
(dp1979
g73
(dp1980
g81
I5
ssg82
g1974
sg75
(lp1981
g68
(g77
g70
NtRp1982
(dp1983
g73
(dp1984
g81
I4
ssg82
Nsg75
(lp1985
sbasbasbasbag68
(g84
g70
NtRp1986
(dp1987
g73
(dp1988
sg82
g78
sg75
(lp1989
g68
(g89
g70
NtRp1990
(dp1991
g73
(dp1992
g93
g94
ssg82
g1986
sg75
(lp1993
S'global_settings'
p1994
asbag68
(g89
g70
NtRp1995
(dp1996
g73
(dp1997
g100
g101
ssg82
g1986
sg75
(lp1998
S':'
asbag68
(g89
g70
NtRp1999
(dp2000
g73
(dp2001
sg82
g1986
sg75
(lp2002
g68
(g69
g70
NtRp2003
(dp2004
g73
(dp2005
g81
I5
ssg82
g1999
sg75
(lp2006
g68
(g77
g70
NtRp2007
(dp2008
g73
(dp2009
g81
I4
ssg82
Nsg75
(lp2010
g68
(g84
g70
NtRp2011
(dp2012
g73
(dp2013
sg82
g2007
sg75
(lp2014
g68
(g89
g70
NtRp2015
(dp2016
g73
(dp2017
g93
g94
ssg82
g2011
sg75
(lp2018
g870
asbag68
(g89
g70
NtRp2019
(dp2020
g73
(dp2021
g100
g101
ssg82
g2011
sg75
(lp2022
S':'
asbag68
(g89
g70
NtRp2023
(dp2024
g73
(dp2025
sg82
g2011
sg75
(lp2026
g68
(g69
g70
NtRp2027
(dp2028
g73
(dp2029
g81
I4
ssg82
g2023
sg75
(lp2030
S"set(['/home/gaurav/classwork/WEB_PROGRAMMING/web2py/applications/OnlineExamination/', '/home/gaurav/classwork/WEB_PROGRAMMING/web2py/applications/admin/', '/home/gaurav/classwork/WEB_PROGRAMMING/web2py/applications/welcome/'])"
p2031
asbasbasbag68
(g84
g70
NtRp2032
(dp2033
g73
(dp2034
sg82
g2007
sg75
(lp2035
g68
(g89
g70
NtRp2036
(dp2037
g73
(dp2038
g93
g94
ssg82
g2032
sg75
(lp2039
g892
asbag68
(g89
g70
NtRp2040
(dp2041
g73
(dp2042
g100
g101
ssg82
g2032
sg75
(lp2043
S':'
asbag68
(g89
g70
NtRp2044
(dp2045
g73
(dp2046
sg82
g2032
sg75
(lp2047
g68
(g69
g70
NtRp2048
(dp2049
g73
(dp2050
g81
I4
ssg82
g2044
sg75
(lp2051
g905
asbasbasbag68
(g84
g70
NtRp2052
(dp2053
g73
(dp2054
sg82
g2007
sg75
(lp2055
g68
(g89
g70
NtRp2056
(dp2057
g73
(dp2058
g93
g94
ssg82
g2052
sg75
(lp2059
g914
asbag68
(g89
g70
NtRp2060
(dp2061
g73
(dp2062
g100
g101
ssg82
g2052
sg75
(lp2063
S':'
asbag68
(g89
g70
NtRp2064
(dp2065
g73
(dp2066
sg82
g2052
sg75
(lp2067
g68
(g69
g70
NtRp2068
(dp2069
g73
(dp2070
g81
I4
ssg82
g2064
sg75
(lp2071
g68
(g77
g70
NtRp2072
(dp2073
g73
(dp2074
g81
I3
ssg82
Nsg75
(lp2075
sbasbasbasbag68
(g84
g70
NtRp2076
(dp2077
g73
(dp2078
sg82
g2007
sg75
(lp2079
g68
(g89
g70
NtRp2080
(dp2081
g73
(dp2082
g93
g94
ssg82
g2076
sg75
(lp2083
g939
asbag68
(g89
g70
NtRp2084
(dp2085
g73
(dp2086
g100
g101
ssg82
g2076
sg75
(lp2087
S':'
asbag68
(g89
g70
NtRp2088
(dp2089
g73
(dp2090
sg82
g2076
sg75
(lp2091
g68
(g69
g70
NtRp2092
(dp2093
g73
(dp2094
g81
I4
ssg82
g2088
sg75
(lp2095
S"<Values at 0x9faf6ac: {'verbose': False, 'ip': '127.0.0.1', 'with_scheduler': False, 'ips': [], 'shutdown_timeout': 5, 'taskbar': False, 'port': 8000, 'maxthreads': None, 'softcron': False, 'server_name': 'gaurav-Compaq-Presario-C700-Notebook-PC', 'bpython': False, 'nogui': False, 'pid_filename': 'httpserver.pid', 'extcron': False, 'runcron': False, 'run_system_tests': False, 'test': None, 'folder': '/home/gaurav/classwork/WEB_PROGRAMMING/web2py', 'config': '', 'import_models': False, 'winservice': '', 'shell': None, 'run': '', 'log_filename': 'httpserver.log', 'debuglevel': 30, 'args': [''], 'socket_timeout': 5, 'ssl_ca_certificate': None, 'scheduler': None, 'profiler_filename': None, 'ssl_private_key': '', 'scheduler_groups': None, 'password': '<ask>', 'request_queue_size': 5, 'ssl_certificate': '', 'cronjob': False, 'numthreads': None, 'quiet': False, 'interfaces': None, 'minthreads': None, 'timeout': 10, 'plain': False, 'nobanner': False}>"
p2096
asbasbasbag68
(g84
g70
NtRp2097
(dp2098
g73
(dp2099
sg82
g2007
sg75
(lp2100
g68
(g89
g70
NtRp2101
(dp2102
g73
(dp2103
g93
g94
ssg82
g2097
sg75
(lp2104
g961
asbag68
(g89
g70
NtRp2105
(dp2106
g73
(dp2107
g100
g101
ssg82
g2097
sg75
(lp2108
S':'
asbag68
(g89
g70
NtRp2109
(dp2110
g73
(dp2111
sg82
g2097
sg75
(lp2112
g68
(g69
g70
NtRp2113
(dp2114
g73
(dp2115
g81
I4
ssg82
g2109
sg75
(lp2116
S'set([])'
p2117
asbasbasbag68
(g84
g70
NtRp2118
(dp2119
g73
(dp2120
sg82
g2007
sg75
(lp2121
g68
(g89
g70
NtRp2122
(dp2123
g73
(dp2124
g93
g94
ssg82
g2118
sg75
(lp2125
g983
asbag68
(g89
g70
NtRp2126
(dp2127
g73
(dp2128
g100
g101
ssg82
g2118
sg75
(lp2129
S':'
asbag68
(g89
g70
NtRp2130
(dp2131
g73
(dp2132
sg82
g2118
sg75
(lp2133
g68
(g69
g70
NtRp2134
(dp2135
g73
(dp2136
g81
I4
ssg82
g2130
sg75
(lp2137
g111
asbasbasbag68
(g84
g70
NtRp2138
(dp2139
g73
(dp2140
sg82
g2007
sg75
(lp2141
g68
(g89
g70
NtRp2142
(dp2143
g73
(dp2144
g93
g94
ssg82
g2138
sg75
(lp2145
g1004
asbag68
(g89
g70
NtRp2146
(dp2147
g73
(dp2148
g100
g101
ssg82
g2138
sg75
(lp2149
S':'
asbag68
(g89
g70
NtRp2150
(dp2151
g73
(dp2152
sg82
g2138
sg75
(lp2153
g68
(g69
g70
NtRp2154
(dp2155
g73
(dp2156
g81
I4
ssg82
g2150
sg75
(lp2157
g1017
asbasbasbag68
(g84
g70
NtRp2158
(dp2159
g73
(dp2160
sg82
g2007
sg75
(lp2161
g68
(g89
g70
NtRp2162
(dp2163
g73
(dp2164
g93
g94
ssg82
g2158
sg75
(lp2165
g1224
asbag68
(g89
g70
NtRp2166
(dp2167
g73
(dp2168
g100
g101
ssg82
g2158
sg75
(lp2169
S':'
asbag68
(g89
g70
NtRp2170
(dp2171
g73
(dp2172
sg82
g2158
sg75
(lp2173
g68
(g69
g70
NtRp2174
(dp2175
g73
(dp2176
g81
I4
ssg82
g2170
sg75
(lp2177
g111
asbasbasbag68
(g84
g70
NtRp2178
(dp2179
g73
(dp2180
sg82
g2007
sg75
(lp2181
g68
(g89
g70
NtRp2182
(dp2183
g73
(dp2184
g93
g94
ssg82
g2178
sg75
(lp2185
g1245
asbag68
(g89
g70
NtRp2186
(dp2187
g73
(dp2188
g100
g101
ssg82
g2178
sg75
(lp2189
S':'
asbag68
(g89
g70
NtRp2190
(dp2191
g73
(dp2192
sg82
g2178
sg75
(lp2193
g68
(g69
g70
NtRp2194
(dp2195
g73
(dp2196
g81
I4
ssg82
g2190
sg75
(lp2197
g111
asbasbasbag68
(g84
g70
NtRp2198
(dp2199
g73
(dp2200
sg82
g2007
sg75
(lp2201
g68
(g89
g70
NtRp2202
(dp2203
g73
(dp2204
g93
g94
ssg82
g2198
sg75
(lp2205
g1266
asbag68
(g89
g70
NtRp2206
(dp2207
g73
(dp2208
g100
g101
ssg82
g2198
sg75
(lp2209
S':'
asbag68
(g89
g70
NtRp2210
(dp2211
g73
(dp2212
sg82
g2198
sg75
(lp2213
g68
(g69
g70
NtRp2214
(dp2215
g73
(dp2216
g81
I4
ssg82
g2210
sg75
(lp2217
g68
(g77
g70
NtRp2218
(dp2219
g73
(dp2220
g81
I3
ssg82
Nsg75
(lp2221
g68
(g84
g70
NtRp2222
(dp2223
g73
(dp2224
sg82
g2218
sg75
(lp2225
g68
(g89
g70
NtRp2226
(dp2227
g73
(dp2228
sg82
g2222
sg75
(lp2229
g68
(g69
g70
NtRp2230
(dp2231
g73
(dp2232
g81
I3
ssg82
g2226
sg75
(lp2233
g1295
asbasbasbag68
(g84
g70
NtRp2234
(dp2235
g73
(dp2236
sg82
g2218
sg75
(lp2237
g68
(g89
g70
NtRp2238
(dp2239
g73
(dp2240
sg82
g2234
sg75
(lp2241
g68
(g69
g70
NtRp2242
(dp2243
g73
(dp2244
g81
I3
ssg82
g2238
sg75
(lp2245
g1308
asbasbasbag68
(g84
g70
NtRp2246
(dp2247
g73
(dp2248
sg82
g2218
sg75
(lp2249
g68
(g89
g70
NtRp2250
(dp2251
g73
(dp2252
sg82
g2246
sg75
(lp2253
g68
(g69
g70
NtRp2254
(dp2255
g73
(dp2256
g81
I3
ssg82
g2250
sg75
(lp2257
g1321
asbasbasbag68
(g84
g70
NtRp2258
(dp2259
g73
(dp2260
sg82
g2218
sg75
(lp2261
g68
(g89
g70
NtRp2262
(dp2263
g73
(dp2264
sg82
g2258
sg75
(lp2265
g68
(g69
g70
NtRp2266
(dp2267
g73
(dp2268
g81
I3
ssg82
g2262
sg75
(lp2269
g1334
asbasbasbag68
(g84
g70
NtRp2270
(dp2271
g73
(dp2272
sg82
g2218
sg75
(lp2273
g68
(g89
g70
NtRp2274
(dp2275
g73
(dp2276
sg82
g2270
sg75
(lp2277
g68
(g69
g70
NtRp2278
(dp2279
g73
(dp2280
g81
I3
ssg82
g2274
sg75
(lp2281
g1347
asbasbasbasbasbasbasbag68
(g84
g70
NtRp2282
(dp2283
g73
(dp2284
sg82
g2007
sg75
(lp2285
g68
(g89
g70
NtRp2286
(dp2287
g73
(dp2288
g93
g94
ssg82
g2282
sg75
(lp2289
g1615
asbag68
(g89
g70
NtRp2290
(dp2291
g73
(dp2292
g100
g101
ssg82
g2282
sg75
(lp2293
S':'
asbag68
(g89
g70
NtRp2294
(dp2295
g73
(dp2296
sg82
g2282
sg75
(lp2297
g68
(g69
g70
NtRp2298
(dp2299
g73
(dp2300
g81
I4
ssg82
g2294
sg75
(lp2301
g68
(g77
g70
NtRp2302
(dp2303
g73
(dp2304
g81
I3
ssg82
Nsg75
(lp2305
g68
(g84
g70
NtRp2306
(dp2307
g73
(dp2308
sg82
g2302
sg75
(lp2309
g68
(g89
g70
NtRp2310
(dp2311
g73
(dp2312
sg82
g2306
sg75
(lp2313
g68
(g69
g70
NtRp2314
(dp2315
g73
(dp2316
g81
I3
ssg82
g2310
sg75
(lp2317
S'2'
asbasbasbag68
(g84
g70
NtRp2318
(dp2319
g73
(dp2320
sg82
g2302
sg75
(lp2321
g68
(g89
g70
NtRp2322
(dp2323
g73
(dp2324
sg82
g2318
sg75
(lp2325
g68
(g69
g70
NtRp2326
(dp2327
g73
(dp2328
g81
I3
ssg82
g2322
sg75
(lp2329
S'3'
asbasbasbag68
(g84
g70
NtRp2330
(dp2331
g73
(dp2332
sg82
g2302
sg75
(lp2333
g68
(g89
g70
NtRp2334
(dp2335
g73
(dp2336
sg82
g2330
sg75
(lp2337
g68
(g69
g70
NtRp2338
(dp2339
g73
(dp2340
g81
I3
ssg82
g2334
sg75
(lp2341
S'2'
asbasbasbag68
(g84
g70
NtRp2342
(dp2343
g73
(dp2344
sg82
g2302
sg75
(lp2345
g68
(g89
g70
NtRp2346
(dp2347
g73
(dp2348
sg82
g2342
sg75
(lp2349
g68
(g69
g70
NtRp2350
(dp2351
g73
(dp2352
g81
I3
ssg82
g2346
sg75
(lp2353
S'datetime.datetime(2012, 12, 17, 15, 3, 30)'
p2354
asbasbasbag68
(g84
g70
NtRp2355
(dp2356
g73
(dp2357
sg82
g2302
sg75
(lp2358
g68
(g89
g70
NtRp2359
(dp2360
g73
(dp2361
sg82
g2355
sg75
(lp2362
g68
(g69
g70
NtRp2363
(dp2364
g73
(dp2365
g81
I3
ssg82
g2359
sg75
(lp2366
g1693
asbasbasbasbasbasbasbasbasbasbasbag68
(g84
g70
NtRp2367
(dp2368
g73
(dp2369
sg82
g78
sg75
(lp2370
g68
(g89
g70
NtRp2371
(dp2372
g73
(dp2373
g93
g94
ssg82
g2367
sg75
(lp2374
S'is_https'
p2375
asbag68
(g89
g70
NtRp2376
(dp2377
g73
(dp2378
g100
g101
ssg82
g2367
sg75
(lp2379
S':'
asbag68
(g89
g70
NtRp2380
(dp2381
g73
(dp2382
sg82
g2367
sg75
(lp2383
g68
(g69
g70
NtRp2384
(dp2385
g73
(dp2386
g81
I5
ssg82
g2380
sg75
(lp2387
g111
asbasbasbag68
(g84
g70
NtRp2388
(dp2389
g73
(dp2390
sg82
g78
sg75
(lp2391
g68
(g89
g70
NtRp2392
(dp2393
g73
(dp2394
g93
g94
ssg82
g2388
sg75
(lp2395
S'is_local'
p2396
asbag68
(g89
g70
NtRp2397
(dp2398
g73
(dp2399
g100
g101
ssg82
g2388
sg75
(lp2400
S':'
asbag68
(g89
g70
NtRp2401
(dp2402
g73
(dp2403
sg82
g2388
sg75
(lp2404
g68
(g69
g70
NtRp2405
(dp2406
g73
(dp2407
g81
I5
ssg82
g2401
sg75
(lp2408
g1802
asbasbasbag68
(g84
g70
NtRp2409
(dp2410
g73
(dp2411
sg82
g78
sg75
(lp2412
g68
(g89
g70
NtRp2413
(dp2414
g73
(dp2415
g93
g94
ssg82
g2409
sg75
(lp2416
S'is_restful'
p2417
asbag68
(g89
g70
NtRp2418
(dp2419
g73
(dp2420
g100
g101
ssg82
g2409
sg75
(lp2421
S':'
asbag68
(g89
g70
NtRp2422
(dp2423
g73
(dp2424
sg82
g2409
sg75
(lp2425
g68
(g69
g70
NtRp2426
(dp2427
g73
(dp2428
g81
I5
ssg82
g2422
sg75
(lp2429
g111
asbasbasbag68
(g84
g70
NtRp2430
(dp2431
g73
(dp2432
sg82
g78
sg75
(lp2433
g68
(g89
g70
NtRp2434
(dp2435
g73
(dp2436
g93
g94
ssg82
g2430
sg75
(lp2437
S'now'
p2438
asbag68
(g89
g70
NtRp2439
(dp2440
g73
(dp2441
g100
g101
ssg82
g2430
sg75
(lp2442
S':'
asbag68
(g89
g70
NtRp2443
(dp2444
g73
(dp2445
sg82
g2430
sg75
(lp2446
g68
(g69
g70
NtRp2447
(dp2448
g73
(dp2449
g81
I5
ssg82
g2443
sg75
(lp2450
S'datetime.datetime(2013, 4, 14, 19, 31, 6, 470580)'
p2451
asbasbasbag68
(g84
g70
NtRp2452
(dp2453
g73
(dp2454
sg82
g78
sg75
(lp2455
g68
(g89
g70
NtRp2456
(dp2457
g73
(dp2458
g93
g94
ssg82
g2452
sg75
(lp2459
S'post_vars'
p2460
asbag68
(g89
g70
NtRp2461
(dp2462
g73
(dp2463
g100
g101
ssg82
g2452
sg75
(lp2464
S':'
asbag68
(g89
g70
NtRp2465
(dp2466
g73
(dp2467
sg82
g2452
sg75
(lp2468
g68
(g69
g70
NtRp2469
(dp2470
g73
(dp2471
g81
I5
ssg82
g2465
sg75
(lp2472
g68
(g77
g70
NtRp2473
(dp2474
g73
(dp2475
g81
I4
ssg82
Nsg75
(lp2476
sbasbasbasbag68
(g84
g70
NtRp2477
(dp2478
g73
(dp2479
sg82
g78
sg75
(lp2480
g68
(g89
g70
NtRp2481
(dp2482
g73
(dp2483
g93
g94
ssg82
g2477
sg75
(lp2484
S'raw_args'
p2485
asbag68
(g89
g70
NtRp2486
(dp2487
g73
(dp2488
g100
g101
ssg82
g2477
sg75
(lp2489
S':'
asbag68
(g89
g70
NtRp2490
(dp2491
g73
(dp2492
sg82
g2477
sg75
(lp2493
g68
(g69
g70
NtRp2494
(dp2495
g73
(dp2496
g81
I5
ssg82
g2490
sg75
(lp2497
S''
asbasbasbag68
(g84
g70
NtRp2498
(dp2499
g73
(dp2500
sg82
g78
sg75
(lp2501
g68
(g89
g70
NtRp2502
(dp2503
g73
(dp2504
g93
g94
ssg82
g2498
sg75
(lp2505
S'raw_extension'
p2506
asbag68
(g89
g70
NtRp2507
(dp2508
g73
(dp2509
g100
g101
ssg82
g2498
sg75
(lp2510
S':'
asbag68
(g89
g70
NtRp2511
(dp2512
g73
(dp2513
sg82
g2498
sg75
(lp2514
g68
(g69
g70
NtRp2515
(dp2516
g73
(dp2517
g81
I5
ssg82
g2511
sg75
(lp2518
S'None'
p2519
asbasbasbag68
(g84
g70
NtRp2520
(dp2521
g73
(dp2522
sg82
g78
sg75
(lp2523
g68
(g89
g70
NtRp2524
(dp2525
g73
(dp2526
g93
g94
ssg82
g2520
sg75
(lp2527
S'url'
p2528
asbag68
(g89
g70
NtRp2529
(dp2530
g73
(dp2531
g100
g101
ssg82
g2520
sg75
(lp2532
S':'
asbag68
(g89
g70
NtRp2533
(dp2534
g73
(dp2535
sg82
g2520
sg75
(lp2536
g68
(g69
g70
NtRp2537
(dp2538
g73
(dp2539
g81
I5
ssg82
g2533
sg75
(lp2540
g1369
asbasbasbag68
(g84
g70
NtRp2541
(dp2542
g73
(dp2543
sg82
g78
sg75
(lp2544
g68
(g89
g70
NtRp2545
(dp2546
g73
(dp2547
g93
g94
ssg82
g2541
sg75
(lp2548
S'utcnow'
p2549
asbag68
(g89
g70
NtRp2550
(dp2551
g73
(dp2552
g100
g101
ssg82
g2541
sg75
(lp2553
S':'
asbag68
(g89
g70
NtRp2554
(dp2555
g73
(dp2556
sg82
g2541
sg75
(lp2557
g68
(g69
g70
NtRp2558
(dp2559
g73
(dp2560
g81
I5
ssg82
g2554
sg75
(lp2561
S'datetime.datetime(2013, 4, 14, 14, 1, 6, 470639)'
p2562
asbasbasbag68
(g84
g70
NtRp2563
(dp2564
g73
(dp2565
sg82
g78
sg75
(lp2566
g68
(g89
g70
NtRp2567
(dp2568
g73
(dp2569
g93
g94
ssg82
g2563
sg75
(lp2570
S'uuid'
p2571
asbag68
(g89
g70
NtRp2572
(dp2573
g73
(dp2574
g100
g101
ssg82
g2563
sg75
(lp2575
S':'
asbag68
(g89
g70
NtRp2576
(dp2577
g73
(dp2578
sg82
g2563
sg75
(lp2579
g68
(g69
g70
NtRp2580
(dp2581
g73
(dp2582
g81
I5
ssg82
g2576
sg75
(lp2583
S'OnlineExamination/127.0.0.1.2013-04-14.19-31-06.7853af99-06bb-471d-a6d9-d9affc3806e3'
p2584
asbasbasbag68
(g84
g70
NtRp2585
(dp2586
g73
(dp2587
sg82
g78
sg75
(lp2588
g68
(g89
g70
NtRp2589
(dp2590
g73
(dp2591
g93
g94
ssg82
g2585
sg75
(lp2592
S'vars'
p2593
asbag68
(g89
g70
NtRp2594
(dp2595
g73
(dp2596
g100
g101
ssg82
g2585
sg75
(lp2597
S':'
asbag68
(g89
g70
NtRp2598
(dp2599
g73
(dp2600
sg82
g2585
sg75
(lp2601
g68
(g69
g70
NtRp2602
(dp2603
g73
(dp2604
g81
I5
ssg82
g2598
sg75
(lp2605
g68
(g77
g70
NtRp2606
(dp2607
g73
(dp2608
g81
I4
ssg82
Nsg75
(lp2609
sbasbasbasbag68
(g84
g70
NtRp2610
(dp2611
g73
(dp2612
sg82
g78
sg75
(lp2613
g68
(g89
g70
NtRp2614
(dp2615
g73
(dp2616
g93
g94
ssg82
g2610
sg75
(lp2617
S'wsgi'
p2618
asbag68
(g89
g70
NtRp2619
(dp2620
g73
(dp2621
g100
g101
ssg82
g2610
sg75
(lp2622
S':'
asbag68
(g89
g70
NtRp2623
(dp2624
g73
(dp2625
sg82
g2610
sg75
(lp2626
g68
(g69
g70
NtRp2627
(dp2628
g73
(dp2629
g81
I5
ssg82
g2623
sg75
(lp2630
g68
(g77
g70
NtRp2631
(dp2632
g73
(dp2633
g81
I4
ssg82
Nsg75
(lp2634
g68
(g84
g70
NtRp2635
(dp2636
g73
(dp2637
sg82
g2631
sg75
(lp2638
g68
(g89
g70
NtRp2639
(dp2640
g73
(dp2641
g93
g94
ssg82
g2635
sg75
(lp2642
S'environ'
p2643
asbag68
(g89
g70
NtRp2644
(dp2645
g73
(dp2646
g100
g101
ssg82
g2635
sg75
(lp2647
S':'
asbag68
(g89
g70
NtRp2648
(dp2649
g73
(dp2650
sg82
g2635
sg75
(lp2651
g68
(g69
g70
NtRp2652
(dp2653
g73
(dp2654
g81
I4
ssg82
g2648
sg75
(lp2655
g68
(g77
g70
NtRp2656
(dp2657
g73
(dp2658
g81
I3
ssg82
Nsg75
(lp2659
g68
(g84
g70
NtRp2660
(dp2661
g73
(dp2662
sg82
g2656
sg75
(lp2663
g68
(g89
g70
NtRp2664
(dp2665
g73
(dp2666
g93
g94
ssg82
g2660
sg75
(lp2667
S'HTTP_ACCEPT'
p2668
asbag68
(g89
g70
NtRp2669
(dp2670
g73
(dp2671
g100
g101
ssg82
g2660
sg75
(lp2672
S':'
asbag68
(g89
g70
NtRp2673
(dp2674
g73
(dp2675
sg82
g2660
sg75
(lp2676
g68
(g69
g70
NtRp2677
(dp2678
g73
(dp2679
g81
I3
ssg82
g2673
sg75
(lp2680
g1039
asbasbasbag68
(g84
g70
NtRp2681
(dp2682
g73
(dp2683
sg82
g2656
sg75
(lp2684
g68
(g89
g70
NtRp2685
(dp2686
g73
(dp2687
g93
g94
ssg82
g2681
sg75
(lp2688
S'HTTP_ACCEPT_ENCODING'
p2689
asbag68
(g89
g70
NtRp2690
(dp2691
g73
(dp2692
g100
g101
ssg82
g2681
sg75
(lp2693
S':'
asbag68
(g89
g70
NtRp2694
(dp2695
g73
(dp2696
sg82
g2681
sg75
(lp2697
g68
(g69
g70
NtRp2698
(dp2699
g73
(dp2700
g81
I3
ssg82
g2694
sg75
(lp2701
g1061
asbasbasbag68
(g84
g70
NtRp2702
(dp2703
g73
(dp2704
sg82
g2656
sg75
(lp2705
g68
(g89
g70
NtRp2706
(dp2707
g73
(dp2708
g93
g94
ssg82
g2702
sg75
(lp2709
S'HTTP_ACCEPT_LANGUAGE'
p2710
asbag68
(g89
g70
NtRp2711
(dp2712
g73
(dp2713
g100
g101
ssg82
g2702
sg75
(lp2714
S':'
asbag68
(g89
g70
NtRp2715
(dp2716
g73
(dp2717
sg82
g2702
sg75
(lp2718
g68
(g69
g70
NtRp2719
(dp2720
g73
(dp2721
g81
I3
ssg82
g2715
sg75
(lp2722
g1083
asbasbasbag68
(g84
g70
NtRp2723
(dp2724
g73
(dp2725
sg82
g2656
sg75
(lp2726
g68
(g89
g70
NtRp2727
(dp2728
g73
(dp2729
g93
g94
ssg82
g2723
sg75
(lp2730
S'HTTP_CACHE_CONTROL'
p2731
asbag68
(g89
g70
NtRp2732
(dp2733
g73
(dp2734
g100
g101
ssg82
g2723
sg75
(lp2735
S':'
asbag68
(g89
g70
NtRp2736
(dp2737
g73
(dp2738
sg82
g2723
sg75
(lp2739
g68
(g69
g70
NtRp2740
(dp2741
g73
(dp2742
g81
I3
ssg82
g2736
sg75
(lp2743
g1105
asbasbasbag68
(g84
g70
NtRp2744
(dp2745
g73
(dp2746
sg82
g2656
sg75
(lp2747
g68
(g89
g70
NtRp2748
(dp2749
g73
(dp2750
g93
g94
ssg82
g2744
sg75
(lp2751
S'HTTP_CONNECTION'
p2752
asbag68
(g89
g70
NtRp2753
(dp2754
g73
(dp2755
g100
g101
ssg82
g2744
sg75
(lp2756
S':'
asbag68
(g89
g70
NtRp2757
(dp2758
g73
(dp2759
sg82
g2744
sg75
(lp2760
g68
(g69
g70
NtRp2761
(dp2762
g73
(dp2763
g81
I3
ssg82
g2757
sg75
(lp2764
g1127
asbasbasbag68
(g84
g70
NtRp2765
(dp2766
g73
(dp2767
sg82
g2656
sg75
(lp2768
g68
(g89
g70
NtRp2769
(dp2770
g73
(dp2771
g93
g94
ssg82
g2765
sg75
(lp2772
S'HTTP_COOKIE'
p2773
asbag68
(g89
g70
NtRp2774
(dp2775
g73
(dp2776
g100
g101
ssg82
g2765
sg75
(lp2777
S':'
asbag68
(g89
g70
NtRp2778
(dp2779
g73
(dp2780
sg82
g2765
sg75
(lp2781
g68
(g69
g70
NtRp2782
(dp2783
g73
(dp2784
g81
I3
ssg82
g2778
sg75
(lp2785
g1149
asbasbasbag68
(g84
g70
NtRp2786
(dp2787
g73
(dp2788
sg82
g2656
sg75
(lp2789
g68
(g89
g70
NtRp2790
(dp2791
g73
(dp2792
g93
g94
ssg82
g2786
sg75
(lp2793
S'HTTP_HOST'
p2794
asbag68
(g89
g70
NtRp2795
(dp2796
g73
(dp2797
g100
g101
ssg82
g2786
sg75
(lp2798
S':'
asbag68
(g89
g70
NtRp2799
(dp2800
g73
(dp2801
sg82
g2786
sg75
(lp2802
g68
(g69
g70
NtRp2803
(dp2804
g73
(dp2805
g81
I3
ssg82
g2799
sg75
(lp2806
g1171
asbasbasbag68
(g84
g70
NtRp2807
(dp2808
g73
(dp2809
sg82
g2656
sg75
(lp2810
g68
(g89
g70
NtRp2811
(dp2812
g73
(dp2813
g93
g94
ssg82
g2807
sg75
(lp2814
S'HTTP_REFERER'
p2815
asbag68
(g89
g70
NtRp2816
(dp2817
g73
(dp2818
g100
g101
ssg82
g2807
sg75
(lp2819
S':'
asbag68
(g89
g70
NtRp2820
(dp2821
g73
(dp2822
sg82
g2807
sg75
(lp2823
g68
(g69
g70
NtRp2824
(dp2825
g73
(dp2826
g81
I3
ssg82
g2820
sg75
(lp2827
g1193
asbasbasbag68
(g84
g70
NtRp2828
(dp2829
g73
(dp2830
sg82
g2656
sg75
(lp2831
g68
(g89
g70
NtRp2832
(dp2833
g73
(dp2834
g93
g94
ssg82
g2828
sg75
(lp2835
S'HTTP_USER_AGENT'
p2836
asbag68
(g89
g70
NtRp2837
(dp2838
g73
(dp2839
g100
g101
ssg82
g2828
sg75
(lp2840
S':'
asbag68
(g89
g70
NtRp2841
(dp2842
g73
(dp2843
sg82
g2828
sg75
(lp2844
g68
(g69
g70
NtRp2845
(dp2846
g73
(dp2847
g81
I3
ssg82
g2841
sg75
(lp2848
g1215
asbasbasbag68
(g84
g70
NtRp2849
(dp2850
g73
(dp2851
sg82
g2656
sg75
(lp2852
g68
(g89
g70
NtRp2853
(dp2854
g73
(dp2855
g93
g94
ssg82
g2849
sg75
(lp2856
S'PATH_INFO'
p2857
asbag68
(g89
g70
NtRp2858
(dp2859
g73
(dp2860
g100
g101
ssg82
g2849
sg75
(lp2861
S':'
asbag68
(g89
g70
NtRp2862
(dp2863
g73
(dp2864
sg82
g2849
sg75
(lp2865
g68
(g69
g70
NtRp2866
(dp2867
g73
(dp2868
g81
I3
ssg82
g2862
sg75
(lp2869
g1369
asbasbasbag68
(g84
g70
NtRp2870
(dp2871
g73
(dp2872
sg82
g2656
sg75
(lp2873
g68
(g89
g70
NtRp2874
(dp2875
g73
(dp2876
g93
g94
ssg82
g2870
sg75
(lp2877
S'QUERY_STRING'
p2878
asbag68
(g89
g70
NtRp2879
(dp2880
g73
(dp2881
g100
g101
ssg82
g2870
sg75
(lp2882
S':'
asbag68
(g89
g70
NtRp2883
(dp2884
g73
(dp2885
sg82
g2870
sg75
(lp2886
g68
(g69
g70
NtRp2887
(dp2888
g73
(dp2889
g81
I3
ssg82
g2883
sg75
(lp2890
S''
asbasbasbag68
(g84
g70
NtRp2891
(dp2892
g73
(dp2893
sg82
g2656
sg75
(lp2894
g68
(g89
g70
NtRp2895
(dp2896
g73
(dp2897
g93
g94
ssg82
g2891
sg75
(lp2898
S'REMOTE_ADDR'
p2899
asbag68
(g89
g70
NtRp2900
(dp2901
g73
(dp2902
g100
g101
ssg82
g2891
sg75
(lp2903
S':'
asbag68
(g89
g70
NtRp2904
(dp2905
g73
(dp2906
sg82
g2891
sg75
(lp2907
g68
(g69
g70
NtRp2908
(dp2909
g73
(dp2910
g81
I3
ssg82
g2904
sg75
(lp2911
g223
asbasbasbag68
(g84
g70
NtRp2912
(dp2913
g73
(dp2914
sg82
g2656
sg75
(lp2915
g68
(g89
g70
NtRp2916
(dp2917
g73
(dp2918
g93
g94
ssg82
g2912
sg75
(lp2919
S'REMOTE_PORT'
p2920
asbag68
(g89
g70
NtRp2921
(dp2922
g73
(dp2923
g100
g101
ssg82
g2912
sg75
(lp2924
S':'
asbag68
(g89
g70
NtRp2925
(dp2926
g73
(dp2927
sg82
g2912
sg75
(lp2928
g68
(g69
g70
NtRp2929
(dp2930
g73
(dp2931
g81
I3
ssg82
g2925
sg75
(lp2932
g1433
asbasbasbag68
(g84
g70
NtRp2933
(dp2934
g73
(dp2935
sg82
g2656
sg75
(lp2936
g68
(g89
g70
NtRp2937
(dp2938
g73
(dp2939
g93
g94
ssg82
g2933
sg75
(lp2940
S'REQUEST_METHOD'
p2941
asbag68
(g89
g70
NtRp2942
(dp2943
g73
(dp2944
g100
g101
ssg82
g2933
sg75
(lp2945
S':'
asbag68
(g89
g70
NtRp2946
(dp2947
g73
(dp2948
sg82
g2933
sg75
(lp2949
g68
(g69
g70
NtRp2950
(dp2951
g73
(dp2952
g81
I3
ssg82
g2946
sg75
(lp2953
g1455
asbasbasbag68
(g84
g70
NtRp2954
(dp2955
g73
(dp2956
sg82
g2656
sg75
(lp2957
g68
(g89
g70
NtRp2958
(dp2959
g73
(dp2960
g93
g94
ssg82
g2954
sg75
(lp2961
S'REQUEST_URI'
p2962
asbag68
(g89
g70
NtRp2963
(dp2964
g73
(dp2965
g100
g101
ssg82
g2954
sg75
(lp2966
S':'
asbag68
(g89
g70
NtRp2967
(dp2968
g73
(dp2969
sg82
g2954
sg75
(lp2970
g68
(g69
g70
NtRp2971
(dp2972
g73
(dp2973
g81
I3
ssg82
g2967
sg75
(lp2974
g1369
asbasbasbag68
(g84
g70
NtRp2975
(dp2976
g73
(dp2977
sg82
g2656
sg75
(lp2978
g68
(g89
g70
NtRp2979
(dp2980
g73
(dp2981
g93
g94
ssg82
g2975
sg75
(lp2982
S'SCRIPT_NAME'
p2983
asbag68
(g89
g70
NtRp2984
(dp2985
g73
(dp2986
g100
g101
ssg82
g2975
sg75
(lp2987
S':'
asbag68
(g89
g70
NtRp2988
(dp2989
g73
(dp2990
sg82
g2975
sg75
(lp2991
g68
(g69
g70
NtRp2992
(dp2993
g73
(dp2994
g81
I3
ssg82
g2988
sg75
(lp2995
S''
asbasbasbag68
(g84
g70
NtRp2996
(dp2997
g73
(dp2998
sg82
g2656
sg75
(lp2999
g68
(g89
g70
NtRp3000
(dp3001
g73
(dp3002
g93
g94
ssg82
g2996
sg75
(lp3003
S'SERVER_NAME'
p3004
asbag68
(g89
g70
NtRp3005
(dp3006
g73
(dp3007
g100
g101
ssg82
g2996
sg75
(lp3008
S':'
asbag68
(g89
g70
NtRp3009
(dp3010
g73
(dp3011
sg82
g2996
sg75
(lp3012
g68
(g69
g70
NtRp3013
(dp3014
g73
(dp3015
g81
I3
ssg82
g3009
sg75
(lp3016
g1519
asbasbasbag68
(g84
g70
NtRp3017
(dp3018
g73
(dp3019
sg82
g2656
sg75
(lp3020
g68
(g89
g70
NtRp3021
(dp3022
g73
(dp3023
g93
g94
ssg82
g3017
sg75
(lp3024
S'SERVER_PORT'
p3025
asbag68
(g89
g70
NtRp3026
(dp3027
g73
(dp3028
g100
g101
ssg82
g3017
sg75
(lp3029
S':'
asbag68
(g89
g70
NtRp3030
(dp3031
g73
(dp3032
sg82
g3017
sg75
(lp3033
g68
(g69
g70
NtRp3034
(dp3035
g73
(dp3036
g81
I3
ssg82
g3030
sg75
(lp3037
g1541
asbasbasbag68
(g84
g70
NtRp3038
(dp3039
g73
(dp3040
sg82
g2656
sg75
(lp3041
g68
(g89
g70
NtRp3042
(dp3043
g73
(dp3044
g93
g94
ssg82
g3038
sg75
(lp3045
S'SERVER_PROTOCOL'
p3046
asbag68
(g89
g70
NtRp3047
(dp3048
g73
(dp3049
g100
g101
ssg82
g3038
sg75
(lp3050
S':'
asbag68
(g89
g70
NtRp3051
(dp3052
g73
(dp3053
sg82
g3038
sg75
(lp3054
g68
(g69
g70
NtRp3055
(dp3056
g73
(dp3057
g81
I3
ssg82
g3051
sg75
(lp3058
g1563
asbasbasbag68
(g84
g70
NtRp3059
(dp3060
g73
(dp3061
sg82
g2656
sg75
(lp3062
g68
(g89
g70
NtRp3063
(dp3064
g73
(dp3065
g93
g94
ssg82
g3059
sg75
(lp3066
S'SERVER_SOFTWARE'
p3067
asbag68
(g89
g70
NtRp3068
(dp3069
g73
(dp3070
g100
g101
ssg82
g3059
sg75
(lp3071
S':'
asbag68
(g89
g70
NtRp3072
(dp3073
g73
(dp3074
sg82
g3059
sg75
(lp3075
g68
(g69
g70
NtRp3076
(dp3077
g73
(dp3078
g81
I3
ssg82
g3072
sg75
(lp3079
g1585
asbasbasbag68
(g84
g70
NtRp3080
(dp3081
g73
(dp3082
sg82
g2656
sg75
(lp3083
g68
(g89
g70
NtRp3084
(dp3085
g73
(dp3086
g93
g94
ssg82
g3080
sg75
(lp3087
S'wsgi.errors'
p3088
asbag68
(g89
g70
NtRp3089
(dp3090
g73
(dp3091
g100
g101
ssg82
g3080
sg75
(lp3092
S':'
asbag68
(g89
g70
NtRp3093
(dp3094
g73
(dp3095
sg82
g3080
sg75
(lp3096
g68
(g69
g70
NtRp3097
(dp3098
g73
(dp3099
g81
I3
ssg82
g3093
sg75
(lp3100
S"<open file '<stderr>', mode 'w' at 0xb749a0d0>"
p3101
asbasbasbag68
(g84
g70
NtRp3102
(dp3103
g73
(dp3104
sg82
g2656
sg75
(lp3105
g68
(g89
g70
NtRp3106
(dp3107
g73
(dp3108
g93
g94
ssg82
g3102
sg75
(lp3109
S'wsgi.file_wrapper'
p3110
asbag68
(g89
g70
NtRp3111
(dp3112
g73
(dp3113
g100
g101
ssg82
g3102
sg75
(lp3114
S':'
asbag68
(g89
g70
NtRp3115
(dp3116
g73
(dp3117
sg82
g3102
sg75
(lp3118
g68
(g69
g70
NtRp3119
(dp3120
g73
(dp3121
g81
I3
ssg82
g3115
sg75
(lp3122
S'<class wsgiref.util.FileWrapper at 0x9f61ecc>'
p3123
asbasbasbag68
(g84
g70
NtRp3124
(dp3125
g73
(dp3126
sg82
g2656
sg75
(lp3127
g68
(g89
g70
NtRp3128
(dp3129
g73
(dp3130
g93
g94
ssg82
g3124
sg75
(lp3131
S'wsgi.input'
p3132
asbag68
(g89
g70
NtRp3133
(dp3134
g73
(dp3135
g100
g101
ssg82
g3124
sg75
(lp3136
S':'
asbag68
(g89
g70
NtRp3137
(dp3138
g73
(dp3139
sg82
g3124
sg75
(lp3140
g68
(g69
g70
NtRp3141
(dp3142
g73
(dp3143
g81
I3
ssg82
g3137
sg75
(lp3144
S'<cStringIO.StringO object at 0xae355fc0>'
p3145
asbasbasbag68
(g84
g70
NtRp3146
(dp3147
g73
(dp3148
sg82
g2656
sg75
(lp3149
g68
(g89
g70
NtRp3150
(dp3151
g73
(dp3152
g93
g94
ssg82
g3146
sg75
(lp3153
S'wsgi.multiprocess'
p3154
asbag68
(g89
g70
NtRp3155
(dp3156
g73
(dp3157
g100
g101
ssg82
g3146
sg75
(lp3158
S':'
asbag68
(g89
g70
NtRp3159
(dp3160
g73
(dp3161
sg82
g3146
sg75
(lp3162
g68
(g69
g70
NtRp3163
(dp3164
g73
(dp3165
g81
I3
ssg82
g3159
sg75
(lp3166
g111
asbasbasbag68
(g84
g70
NtRp3167
(dp3168
g73
(dp3169
sg82
g2656
sg75
(lp3170
g68
(g89
g70
NtRp3171
(dp3172
g73
(dp3173
g93
g94
ssg82
g3167
sg75
(lp3174
S'wsgi.multithread'
p3175
asbag68
(g89
g70
NtRp3176
(dp3177
g73
(dp3178
g100
g101
ssg82
g3167
sg75
(lp3179
S':'
asbag68
(g89
g70
NtRp3180
(dp3181
g73
(dp3182
sg82
g3167
sg75
(lp3183
g68
(g69
g70
NtRp3184
(dp3185
g73
(dp3186
g81
I3
ssg82
g3180
sg75
(lp3187
g1802
asbasbasbag68
(g84
g70
NtRp3188
(dp3189
g73
(dp3190
sg82
g2656
sg75
(lp3191
g68
(g89
g70
NtRp3192
(dp3193
g73
(dp3194
g93
g94
ssg82
g3188
sg75
(lp3195
S'wsgi.run_once'
p3196
asbag68
(g89
g70
NtRp3197
(dp3198
g73
(dp3199
g100
g101
ssg82
g3188
sg75
(lp3200
S':'
asbag68
(g89
g70
NtRp3201
(dp3202
g73
(dp3203
sg82
g3188
sg75
(lp3204
g68
(g69
g70
NtRp3205
(dp3206
g73
(dp3207
g81
I3
ssg82
g3201
sg75
(lp3208
g111
asbasbasbag68
(g84
g70
NtRp3209
(dp3210
g73
(dp3211
sg82
g2656
sg75
(lp3212
g68
(g89
g70
NtRp3213
(dp3214
g73
(dp3215
g93
g94
ssg82
g3209
sg75
(lp3216
S'wsgi.url_scheme'
p3217
asbag68
(g89
g70
NtRp3218
(dp3219
g73
(dp3220
g100
g101
ssg82
g3209
sg75
(lp3221
S':'
asbag68
(g89
g70
NtRp3222
(dp3223
g73
(dp3224
sg82
g3209
sg75
(lp3225
g68
(g69
g70
NtRp3226
(dp3227
g73
(dp3228
g81
I3
ssg82
g3222
sg75
(lp3229
g1845
asbasbasbag68
(g84
g70
NtRp3230
(dp3231
g73
(dp3232
sg82
g2656
sg75
(lp3233
g68
(g89
g70
NtRp3234
(dp3235
g73
(dp3236
g93
g94
ssg82
g3230
sg75
(lp3237
S'wsgi.version'
p3238
asbag68
(g89
g70
NtRp3239
(dp3240
g73
(dp3241
g100
g101
ssg82
g3230
sg75
(lp3242
S':'
asbag68
(g89
g70
NtRp3243
(dp3244
g73
(dp3245
sg82
g3230
sg75
(lp3246
g68
(g69
g70
NtRp3247
(dp3248
g73
(dp3249
g81
I3
ssg82
g3243
sg75
(lp3250
S'1'
asbasbasbasbasbasbasbasbasbasbasbasbasbsS'frames'
p3251
(lp3252
(dp3253
S'file'
p3254
S'/home/gaurav/classwork/WEB_PROGRAMMING/web2py/gluon/restricted.py'
p3255
sS'dump'
p3256
(dp3257
S'code'
p3258
S"'# -*- coding: utf-8 -*-\\n# this file is released ...orm=form)\\n\\nresponse._vars=response._caller(exam)\\n'"
p3259
sS'layer'
p3260
S"'/home/gaurav/classwork/WEB_PROGRAMMING/web2py/applications/OnlineExamination/controllers/default.py'"
p3261
sS'global compile2'
p3262
S'<function compile2>'
p3263
sS'ccode'
p3264
S'undefined'
p3265
ssS'lnum'
p3266
I211
sS'lines'
p3267
(dp3268
I206
S"    environment['__name__'] = '__restricted__'"
p3269
sI207
S'    try:'
p3270
sI208
S'        if isinstance(code, types.CodeType):'
p3271
sI209
S'            ccode = code'
p3272
sI210
S'        else:'
p3273
sI211
S'            ccode = compile2(code, layer)'
p3274
sI212
S'        exec ccode in environment'
p3275
sI213
S'    except HTTP:'
p3276
sI214
S'        raise'
p3277
sI215
S'    except RestrictedError:'
p3278
ssS'call'
p3279
S"(code='# -*- coding: utf-8 -*-\\n# this file is released ...orm=form)\\n\\nresponse._vars=response._caller(exam)\\n', environment={'A': <class 'gluon.html.A'>, 'Auth': <class 'gluon.tools.Auth'>, 'B': <class 'gluon.html.B'>, 'BEAUTIFY': <class 'gluon.html.BEAUTIFY'>, 'BODY': <class 'gluon.html.BODY'>, 'BR': <class 'gluon.html.BR'>, 'BUTTON': <class 'gluon.html.BUTTON'>, 'CAT': <class 'gluon.html.CAT'>, 'CENTER': <class 'gluon.html.CENTER'>, 'CLEANUP': <class 'gluon.validators.CLEANUP'>, ...}, layer='/home/gaurav/classwork/WEB_PROGRAMMING/web2py/applications/OnlineExamination/controllers/default.py')"
p3280
sS'func'
p3281
S'restricted'
p3282
sa(dp3283
g3254
S'/home/gaurav/classwork/WEB_PROGRAMMING/web2py/gluon/restricted.py'
p3284
sg3256
(dp3285
S'builtincompile'
p3286
S'<built-in function compile>'
p3287
sS'code'
p3288
S"'# -*- coding: utf-8 -*-\\n# this file is released ...orm=form)\\n\\nresponse._vars=response._caller(exam)\\n'"
p3289
sS'code.rstrip'
p3290
S'<built-in method rstrip of str object>'
p3291
sS').replace'
p3292
g3265
sS'layer'
p3293
S"'/home/gaurav/classwork/WEB_PROGRAMMING/web2py/applications/OnlineExamination/controllers/default.py'"
p3294
ssg3266
I194
sg3267
(dp3295
I192
S"    The +'\\n' is necessary else compile fails when code ends in a comment."
p3296
sI193
S'    """'
p3297
sI194
S"    return compile(code.rstrip().replace('\\r\\n', '\\n') + '\\n', layer, 'exec')"
p3298
sI195
S''
sI196
S''
sI197
S"def restricted(code, environment=None, layer='Unknown'):"
p3299
sI198
S'    """'
p3300
sI189
S''
sI190
S'def compile2(code, layer):'
p3301
sI191
S'    """'
p3302
ssg3279
S"(code='# -*- coding: utf-8 -*-\\n# this file is released ...orm=form)\\n\\nresponse._vars=response._caller(exam)\\n', layer='/home/gaurav/classwork/WEB_PROGRAMMING/web2py/applications/OnlineExamination/controllers/default.py')"
p3303
sg3281
S'compile2'
p3304
sasS'pyver'
p3305
S'Python 2.7.3: /usr/bin/python'
p3306
sS'session'
p3307
g68
(g69
g70
NtRp3308
(dp3309
g73
(dp3310
sg75
(lp3311
g68
(g77
g70
NtRp3312
(dp3313
g73
(dp3314
g81
I5
ssg82
Nsg75
(lp3315
g68
(g84
g70
NtRp3316
(dp3317
g73
(dp3318
sg82
g3312
sg75
(lp3319
g68
(g89
g70
NtRp3320
(dp3321
g73
(dp3322
g93
g94
ssg82
g3316
sg75
(lp3323
S'auth'
p3324
asbag68
(g89
g70
NtRp3325
(dp3326
g73
(dp3327
g100
g101
ssg82
g3316
sg75
(lp3328
S':'
asbag68
(g89
g70
NtRp3329
(dp3330
g73
(dp3331
sg82
g3316
sg75
(lp3332
g68
(g69
g70
NtRp3333
(dp3334
g73
(dp3335
g81
I5
ssg82
g3329
sg75
(lp3336
g68
(g77
g70
NtRp3337
(dp3338
g73
(dp3339
g81
I4
ssg82
Nsg75
(lp3340
g68
(g84
g70
NtRp3341
(dp3342
g73
(dp3343
sg82
g3337
sg75
(lp3344
g68
(g89
g70
NtRp3345
(dp3346
g73
(dp3347
g93
g94
ssg82
g3341
sg75
(lp3348
S'expiration'
p3349
asbag68
(g89
g70
NtRp3350
(dp3351
g73
(dp3352
g100
g101
ssg82
g3341
sg75
(lp3353
S':'
asbag68
(g89
g70
NtRp3354
(dp3355
g73
(dp3356
sg82
g3341
sg75
(lp3357
g68
(g69
g70
NtRp3358
(dp3359
g73
(dp3360
g81
I4
ssg82
g3354
sg75
(lp3361
S'3600'
p3362
asbasbasbag68
(g84
g70
NtRp3363
(dp3364
g73
(dp3365
sg82
g3337
sg75
(lp3366
g68
(g89
g70
NtRp3367
(dp3368
g73
(dp3369
g93
g94
ssg82
g3363
sg75
(lp3370
S'hmac_key'
p3371
asbag68
(g89
g70
NtRp3372
(dp3373
g73
(dp3374
g100
g101
ssg82
g3363
sg75
(lp3375
S':'
asbag68
(g89
g70
NtRp3376
(dp3377
g73
(dp3378
sg82
g3363
sg75
(lp3379
g68
(g69
g70
NtRp3380
(dp3381
g73
(dp3382
g81
I4
ssg82
g3376
sg75
(lp3383
S'f6644e3c-a697-4986-9094-36d125310bba'
p3384
asbasbasbag68
(g84
g70
NtRp3385
(dp3386
g73
(dp3387
sg82
g3337
sg75
(lp3388
g68
(g89
g70
NtRp3389
(dp3390
g73
(dp3391
g93
g94
ssg82
g3385
sg75
(lp3392
S'last_visit'
p3393
asbag68
(g89
g70
NtRp3394
(dp3395
g73
(dp3396
g100
g101
ssg82
g3385
sg75
(lp3397
S':'
asbag68
(g89
g70
NtRp3398
(dp3399
g73
(dp3400
sg82
g3385
sg75
(lp3401
g68
(g69
g70
NtRp3402
(dp3403
g73
(dp3404
g81
I4
ssg82
g3398
sg75
(lp3405
S'datetime.datetime(2013, 4, 14, 19, 29, 31, 360683)'
p3406
asbasbasbag68
(g84
g70
NtRp3407
(dp3408
g73
(dp3409
sg82
g3337
sg75
(lp3410
g68
(g89
g70
NtRp3411
(dp3412
g73
(dp3413
g93
g94
ssg82
g3407
sg75
(lp3414
S'remember'
p3415
asbag68
(g89
g70
NtRp3416
(dp3417
g73
(dp3418
g100
g101
ssg82
g3407
sg75
(lp3419
S':'
asbag68
(g89
g70
NtRp3420
(dp3421
g73
(dp3422
sg82
g3407
sg75
(lp3423
g68
(g69
g70
NtRp3424
(dp3425
g73
(dp3426
g81
I4
ssg82
g3420
sg75
(lp3427
g111
asbasbasbag68
(g84
g70
NtRp3428
(dp3429
g73
(dp3430
sg82
g3337
sg75
(lp3431
g68
(g89
g70
NtRp3432
(dp3433
g73
(dp3434
g93
g94
ssg82
g3428
sg75
(lp3435
S'user'
p3436
asbag68
(g89
g70
NtRp3437
(dp3438
g73
(dp3439
g100
g101
ssg82
g3428
sg75
(lp3440
S':'
asbag68
(g89
g70
NtRp3441
(dp3442
g73
(dp3443
sg82
g3428
sg75
(lp3444
g68
(g69
g70
NtRp3445
(dp3446
g73
(dp3447
g81
I4
ssg82
g3441
sg75
(lp3448
g68
(g77
g70
NtRp3449
(dp3450
g73
(dp3451
g81
I3
ssg82
Nsg75
(lp3452
g68
(g84
g70
NtRp3453
(dp3454
g73
(dp3455
sg82
g3449
sg75
(lp3456
g68
(g89
g70
NtRp3457
(dp3458
g73
(dp3459
g93
g94
ssg82
g3453
sg75
(lp3460
S'email'
p3461
asbag68
(g89
g70
NtRp3462
(dp3463
g73
(dp3464
g100
g101
ssg82
g3453
sg75
(lp3465
S':'
asbag68
(g89
g70
NtRp3466
(dp3467
g73
(dp3468
sg82
g3453
sg75
(lp3469
g68
(g69
g70
NtRp3470
(dp3471
g73
(dp3472
g81
I3
ssg82
g3466
sg75
(lp3473
S'ggg@ggg.com'
p3474
asbasbasbag68
(g84
g70
NtRp3475
(dp3476
g73
(dp3477
sg82
g3449
sg75
(lp3478
g68
(g89
g70
NtRp3479
(dp3480
g73
(dp3481
g93
g94
ssg82
g3475
sg75
(lp3482
S'first_name'
p3483
asbag68
(g89
g70
NtRp3484
(dp3485
g73
(dp3486
g100
g101
ssg82
g3475
sg75
(lp3487
S':'
asbag68
(g89
g70
NtRp3488
(dp3489
g73
(dp3490
sg82
g3475
sg75
(lp3491
g68
(g69
g70
NtRp3492
(dp3493
g73
(dp3494
g81
I3
ssg82
g3488
sg75
(lp3495
S'gaurav'
p3496
asbasbasbag68
(g84
g70
NtRp3497
(dp3498
g73
(dp3499
sg82
g3449
sg75
(lp3500
g68
(g89
g70
NtRp3501
(dp3502
g73
(dp3503
g93
g94
ssg82
g3497
sg75
(lp3504
S'id'
p3505
asbag68
(g89
g70
NtRp3506
(dp3507
g73
(dp3508
g100
g101
ssg82
g3497
sg75
(lp3509
S':'
asbag68
(g89
g70
NtRp3510
(dp3511
g73
(dp3512
sg82
g3497
sg75
(lp3513
g68
(g69
g70
NtRp3514
(dp3515
g73
(dp3516
g81
I3
ssg82
g3510
sg75
(lp3517
S'33'
p3518
asbasbasbag68
(g84
g70
NtRp3519
(dp3520
g73
(dp3521
sg82
g3449
sg75
(lp3522
g68
(g89
g70
NtRp3523
(dp3524
g73
(dp3525
g93
g94
ssg82
g3519
sg75
(lp3526
S'last_name'
p3527
asbag68
(g89
g70
NtRp3528
(dp3529
g73
(dp3530
g100
g101
ssg82
g3519
sg75
(lp3531
S':'
asbag68
(g89
g70
NtRp3532
(dp3533
g73
(dp3534
sg82
g3519
sg75
(lp3535
g68
(g69
g70
NtRp3536
(dp3537
g73
(dp3538
g81
I3
ssg82
g3532
sg75
(lp3539
S'mishra'
p3540
asbasbasbag68
(g84
g70
NtRp3541
(dp3542
g73
(dp3543
sg82
g3449
sg75
(lp3544
g68
(g89
g70
NtRp3545
(dp3546
g73
(dp3547
g93
g94
ssg82
g3541
sg75
(lp3548
S'registration_id'
p3549
asbag68
(g89
g70
NtRp3550
(dp3551
g73
(dp3552
g100
g101
ssg82
g3541
sg75
(lp3553
S':'
asbag68
(g89
g70
NtRp3554
(dp3555
g73
(dp3556
sg82
g3541
sg75
(lp3557
g68
(g69
g70
NtRp3558
(dp3559
g73
(dp3560
g81
I3
ssg82
g3554
sg75
(lp3561
S''
asbasbasbag68
(g84
g70
NtRp3562
(dp3563
g73
(dp3564
sg82
g3449
sg75
(lp3565
g68
(g89
g70
NtRp3566
(dp3567
g73
(dp3568
g93
g94
ssg82
g3562
sg75
(lp3569
S'registration_key'
p3570
asbag68
(g89
g70
NtRp3571
(dp3572
g73
(dp3573
g100
g101
ssg82
g3562
sg75
(lp3574
S':'
asbag68
(g89
g70
NtRp3575
(dp3576
g73
(dp3577
sg82
g3562
sg75
(lp3578
g68
(g69
g70
NtRp3579
(dp3580
g73
(dp3581
g81
I3
ssg82
g3575
sg75
(lp3582
S''
asbasbasbag68
(g84
g70
NtRp3583
(dp3584
g73
(dp3585
sg82
g3449
sg75
(lp3586
g68
(g89
g70
NtRp3587
(dp3588
g73
(dp3589
g93
g94
ssg82
g3583
sg75
(lp3590
S'reset_password_key'
p3591
asbag68
(g89
g70
NtRp3592
(dp3593
g73
(dp3594
g100
g101
ssg82
g3583
sg75
(lp3595
S':'
asbag68
(g89
g70
NtRp3596
(dp3597
g73
(dp3598
sg82
g3583
sg75
(lp3599
g68
(g69
g70
NtRp3600
(dp3601
g73
(dp3602
g81
I3
ssg82
g3596
sg75
(lp3603
S''
asbasbasbasbasbasbasbag68
(g84
g70
NtRp3604
(dp3605
g73
(dp3606
sg82
g3337
sg75
(lp3607
g68
(g89
g70
NtRp3608
(dp3609
g73
(dp3610
g93
g94
ssg82
g3604
sg75
(lp3611
S'user_groups'
p3612
asbag68
(g89
g70
NtRp3613
(dp3614
g73
(dp3615
g100
g101
ssg82
g3604
sg75
(lp3616
S':'
asbag68
(g89
g70
NtRp3617
(dp3618
g73
(dp3619
sg82
g3604
sg75
(lp3620
g68
(g69
g70
NtRp3621
(dp3622
g73
(dp3623
g81
I4
ssg82
g3617
sg75
(lp3624
g68
(g77
g70
NtRp3625
(dp3626
g73
(dp3627
g81
I3
ssg82
Nsg75
(lp3628
g68
(g84
g70
NtRp3629
(dp3630
g73
(dp3631
sg82
g3625
sg75
(lp3632
g68
(g89
g70
NtRp3633
(dp3634
g73
(dp3635
g93
g94
ssg82
g3629
sg75
(lp3636
S'34'
p3637
asbag68
(g89
g70
NtRp3638
(dp3639
g73
(dp3640
g100
g101
ssg82
g3629
sg75
(lp3641
S':'
asbag68
(g89
g70
NtRp3642
(dp3643
g73
(dp3644
sg82
g3629
sg75
(lp3645
g68
(g69
g70
NtRp3646
(dp3647
g73
(dp3648
g81
I3
ssg82
g3642
sg75
(lp3649
S'user_33'
p3650
asbasbasbasbasbasbasbasbasbasbasbag68
(g84
g70
NtRp3651
(dp3652
g73
(dp3653
sg82
g3312
sg75
(lp3654
g68
(g89
g70
NtRp3655
(dp3656
g73
(dp3657
g93
g94
ssg82
g3651
sg75
(lp3658
S'flash'
p3659
asbag68
(g89
g70
NtRp3660
(dp3661
g73
(dp3662
g100
g101
ssg82
g3651
sg75
(lp3663
S':'
asbag68
(g89
g70
NtRp3664
(dp3665
g73
(dp3666
sg82
g3651
sg75
(lp3667
g68
(g69
g70
NtRp3668
(dp3669
g73
(dp3670
g81
I5
ssg82
g3664
sg75
(lp3671
S'None'
p3672
asbasbasbag68
(g84
g70
NtRp3673
(dp3674
g73
(dp3675
sg82
g3312
sg75
(lp3676
g68
(g89
g70
NtRp3677
(dp3678
g73
(dp3679
g93
g94
ssg82
g3673
sg75
(lp3680
S'last_orderby'
p3681
asbag68
(g89
g70
NtRp3682
(dp3683
g73
(dp3684
g100
g101
ssg82
g3673
sg75
(lp3685
S':'
asbag68
(g89
g70
NtRp3686
(dp3687
g73
(dp3688
sg82
g3673
sg75
(lp3689
g68
(g69
g70
NtRp3690
(dp3691
g73
(dp3692
g81
I5
ssg82
g3686
sg75
(lp3693
S'None'
p3694
asbasbasbag68
(g84
g70
NtRp3695
(dp3696
g73
(dp3697
sg82
g3312
sg75
(lp3698
g68
(g89
g70
NtRp3699
(dp3700
g73
(dp3701
g93
g94
ssg82
g3695
sg75
(lp3702
S'last_query'
p3703
asbag68
(g89
g70
NtRp3704
(dp3705
g73
(dp3706
g100
g101
ssg82
g3695
sg75
(lp3707
S':'
asbag68
(g89
g70
NtRp3708
(dp3709
g73
(dp3710
sg82
g3695
sg75
(lp3711
g68
(g69
g70
NtRp3712
(dp3713
g73
(dp3714
g81
I5
ssg82
g3708
sg75
(lp3715
S'db.times.id>0'
p3716
asbasbasbasbasbsS'etype'
p3717
S"<type 'exceptions.SyntaxError'>"
p3718
sS'date'
p3719
S'Sun Apr 14 19:31:06 2013'
p3720
sS'response'
p3721
g68
(g69
g70
NtRp3722
(dp3723
g73
(dp3724
sg75
(lp3725
g68
(g77
g70
NtRp3726
(dp3727
g73
(dp3728
g81
I5
ssg82
Nsg75
(lp3729
g68
(g84
g70
NtRp3730
(dp3731
g73
(dp3732
sg82
g3726
sg75
(lp3733
g68
(g89
g70
NtRp3734
(dp3735
g73
(dp3736
g93
g94
ssg82
g3730
sg75
(lp3737
g166
asbag68
(g89
g70
NtRp3738
(dp3739
g73
(dp3740
g100
g101
ssg82
g3730
sg75
(lp3741
S':'
asbag68
(g89
g70
NtRp3742
(dp3743
g73
(dp3744
sg82
g3730
sg75
(lp3745
g68
(g69
g70
NtRp3746
(dp3747
g73
(dp3748
g81
I5
ssg82
g3742
sg75
(lp3749
S'<cStringIO.StringO object at 0xadc64020>'
p3750
asbasbasbag68
(g84
g70
NtRp3751
(dp3752
g73
(dp3753
sg82
g3726
sg75
(lp3754
g68
(g89
g70
NtRp3755
(dp3756
g73
(dp3757
g93
g94
ssg82
g3751
sg75
(lp3758
g254
asbag68
(g89
g70
NtRp3759
(dp3760
g73
(dp3761
g100
g101
ssg82
g3751
sg75
(lp3762
S':'
asbag68
(g89
g70
NtRp3763
(dp3764
g73
(dp3765
sg82
g3751
sg75
(lp3766
g68
(g69
g70
NtRp3767
(dp3768
g73
(dp3769
g81
I5
ssg82
g3763
sg75
(lp3770
g68
(g77
g70
NtRp3771
(dp3772
g73
(dp3773
g81
I4
ssg82
Nsg75
(lp3774
g68
(g84
g70
NtRp3775
(dp3776
g73
(dp3777
sg82
g3771
sg75
(lp3778
g68
(g89
g70
NtRp3779
(dp3780
g73
(dp3781
g93
g94
ssg82
g3775
sg75
(lp3782
S'session_id_onlineexamination'
p3783
asbag68
(g89
g70
NtRp3784
(dp3785
g73
(dp3786
g100
g101
ssg82
g3775
sg75
(lp3787
S':'
asbag68
(g89
g70
NtRp3788
(dp3789
g73
(dp3790
sg82
g3775
sg75
(lp3791
g68
(g69
g70
NtRp3792
(dp3793
g73
(dp3794
g81
I4
ssg82
g3788
sg75
(lp3795
g486
ag68
(g77
g70
NtRp3796
(dp3797
g73
(dp3798
g81
I3
ssg82
Nsg75
(lp3799
g68
(g84
g70
NtRp3800
(dp3801
g73
(dp3802
sg82
g3796
sg75
(lp3803
g68
(g89
g70
NtRp3804
(dp3805
g73
(dp3806
g93
g94
ssg82
g3800
sg75
(lp3807
g305
asbag68
(g89
g70
NtRp3808
(dp3809
g73
(dp3810
g100
g101
ssg82
g3800
sg75
(lp3811
S':'
asbag68
(g89
g70
NtRp3812
(dp3813
g73
(dp3814
sg82
g3800
sg75
(lp3815
g68
(g69
g70
NtRp3816
(dp3817
g73
(dp3818
g81
I3
ssg82
g3812
sg75
(lp3819
S''
asbasbasbag68
(g84
g70
NtRp3820
(dp3821
g73
(dp3822
sg82
g3796
sg75
(lp3823
g68
(g89
g70
NtRp3824
(dp3825
g73
(dp3826
g93
g94
ssg82
g3820
sg75
(lp3827
g326
asbag68
(g89
g70
NtRp3828
(dp3829
g73
(dp3830
g100
g101
ssg82
g3820
sg75
(lp3831
S':'
asbag68
(g89
g70
NtRp3832
(dp3833
g73
(dp3834
sg82
g3820
sg75
(lp3835
g68
(g69
g70
NtRp3836
(dp3837
g73
(dp3838
g81
I3
ssg82
g3832
sg75
(lp3839
S''
asbasbasbag68
(g84
g70
NtRp3840
(dp3841
g73
(dp3842
sg82
g3796
sg75
(lp3843
g68
(g89
g70
NtRp3844
(dp3845
g73
(dp3846
g93
g94
ssg82
g3840
sg75
(lp3847
g347
asbag68
(g89
g70
NtRp3848
(dp3849
g73
(dp3850
g100
g101
ssg82
g3840
sg75
(lp3851
S':'
asbag68
(g89
g70
NtRp3852
(dp3853
g73
(dp3854
sg82
g3840
sg75
(lp3855
g68
(g69
g70
NtRp3856
(dp3857
g73
(dp3858
g81
I3
ssg82
g3852
sg75
(lp3859
S''
asbasbasbag68
(g84
g70
NtRp3860
(dp3861
g73
(dp3862
sg82
g3796
sg75
(lp3863
g68
(g89
g70
NtRp3864
(dp3865
g73
(dp3866
g93
g94
ssg82
g3860
sg75
(lp3867
g368
asbag68
(g89
g70
NtRp3868
(dp3869
g73
(dp3870
g100
g101
ssg82
g3860
sg75
(lp3871
S':'
asbag68
(g89
g70
NtRp3872
(dp3873
g73
(dp3874
sg82
g3860
sg75
(lp3875
g68
(g69
g70
NtRp3876
(dp3877
g73
(dp3878
g81
I3
ssg82
g3872
sg75
(lp3879
S''
asbasbasbag68
(g84
g70
NtRp3880
(dp3881
g73
(dp3882
sg82
g3796
sg75
(lp3883
g68
(g89
g70
NtRp3884
(dp3885
g73
(dp3886
g93
g94
ssg82
g3880
sg75
(lp3887
g389
asbag68
(g89
g70
NtRp3888
(dp3889
g73
(dp3890
g100
g101
ssg82
g3880
sg75
(lp3891
S':'
asbag68
(g89
g70
NtRp3892
(dp3893
g73
(dp3894
sg82
g3880
sg75
(lp3895
g68
(g69
g70
NtRp3896
(dp3897
g73
(dp3898
g81
I3
ssg82
g3892
sg75
(lp3899
S''
asbasbasbag68
(g84
g70
NtRp3900
(dp3901
g73
(dp3902
sg82
g3796
sg75
(lp3903
g68
(g89
g70
NtRp3904
(dp3905
g73
(dp3906
g93
g94
ssg82
g3900
sg75
(lp3907
g410
asbag68
(g89
g70
NtRp3908
(dp3909
g73
(dp3910
g100
g101
ssg82
g3900
sg75
(lp3911
S':'
asbag68
(g89
g70
NtRp3912
(dp3913
g73
(dp3914
sg82
g3900
sg75
(lp3915
g68
(g69
g70
NtRp3916
(dp3917
g73
(dp3918
g81
I3
ssg82
g3912
sg75
(lp3919
S'/'
asbasbasbag68
(g84
g70
NtRp3920
(dp3921
g73
(dp3922
sg82
g3796
sg75
(lp3923
g68
(g89
g70
NtRp3924
(dp3925
g73
(dp3926
g93
g94
ssg82
g3920
sg75
(lp3927
g431
asbag68
(g89
g70
NtRp3928
(dp3929
g73
(dp3930
g100
g101
ssg82
g3920
sg75
(lp3931
S':'
asbag68
(g89
g70
NtRp3932
(dp3933
g73
(dp3934
sg82
g3920
sg75
(lp3935
g68
(g69
g70
NtRp3936
(dp3937
g73
(dp3938
g81
I3
ssg82
g3932
sg75
(lp3939
S''
asbasbasbag68
(g84
g70
NtRp3940
(dp3941
g73
(dp3942
sg82
g3796
sg75
(lp3943
g68
(g89
g70
NtRp3944
(dp3945
g73
(dp3946
g93
g94
ssg82
g3940
sg75
(lp3947
g452
asbag68
(g89
g70
NtRp3948
(dp3949
g73
(dp3950
g100
g101
ssg82
g3940
sg75
(lp3951
S':'
asbag68
(g89
g70
NtRp3952
(dp3953
g73
(dp3954
sg82
g3940
sg75
(lp3955
g68
(g69
g70
NtRp3956
(dp3957
g73
(dp3958
g81
I3
ssg82
g3952
sg75
(lp3959
S''
asbasbasbasbasbasbasbasbasbasbasbag68
(g84
g70
NtRp3960
(dp3961
g73
(dp3962
sg82
g3726
sg75
(lp3963
g68
(g89
g70
NtRp3964
(dp3965
g73
(dp3966
g93
g94
ssg82
g3960
sg75
(lp3967
S'delimiters'
p3968
asbag68
(g89
g70
NtRp3969
(dp3970
g73
(dp3971
g100
g101
ssg82
g3960
sg75
(lp3972
S':'
asbag68
(g89
g70
NtRp3973
(dp3974
g73
(dp3975
sg82
g3960
sg75
(lp3976
g68
(g69
g70
NtRp3977
(dp3978
g73
(dp3979
g81
I5
ssg82
g3973
sg75
(lp3980
g68
(g77
g70
NtRp3981
(dp3982
g73
(dp3983
g81
I4
ssg82
Nsg75
(lp3984
g68
(g84
g70
NtRp3985
(dp3986
g73
(dp3987
sg82
g3981
sg75
(lp3988
g68
(g89
g70
NtRp3989
(dp3990
g73
(dp3991
sg82
g3985
sg75
(lp3992
g68
(g69
g70
NtRp3993
(dp3994
g73
(dp3995
g81
I4
ssg82
g3989
sg75
(lp3996
S'{{'
p3997
asbasbasbag68
(g84
g70
NtRp3998
(dp3999
g73
(dp4000
sg82
g3981
sg75
(lp4001
g68
(g89
g70
NtRp4002
(dp4003
g73
(dp4004
sg82
g3998
sg75
(lp4005
g68
(g69
g70
NtRp4006
(dp4007
g73
(dp4008
g81
I4
ssg82
g4002
sg75
(lp4009
S'}}'
p4010
asbasbasbasbasbasbasbag68
(g84
g70
NtRp4011
(dp4012
g73
(dp4013
sg82
g3726
sg75
(lp4014
g68
(g89
g70
NtRp4015
(dp4016
g73
(dp4017
g93
g94
ssg82
g4011
sg75
(lp4018
S'files'
p4019
asbag68
(g89
g70
NtRp4020
(dp4021
g73
(dp4022
g100
g101
ssg82
g4011
sg75
(lp4023
S':'
asbag68
(g89
g70
NtRp4024
(dp4025
g73
(dp4026
sg82
g4011
sg75
(lp4027
g68
(g69
g70
NtRp4028
(dp4029
g73
(dp4030
g81
I5
ssg82
g4024
sg75
(lp4031
g68
(g77
g70
NtRp4032
(dp4033
g73
(dp4034
g81
I4
ssg82
Nsg75
(lp4035
sbasbasbasbag68
(g84
g70
NtRp4036
(dp4037
g73
(dp4038
sg82
g3726
sg75
(lp4039
g68
(g89
g70
NtRp4040
(dp4041
g73
(dp4042
g93
g94
ssg82
g4036
sg75
(lp4043
S'flash'
p4044
asbag68
(g89
g70
NtRp4045
(dp4046
g73
(dp4047
g100
g101
ssg82
g4036
sg75
(lp4048
S':'
asbag68
(g89
g70
NtRp4049
(dp4050
g73
(dp4051
sg82
g4036
sg75
(lp4052
g68
(g69
g70
NtRp4053
(dp4054
g73
(dp4055
g81
I5
ssg82
g4049
sg75
(lp4056
S''
asbasbasbag68
(g84
g70
NtRp4057
(dp4058
g73
(dp4059
sg82
g3726
sg75
(lp4060
g68
(g89
g70
NtRp4061
(dp4062
g73
(dp4063
g93
g94
ssg82
g4057
sg75
(lp4064
S'generic_patterns'
p4065
asbag68
(g89
g70
NtRp4066
(dp4067
g73
(dp4068
g100
g101
ssg82
g4057
sg75
(lp4069
S':'
asbag68
(g89
g70
NtRp4070
(dp4071
g73
(dp4072
sg82
g4057
sg75
(lp4073
g68
(g69
g70
NtRp4074
(dp4075
g73
(dp4076
g81
I5
ssg82
g4070
sg75
(lp4077
g68
(g77
g70
NtRp4078
(dp4079
g73
(dp4080
g81
I4
ssg82
Nsg75
(lp4081
g68
(g84
g70
NtRp4082
(dp4083
g73
(dp4084
sg82
g4078
sg75
(lp4085
g68
(g89
g70
NtRp4086
(dp4087
g73
(dp4088
sg82
g4082
sg75
(lp4089
g68
(g69
g70
NtRp4090
(dp4091
g73
(dp4092
g81
I4
ssg82
g4086
sg75
(lp4093
S'*'
asbasbasbasbasbasbasbag68
(g84
g70
NtRp4094
(dp4095
g73
(dp4096
sg82
g3726
sg75
(lp4097
g68
(g89
g70
NtRp4098
(dp4099
g73
(dp4100
g93
g94
ssg82
g4094
sg75
(lp4101
S'google_analytics_id'
p4102
asbag68
(g89
g70
NtRp4103
(dp4104
g73
(dp4105
g100
g101
ssg82
g4094
sg75
(lp4106
S':'
asbag68
(g89
g70
NtRp4107
(dp4108
g73
(dp4109
sg82
g4094
sg75
(lp4110
g68
(g69
g70
NtRp4111
(dp4112
g73
(dp4113
g81
I5
ssg82
g4107
sg75
(lp4114
S'None'
p4115
asbasbasbag68
(g84
g70
NtRp4116
(dp4117
g73
(dp4118
sg82
g3726
sg75
(lp4119
g68
(g89
g70
NtRp4120
(dp4121
g73
(dp4122
g93
g94
ssg82
g4116
sg75
(lp4123
S'headers'
p4124
asbag68
(g89
g70
NtRp4125
(dp4126
g73
(dp4127
g100
g101
ssg82
g4116
sg75
(lp4128
S':'
asbag68
(g89
g70
NtRp4129
(dp4130
g73
(dp4131
sg82
g4116
sg75
(lp4132
g68
(g69
g70
NtRp4133
(dp4134
g73
(dp4135
g81
I5
ssg82
g4129
sg75
(lp4136
g68
(g77
g70
NtRp4137
(dp4138
g73
(dp4139
g81
I4
ssg82
Nsg75
(lp4140
g68
(g84
g70
NtRp4141
(dp4142
g73
(dp4143
sg82
g4137
sg75
(lp4144
g68
(g89
g70
NtRp4145
(dp4146
g73
(dp4147
g93
g94
ssg82
g4141
sg75
(lp4148
S'X-Powered-By'
p4149
asbag68
(g89
g70
NtRp4150
(dp4151
g73
(dp4152
g100
g101
ssg82
g4141
sg75
(lp4153
S':'
asbag68
(g89
g70
NtRp4154
(dp4155
g73
(dp4156
sg82
g4141
sg75
(lp4157
g68
(g69
g70
NtRp4158
(dp4159
g73
(dp4160
g81
I4
ssg82
g4154
sg75
(lp4161
S'web2py'
p4162
asbasbasbasbasbasbasbag68
(g84
g70
NtRp4163
(dp4164
g73
(dp4165
sg82
g3726
sg75
(lp4166
g68
(g89
g70
NtRp4167
(dp4168
g73
(dp4169
g93
g94
ssg82
g4163
sg75
(lp4170
S'logo'
p4171
asbag68
(g89
g70
NtRp4172
(dp4173
g73
(dp4174
g100
g101
ssg82
g4163
sg75
(lp4175
S':'
asbag68
(g89
g70
NtRp4176
(dp4177
g73
(dp4178
sg82
g4163
sg75
(lp4179
g68
(g69
g70
NtRp4180
(dp4181
g73
(dp4182
g81
I5
ssg82
g4176
sg75
(lp4183
g68
(cgluon.html
A
p4184
g70
NtRp4185
(dp4186
g73
(dp4187
S'_class'
p4188
S'brand'
p4189
sS'_href'
p4190
S'http://www.web2py.com/'
p4191
ssg82
Nsg75
(lp4192
g68
(cgluon.html
B
p4193
g70
NtRp4194
(dp4195
g73
(dp4196
sg82
g4185
sg75
(lp4197
S'web'
p4198
ag68
(cgluon.html
SPAN
p4199
g70
NtRp4200
(dp4201
g73
(dp4202
sg82
g4194
sg75
(lp4203
I2
asbaS'py'
p4204
asbacgluon.html
XML_unpickle
p4205
(S's\r\x00\x00\x00&trade;&nbsp;'
tRp4206
asbasbasbasbag68
(g84
g70
NtRp4207
(dp4208
g73
(dp4209
sg82
g3726
sg75
(lp4210
g68
(g89
g70
NtRp4211
(dp4212
g73
(dp4213
g93
g94
ssg82
g4207
sg75
(lp4214
S'menu'
p4215
asbag68
(g89
g70
NtRp4216
(dp4217
g73
(dp4218
g100
g101
ssg82
g4207
sg75
(lp4219
S':'
asbag68
(g89
g70
NtRp4220
(dp4221
g73
(dp4222
sg82
g4207
sg75
(lp4223
g68
(g69
g70
NtRp4224
(dp4225
g73
(dp4226
g81
I5
ssg82
g4220
sg75
(lp4227
g68
(g77
g70
NtRp4228
(dp4229
g73
(dp4230
g81
I4
ssg82
Nsg75
(lp4231
g68
(g84
g70
NtRp4232
(dp4233
g73
(dp4234
sg82
g4228
sg75
(lp4235
g68
(g89
g70
NtRp4236
(dp4237
g73
(dp4238
sg82
g4232
sg75
(lp4239
g68
(g69
g70
NtRp4240
(dp4241
g73
(dp4242
g81
I4
ssg82
g4236
sg75
(lp4243
g68
(g77
g70
NtRp4244
(dp4245
g73
(dp4246
g81
I3
ssg82
Nsg75
(lp4247
g68
(g84
g70
NtRp4248
(dp4249
g73
(dp4250
sg82
g4244
sg75
(lp4251
g68
(g89
g70
NtRp4252
(dp4253
g73
(dp4254
sg82
g4248
sg75
(lp4255
g68
(g69
g70
NtRp4256
(dp4257
g73
(dp4258
g81
I3
ssg82
g4252
sg75
(lp4259
cgluon.languages
lazyT_unpickle
p4260
(S's\x04\x00\x00\x00Home'
tRp4261
asbasbasbag68
(g84
g70
NtRp4262
(dp4263
g73
(dp4264
sg82
g4244
sg75
(lp4265
g68
(g89
g70
NtRp4266
(dp4267
g73
(dp4268
sg82
g4262
sg75
(lp4269
g68
(g69
g70
NtRp4270
(dp4271
g73
(dp4272
g81
I3
ssg82
g4266
sg75
(lp4273
g111
asbasbasbag68
(g84
g70
NtRp4274
(dp4275
g73
(dp4276
sg82
g4244
sg75
(lp4277
g68
(g89
g70
NtRp4278
(dp4279
g73
(dp4280
sg82
g4274
sg75
(lp4281
g68
(g69
g70
NtRp4282
(dp4283
g73
(dp4284
g81
I3
ssg82
g4278
sg75
(lp4285
S'/OnlineExamination/default/index'
p4286
asbasbasbag68
(g84
g70
NtRp4287
(dp4288
g73
(dp4289
sg82
g4244
sg75
(lp4290
g68
(g89
g70
NtRp4291
(dp4292
g73
(dp4293
sg82
g4287
sg75
(lp4294
g68
(g69
g70
NtRp4295
(dp4296
g73
(dp4297
g81
I3
ssg82
g4291
sg75
(lp4298
g68
(g77
g70
NtRp4299
(dp4300
g73
(dp4301
g81
I2
ssg82
Nsg75
(lp4302
sbasbasbasbasbasbasbasbag68
(g84
g70
NtRp4303
(dp4304
g73
(dp4305
sg82
g4228
sg75
(lp4306
g68
(g89
g70
NtRp4307
(dp4308
g73
(dp4309
sg82
g4303
sg75
(lp4310
g68
(g69
g70
NtRp4311
(dp4312
g73
(dp4313
g81
I4
ssg82
g4307
sg75
(lp4314
g68
(g77
g70
NtRp4315
(dp4316
g73
(dp4317
g81
I3
ssg82
Nsg75
(lp4318
g68
(g84
g70
NtRp4319
(dp4320
g73
(dp4321
sg82
g4315
sg75
(lp4322
g68
(g89
g70
NtRp4323
(dp4324
g73
(dp4325
sg82
g4319
sg75
(lp4326
g68
(g69
g70
NtRp4327
(dp4328
g73
(dp4329
g81
I3
ssg82
g4323
sg75
(lp4330
g68
(g4199
g70
NtRp4331
(dp4332
g73
(dp4333
g4188
S'highlighted'
p4334
ssg82
Nsg75
(lp4335
g4162
asbasbasbasbag68
(g84
g70
NtRp4336
(dp4337
g73
(dp4338
sg82
g4315
sg75
(lp4339
g68
(g89
g70
NtRp4340
(dp4341
g73
(dp4342
sg82
g4336
sg75
(lp4343
g68
(g69
g70
NtRp4344
(dp4345
g73
(dp4346
g81
I3
ssg82
g4340
sg75
(lp4347
g111
asbasbasbag68
(g84
g70
NtRp4348
(dp4349
g73
(dp4350
sg82
g4315
sg75
(lp4351
g68
(g89
g70
NtRp4352
(dp4353
g73
(dp4354
sg82
g4348
sg75
(lp4355
g68
(g69
g70
NtRp4356
(dp4357
g73
(dp4358
g81
I3
ssg82
g4352
sg75
(lp4359
S'http://web2py.com'
p4360
asbasbasbag68
(g84
g70
NtRp4361
(dp4362
g73
(dp4363
sg82
g4315
sg75
(lp4364
g68
(g89
g70
NtRp4365
(dp4366
g73
(dp4367
sg82
g4361
sg75
(lp4368
g68
(g69
g70
NtRp4369
(dp4370
g73
(dp4371
g81
I3
ssg82
g4365
sg75
(lp4372
g68
(g77
g70
NtRp4373
(dp4374
g73
(dp4375
g81
I2
ssg82
Nsg75
(lp4376
g68
(g84
g70
NtRp4377
(dp4378
g73
(dp4379
sg82
g4373
sg75
(lp4380
g68
(g89
g70
NtRp4381
(dp4382
g73
(dp4383
sg82
g4377
sg75
(lp4384
g68
(g69
g70
NtRp4385
(dp4386
g73
(dp4387
g81
I2
ssg82
g4381
sg75
(lp4388
g68
(g77
g70
NtRp4389
(dp4390
g73
(dp4391
g81
I1
ssg82
Nsg75
(lp4392
g68
(g84
g70
NtRp4393
(dp4394
g73
(dp4395
sg82
g4389
sg75
(lp4396
g68
(g89
g70
NtRp4397
(dp4398
g73
(dp4399
sg82
g4393
sg75
(lp4400
g68
(g69
g70
NtRp4401
(dp4402
g73
(dp4403
g81
I1
ssg82
g4397
sg75
(lp4404
g4260
(S's\x08\x00\x00\x00My Sites'
tRp4405
asbasbasbag68
(g84
g70
NtRp4406
(dp4407
g73
(dp4408
sg82
g4389
sg75
(lp4409
g68
(g89
g70
NtRp4410
(dp4411
g73
(dp4412
sg82
g4406
sg75
(lp4413
g68
(g69
g70
NtRp4414
(dp4415
g73
(dp4416
g81
I1
ssg82
g4410
sg75
(lp4417
I00
asbasbasbag68
(g84
g70
NtRp4418
(dp4419
g73
(dp4420
sg82
g4389
sg75
(lp4421
g68
(g89
g70
NtRp4422
(dp4423
g73
(dp4424
sg82
g4418
sg75
(lp4425
g68
(g69
g70
NtRp4426
(dp4427
g73
(dp4428
g81
I1
ssg82
g4422
sg75
(lp4429
S'/admin/default/site'
p4430
asbasbasbasbasbasbasbag68
(g84
g70
NtRp4431
(dp4432
g73
(dp4433
sg82
g4373
sg75
(lp4434
g68
(g89
g70
NtRp4435
(dp4436
g73
(dp4437
sg82
g4431
sg75
(lp4438
g68
(g69
g70
NtRp4439
(dp4440
g73
(dp4441
g81
I2
ssg82
g4435
sg75
(lp4442
g68
(g77
g70
NtRp4443
(dp4444
g73
(dp4445
g81
I1
ssg82
Nsg75
(lp4446
g68
(g84
g70
NtRp4447
(dp4448
g73
(dp4449
sg82
g4443
sg75
(lp4450
g68
(g89
g70
NtRp4451
(dp4452
g73
(dp4453
sg82
g4447
sg75
(lp4454
g68
(g69
g70
NtRp4455
(dp4456
g73
(dp4457
g81
I1
ssg82
g4451
sg75
(lp4458
g4260
(S's\x08\x00\x00\x00This App'
tRp4459
asbasbasbag68
(g84
g70
NtRp4460
(dp4461
g73
(dp4462
sg82
g4443
sg75
(lp4463
g68
(g89
g70
NtRp4464
(dp4465
g73
(dp4466
sg82
g4460
sg75
(lp4467
g68
(g69
g70
NtRp4468
(dp4469
g73
(dp4470
g81
I1
ssg82
g4464
sg75
(lp4471
I00
asbasbasbag68
(g84
g70
NtRp4472
(dp4473
g73
(dp4474
sg82
g4443
sg75
(lp4475
g68
(g89
g70
NtRp4476
(dp4477
g73
(dp4478
sg82
g4472
sg75
(lp4479
g68
(g69
g70
NtRp4480
(dp4481
g73
(dp4482
g81
I1
ssg82
g4476
sg75
(lp4483
S'/admin/default/design/OnlineExamination'
p4484
asbasbasbag68
(g84
g70
NtRp4485
(dp4486
g73
(dp4487
sg82
g4443
sg75
(lp4488
g68
(g89
g70
NtRp4489
(dp4490
g73
(dp4491
sg82
g4485
sg75
(lp4492
g68
(g69
g70
NtRp4493
(dp4494
g73
(dp4495
g81
I1
ssg82
g4489
sg75
(lp4496
(lp4497
(g4260
(S's\n\x00\x00\x00Controller'
tRp4498
I00
S'/admin/default/edit/OnlineExamination/controllers/default.py'
tp4499
a(g4260
(S's\x04\x00\x00\x00View'
tRp4500
I00
S'/admin/default/edit/OnlineExamination/views/default/exam.html'
tp4501
a(g4260
(S's\x06\x00\x00\x00Layout'
tRp4502
I00
S'/admin/default/edit/OnlineExamination/views/layout.html'
tp4503
a(g4260
(S's\n\x00\x00\x00Stylesheet'
tRp4504
I00
S'/admin/default/edit/OnlineExamination/static/css/web2py.css'
tp4505
a(g4260
(S's\x08\x00\x00\x00DB Model'
tRp4506
I00
S'/admin/default/edit/OnlineExamination/models/db.py'
tp4507
a(g4260
(S's\n\x00\x00\x00Menu Model'
tRp4508
I00
S'/admin/default/edit/OnlineExamination/models/menu.py'
tp4509
a(g4260
(S's\x08\x00\x00\x00Database'
tRp4510
I00
S'/OnlineExamination/appadmin/index'
tp4511
a(g4260
(S's\x06\x00\x00\x00Errors'
tRp4512
I00
S'/admin/default/errors/OnlineExamination'
tp4513
a(g4260
(S's\x05\x00\x00\x00About'
tRp4514
I00
S'/admin/default/about/OnlineExamination'
tp4515
aasbasbasbasbasbasbasbag68
(g84
g70
NtRp4516
(dp4517
g73
(dp4518
sg82
g4373
sg75
(lp4519
g68
(g89
g70
NtRp4520
(dp4521
g73
(dp4522
sg82
g4516
sg75
(lp4523
g68
(g69
g70
NtRp4524
(dp4525
g73
(dp4526
g81
I2
ssg82
g4520
sg75
(lp4527
g68
(g77
g70
NtRp4528
(dp4529
g73
(dp4530
g81
I1
ssg82
Nsg75
(lp4531
g68
(g84
g70
NtRp4532
(dp4533
g73
(dp4534
sg82
g4528
sg75
(lp4535
g68
(g89
g70
NtRp4536
(dp4537
g73
(dp4538
sg82
g4532
sg75
(lp4539
g68
(g69
g70
NtRp4540
(dp4541
g73
(dp4542
g81
I1
ssg82
g4536
sg75
(lp4543
S'web2py.com'
p4544
asbasbasbag68
(g84
g70
NtRp4545
(dp4546
g73
(dp4547
sg82
g4528
sg75
(lp4548
g68
(g89
g70
NtRp4549
(dp4550
g73
(dp4551
sg82
g4545
sg75
(lp4552
g68
(g69
g70
NtRp4553
(dp4554
g73
(dp4555
g81
I1
ssg82
g4549
sg75
(lp4556
I00
asbasbasbag68
(g84
g70
NtRp4557
(dp4558
g73
(dp4559
sg82
g4528
sg75
(lp4560
g68
(g89
g70
NtRp4561
(dp4562
g73
(dp4563
sg82
g4557
sg75
(lp4564
g68
(g69
g70
NtRp4565
(dp4566
g73
(dp4567
g81
I1
ssg82
g4561
sg75
(lp4568
S'http://www.web2py.com'
p4569
asbasbasbag68
(g84
g70
NtRp4570
(dp4571
g73
(dp4572
sg82
g4528
sg75
(lp4573
g68
(g89
g70
NtRp4574
(dp4575
g73
(dp4576
sg82
g4570
sg75
(lp4577
g68
(g69
g70
NtRp4578
(dp4579
g73
(dp4580
g81
I1
ssg82
g4574
sg75
(lp4581
(lp4582
(g4260
(S's\x08\x00\x00\x00Download'
tRp4583
I00
S'http://www.web2py.com/examples/default/download'
p4584
tp4585
a(g4260
(S's\x07\x00\x00\x00Support'
tRp4586
I00
S'http://www.web2py.com/examples/default/support'
p4587
tp4588
a(g4260
(S's\x04\x00\x00\x00Demo'
tRp4589
I00
S'http://web2py.com/demo_admin'
p4590
tp4591
a(g4260
(S's\x0e\x00\x00\x00Quick Examples'
tRp4592
I00
S'http://web2py.com/examples/default/examples'
p4593
tp4594
a(g4260
(S's\x03\x00\x00\x00FAQ'
tRp4595
I00
S'http://web2py.com/AlterEgo'
p4596
tp4597
a(g4260
(S's\x06\x00\x00\x00Videos'
tRp4598
I00
S'http://www.web2py.com/examples/default/videos/'
p4599
tp4600
a(g4260
(S's\x11\x00\x00\x00Free Applications'
tRp4601
I00
S'http://web2py.com/appliances'
p4602
tp4603
a(g4260
(S's\x07\x00\x00\x00Plugins'
tRp4604
I00
S'http://web2py.com/plugins'
p4605
tp4606
a(g4260
(S's\x07\x00\x00\x00Layouts'
tRp4607
I00
S'http://web2py.com/layouts'
p4608
tp4609
a(g4260
(S's\x07\x00\x00\x00Recipes'
tRp4610
I00
S'http://web2pyslices.com/'
p4611
tp4612
a(g4260
(S's\x08\x00\x00\x00Semantic'
tRp4613
I00
S'http://web2py.com/semantic'
p4614
tp4615
aasbasbasbasbasbasbasbag68
(g84
g70
NtRp4616
(dp4617
g73
(dp4618
sg82
g4373
sg75
(lp4619
g68
(g89
g70
NtRp4620
(dp4621
g73
(dp4622
sg82
g4616
sg75
(lp4623
g68
(g69
g70
NtRp4624
(dp4625
g73
(dp4626
g81
I2
ssg82
g4620
sg75
(lp4627
g68
(g77
g70
NtRp4628
(dp4629
g73
(dp4630
g81
I1
ssg82
Nsg75
(lp4631
g68
(g84
g70
NtRp4632
(dp4633
g73
(dp4634
sg82
g4628
sg75
(lp4635
g68
(g89
g70
NtRp4636
(dp4637
g73
(dp4638
sg82
g4632
sg75
(lp4639
g68
(g69
g70
NtRp4640
(dp4641
g73
(dp4642
g81
I1
ssg82
g4636
sg75
(lp4643
g4260
(S's\r\x00\x00\x00Documentation'
tRp4644
asbasbasbag68
(g84
g70
NtRp4645
(dp4646
g73
(dp4647
sg82
g4628
sg75
(lp4648
g68
(g89
g70
NtRp4649
(dp4650
g73
(dp4651
sg82
g4645
sg75
(lp4652
g68
(g69
g70
NtRp4653
(dp4654
g73
(dp4655
g81
I1
ssg82
g4649
sg75
(lp4656
I00
asbasbasbag68
(g84
g70
NtRp4657
(dp4658
g73
(dp4659
sg82
g4628
sg75
(lp4660
g68
(g89
g70
NtRp4661
(dp4662
g73
(dp4663
sg82
g4657
sg75
(lp4664
g68
(g69
g70
NtRp4665
(dp4666
g73
(dp4667
g81
I1
ssg82
g4661
sg75
(lp4668
S'http://www.web2py.com/book'
p4669
asbasbasbag68
(g84
g70
NtRp4670
(dp4671
g73
(dp4672
sg82
g4628
sg75
(lp4673
g68
(g89
g70
NtRp4674
(dp4675
g73
(dp4676
sg82
g4670
sg75
(lp4677
g68
(g69
g70
NtRp4678
(dp4679
g73
(dp4680
g81
I1
ssg82
g4674
sg75
(lp4681
(lp4682
(g4260
(S's\x07\x00\x00\x00Preface'
tRp4683
I00
S'http://www.web2py.com/book/default/chapter/00'
p4684
tp4685
a(g4260
(S's\x0c\x00\x00\x00Introduction'
tRp4686
I00
S'http://www.web2py.com/book/default/chapter/01'
p4687
tp4688
a(g4260
(S's\x06\x00\x00\x00Python'
tRp4689
I00
S'http://www.web2py.com/book/default/chapter/02'
p4690
tp4691
a(g4260
(S's\x08\x00\x00\x00Overview'
tRp4692
I00
S'http://www.web2py.com/book/default/chapter/03'
p4693
tp4694
a(g4260
(S's\x08\x00\x00\x00The Core'
tRp4695
I00
S'http://www.web2py.com/book/default/chapter/04'
p4696
tp4697
a(g4260
(S's\t\x00\x00\x00The Views'
tRp4698
I00
S'http://www.web2py.com/book/default/chapter/05'
p4699
tp4700
a(g4260
(S's\x08\x00\x00\x00Database'
tRp4701
I00
S'http://www.web2py.com/book/default/chapter/06'
p4702
tp4703
a(g4260
(S's\x14\x00\x00\x00Forms and Validators'
tRp4704
I00
S'http://www.web2py.com/book/default/chapter/07'
p4705
tp4706
a(g4260
(S's\r\x00\x00\x00Email and SMS'
tRp4707
I00
S'http://www.web2py.com/book/default/chapter/08'
p4708
tp4709
a(g4260
(S's\x0e\x00\x00\x00Access Control'
tRp4710
I00
S'http://www.web2py.com/book/default/chapter/09'
p4711
tp4712
a(g4260
(S's\x08\x00\x00\x00Services'
tRp4713
I00
S'http://www.web2py.com/book/default/chapter/10'
p4714
tp4715
a(g4260
(S's\x0c\x00\x00\x00Ajax Recipes'
tRp4716
I00
S'http://www.web2py.com/book/default/chapter/11'
p4717
tp4718
a(g4260
(S's\x16\x00\x00\x00Components and Plugins'
tRp4719
I00
S'http://www.web2py.com/book/default/chapter/12'
p4720
tp4721
a(g4260
(S's\x12\x00\x00\x00Deployment Recipes'
tRp4722
I00
S'http://www.web2py.com/book/default/chapter/13'
p4723
tp4724
a(g4260
(S's\r\x00\x00\x00Other Recipes'
tRp4725
I00
S'http://www.web2py.com/book/default/chapter/14'
p4726
tp4727
a(g4260
(S's\r\x00\x00\x00Buy this book'
tRp4728
I00
S'http://stores.lulu.com/web2py'
p4729
tp4730
aasbasbasbasbasbasbasbag68
(g84
g70
NtRp4731
(dp4732
g73
(dp4733
sg82
g4373
sg75
(lp4734
g68
(g89
g70
NtRp4735
(dp4736
g73
(dp4737
sg82
g4731
sg75
(lp4738
g68
(g69
g70
NtRp4739
(dp4740
g73
(dp4741
g81
I2
ssg82
g4735
sg75
(lp4742
g68
(g77
g70
NtRp4743
(dp4744
g73
(dp4745
g81
I1
ssg82
Nsg75
(lp4746
g68
(g84
g70
NtRp4747
(dp4748
g73
(dp4749
sg82
g4743
sg75
(lp4750
g68
(g89
g70
NtRp4751
(dp4752
g73
(dp4753
sg82
g4747
sg75
(lp4754
g68
(g69
g70
NtRp4755
(dp4756
g73
(dp4757
g81
I1
ssg82
g4751
sg75
(lp4758
g4260
(S's\t\x00\x00\x00Community'
tRp4759
asbasbasbag68
(g84
g70
NtRp4760
(dp4761
g73
(dp4762
sg82
g4743
sg75
(lp4763
g68
(g89
g70
NtRp4764
(dp4765
g73
(dp4766
sg82
g4760
sg75
(lp4767
g68
(g69
g70
NtRp4768
(dp4769
g73
(dp4770
g81
I1
ssg82
g4764
sg75
(lp4771
I00
asbasbasbag68
(g84
g70
NtRp4772
(dp4773
g73
(dp4774
sg82
g4743
sg75
(lp4775
g68
(g89
g70
NtRp4776
(dp4777
g73
(dp4778
sg82
g4772
sg75
(lp4779
g68
(g69
g70
NtRp4780
(dp4781
g73
(dp4782
g81
I1
ssg82
g4776
sg75
(lp4783
Nasbasbasbag68
(g84
g70
NtRp4784
(dp4785
g73
(dp4786
sg82
g4743
sg75
(lp4787
g68
(g89
g70
NtRp4788
(dp4789
g73
(dp4790
sg82
g4784
sg75
(lp4791
g68
(g69
g70
NtRp4792
(dp4793
g73
(dp4794
g81
I1
ssg82
g4788
sg75
(lp4795
(lp4796
(g4260
(S's\x06\x00\x00\x00Groups'
tRp4797
I00
S'http://www.web2py.com/examples/default/usergroups'
p4798
tp4799
a(g4260
(S's\x07\x00\x00\x00Twitter'
tRp4800
I00
S'http://twitter.com/web2py'
p4801
tp4802
a(g4260
(S's\t\x00\x00\x00Live Chat'
tRp4803
I00
S'http://webchat.freenode.net/?channels=web2py'
p4804
tp4805
aasbasbasbasbasbasbasbag68
(g84
g70
NtRp4806
(dp4807
g73
(dp4808
sg82
g4373
sg75
(lp4809
g68
(g89
g70
NtRp4810
(dp4811
g73
(dp4812
sg82
g4806
sg75
(lp4813
g68
(g69
g70
NtRp4814
(dp4815
g73
(dp4816
g81
I2
ssg82
g4810
sg75
(lp4817
g68
(g77
g70
NtRp4818
(dp4819
g73
(dp4820
g81
I1
ssg82
Nsg75
(lp4821
g68
(g84
g70
NtRp4822
(dp4823
g73
(dp4824
sg82
g4818
sg75
(lp4825
g68
(g89
g70
NtRp4826
(dp4827
g73
(dp4828
sg82
g4822
sg75
(lp4829
g68
(g69
g70
NtRp4830
(dp4831
g73
(dp4832
g81
I1
ssg82
g4826
sg75
(lp4833
g4260
(S's\x07\x00\x00\x00Plugins'
tRp4834
asbasbasbag68
(g84
g70
NtRp4835
(dp4836
g73
(dp4837
sg82
g4818
sg75
(lp4838
g68
(g89
g70
NtRp4839
(dp4840
g73
(dp4841
sg82
g4835
sg75
(lp4842
g68
(g69
g70
NtRp4843
(dp4844
g73
(dp4845
g81
I1
ssg82
g4839
sg75
(lp4846
I00
asbasbasbag68
(g84
g70
NtRp4847
(dp4848
g73
(dp4849
sg82
g4818
sg75
(lp4850
g68
(g89
g70
NtRp4851
(dp4852
g73
(dp4853
sg82
g4847
sg75
(lp4854
g68
(g69
g70
NtRp4855
(dp4856
g73
(dp4857
g81
I1
ssg82
g4851
sg75
(lp4858
Nasbasbasbag68
(g84
g70
NtRp4859
(dp4860
g73
(dp4861
sg82
g4818
sg75
(lp4862
g68
(g89
g70
NtRp4863
(dp4864
g73
(dp4865
sg82
g4859
sg75
(lp4866
g68
(g69
g70
NtRp4867
(dp4868
g73
(dp4869
g81
I1
ssg82
g4863
sg75
(lp4870
(lp4871
(S'plugin_wiki'
p4872
I00
S'http://web2py.com/examples/default/download'
p4873
tp4874
a(g4260
(S's\r\x00\x00\x00Other Plugins'
tRp4875
I00
g4605
tp4876
a(g4260
(S's\x0e\x00\x00\x00Layout Plugins'
tRp4877
I00
g4608
tp4878
aasbasbasbasbasbasbasbasbasbasbasbasbasbasbasbasbasbasbasbag68
(g84
g70
NtRp4879
(dp4880
g73
(dp4881
sg82
g3726
sg75
(lp4882
g68
(g89
g70
NtRp4883
(dp4884
g73
(dp4885
g93
g94
ssg82
g4879
sg75
(lp4886
S'meta'
p4887
asbag68
(g89
g70
NtRp4888
(dp4889
g73
(dp4890
g100
g101
ssg82
g4879
sg75
(lp4891
S':'
asbag68
(g89
g70
NtRp4892
(dp4893
g73
(dp4894
sg82
g4879
sg75
(lp4895
g68
(g69
g70
NtRp4896
(dp4897
g73
(dp4898
g81
I5
ssg82
g4892
sg75
(lp4899
g68
(g77
g70
NtRp4900
(dp4901
g73
(dp4902
g81
I4
ssg82
Nsg75
(lp4903
g68
(g84
g70
NtRp4904
(dp4905
g73
(dp4906
sg82
g4900
sg75
(lp4907
g68
(g89
g70
NtRp4908
(dp4909
g73
(dp4910
g93
g94
ssg82
g4904
sg75
(lp4911
S'author'
p4912
asbag68
(g89
g70
NtRp4913
(dp4914
g73
(dp4915
g100
g101
ssg82
g4904
sg75
(lp4916
S':'
asbag68
(g89
g70
NtRp4917
(dp4918
g73
(dp4919
sg82
g4904
sg75
(lp4920
g68
(g69
g70
NtRp4921
(dp4922
g73
(dp4923
g81
I4
ssg82
g4917
sg75
(lp4924
S'Your Name <you@example.com>'
p4925
asbasbasbag68
(g84
g70
NtRp4926
(dp4927
g73
(dp4928
sg82
g4900
sg75
(lp4929
g68
(g89
g70
NtRp4930
(dp4931
g73
(dp4932
g93
g94
ssg82
g4926
sg75
(lp4933
S'description'
p4934
asbag68
(g89
g70
NtRp4935
(dp4936
g73
(dp4937
g100
g101
ssg82
g4926
sg75
(lp4938
S':'
asbag68
(g89
g70
NtRp4939
(dp4940
g73
(dp4941
sg82
g4926
sg75
(lp4942
g68
(g69
g70
NtRp4943
(dp4944
g73
(dp4945
g81
I4
ssg82
g4939
sg75
(lp4946
S'a cool new app'
p4947
asbasbasbag68
(g84
g70
NtRp4948
(dp4949
g73
(dp4950
sg82
g4900
sg75
(lp4951
g68
(g89
g70
NtRp4952
(dp4953
g73
(dp4954
g93
g94
ssg82
g4948
sg75
(lp4955
S'generator'
p4956
asbag68
(g89
g70
NtRp4957
(dp4958
g73
(dp4959
g100
g101
ssg82
g4948
sg75
(lp4960
S':'
asbag68
(g89
g70
NtRp4961
(dp4962
g73
(dp4963
sg82
g4948
sg75
(lp4964
g68
(g69
g70
NtRp4965
(dp4966
g73
(dp4967
g81
I4
ssg82
g4961
sg75
(lp4968
S'Web2py Web Framework'
p4969
asbasbasbag68
(g84
g70
NtRp4970
(dp4971
g73
(dp4972
sg82
g4900
sg75
(lp4973
g68
(g89
g70
NtRp4974
(dp4975
g73
(dp4976
g93
g94
ssg82
g4970
sg75
(lp4977
S'keywords'
p4978
asbag68
(g89
g70
NtRp4979
(dp4980
g73
(dp4981
g100
g101
ssg82
g4970
sg75
(lp4982
S':'
asbag68
(g89
g70
NtRp4983
(dp4984
g73
(dp4985
sg82
g4970
sg75
(lp4986
g68
(g69
g70
NtRp4987
(dp4988
g73
(dp4989
g81
I4
ssg82
g4983
sg75
(lp4990
S'web2py, python, framework'
p4991
asbasbasbasbasbasbasbag68
(g84
g70
NtRp4992
(dp4993
g73
(dp4994
sg82
g3726
sg75
(lp4995
g68
(g89
g70
NtRp4996
(dp4997
g73
(dp4998
g93
g94
ssg82
g4992
sg75
(lp4999
S'models_to_run'
p5000
asbag68
(g89
g70
NtRp5001
(dp5002
g73
(dp5003
g100
g101
ssg82
g4992
sg75
(lp5004
S':'
asbag68
(g89
g70
NtRp5005
(dp5006
g73
(dp5007
sg82
g4992
sg75
(lp5008
g68
(g69
g70
NtRp5009
(dp5010
g73
(dp5011
g81
I5
ssg82
g5005
sg75
(lp5012
g68
(g77
g70
NtRp5013
(dp5014
g73
(dp5015
g81
I4
ssg82
Nsg75
(lp5016
g68
(g84
g70
NtRp5017
(dp5018
g73
(dp5019
sg82
g5013
sg75
(lp5020
g68
(g89
g70
NtRp5021
(dp5022
g73
(dp5023
sg82
g5017
sg75
(lp5024
g68
(g69
g70
NtRp5025
(dp5026
g73
(dp5027
g81
I4
ssg82
g5021
sg75
(lp5028
S'^\\w+\\.py$'
p5029
asbasbasbag68
(g84
g70
NtRp5030
(dp5031
g73
(dp5032
sg82
g5013
sg75
(lp5033
g68
(g89
g70
NtRp5034
(dp5035
g73
(dp5036
sg82
g5030
sg75
(lp5037
g68
(g69
g70
NtRp5038
(dp5039
g73
(dp5040
g81
I4
ssg82
g5034
sg75
(lp5041
S'^default/\\w+\\.py$'
p5042
asbasbasbag68
(g84
g70
NtRp5043
(dp5044
g73
(dp5045
sg82
g5013
sg75
(lp5046
g68
(g89
g70
NtRp5047
(dp5048
g73
(dp5049
sg82
g5043
sg75
(lp5050
g68
(g69
g70
NtRp5051
(dp5052
g73
(dp5053
g81
I4
ssg82
g5047
sg75
(lp5054
S'^default/exam/\\w+\\.py$'
p5055
asbasbasbasbasbasbasbag68
(g84
g70
NtRp5056
(dp5057
g73
(dp5058
sg82
g3726
sg75
(lp5059
g68
(g89
g70
NtRp5060
(dp5061
g73
(dp5062
g93
g94
ssg82
g5056
sg75
(lp5063
S'postprocessing'
p5064
asbag68
(g89
g70
NtRp5065
(dp5066
g73
(dp5067
g100
g101
ssg82
g5056
sg75
(lp5068
S':'
asbag68
(g89
g70
NtRp5069
(dp5070
g73
(dp5071
sg82
g5056
sg75
(lp5072
g68
(g69
g70
NtRp5073
(dp5074
g73
(dp5075
g81
I5
ssg82
g5069
sg75
(lp5076
g68
(g77
g70
NtRp5077
(dp5078
g73
(dp5079
g81
I4
ssg82
Nsg75
(lp5080
sbasbasbasbag68
(g84
g70
NtRp5081
(dp5082
g73
(dp5083
sg82
g3726
sg75
(lp5084
g68
(g89
g70
NtRp5085
(dp5086
g73
(dp5087
g93
g94
ssg82
g5081
sg75
(lp5088
S'session_cookie_expires'
p5089
asbag68
(g89
g70
NtRp5090
(dp5091
g73
(dp5092
g100
g101
ssg82
g5081
sg75
(lp5093
S':'
asbag68
(g89
g70
NtRp5094
(dp5095
g73
(dp5096
sg82
g5081
sg75
(lp5097
g68
(g69
g70
NtRp5098
(dp5099
g73
(dp5100
g81
I5
ssg82
g5094
sg75
(lp5101
S'None'
p5102
asbasbasbag68
(g84
g70
NtRp5103
(dp5104
g73
(dp5105
sg82
g3726
sg75
(lp5106
g68
(g89
g70
NtRp5107
(dp5108
g73
(dp5109
g93
g94
ssg82
g5103
sg75
(lp5110
S'session_data_name'
p5111
asbag68
(g89
g70
NtRp5112
(dp5113
g73
(dp5114
g100
g101
ssg82
g5103
sg75
(lp5115
S':'
asbag68
(g89
g70
NtRp5116
(dp5117
g73
(dp5118
sg82
g5103
sg75
(lp5119
g68
(g69
g70
NtRp5120
(dp5121
g73
(dp5122
g81
I5
ssg82
g5116
sg75
(lp5123
S'session_data_onlineexamination'
p5124
asbasbasbag68
(g84
g70
NtRp5125
(dp5126
g73
(dp5127
sg82
g3726
sg75
(lp5128
g68
(g89
g70
NtRp5129
(dp5130
g73
(dp5131
g93
g94
ssg82
g5125
sg75
(lp5132
S'session_file'
p5133
asbag68
(g89
g70
NtRp5134
(dp5135
g73
(dp5136
g100
g101
ssg82
g5125
sg75
(lp5137
S':'
asbag68
(g89
g70
NtRp5138
(dp5139
g73
(dp5140
sg82
g5125
sg75
(lp5141
g68
(g69
g70
NtRp5142
(dp5143
g73
(dp5144
g81
I5
ssg82
g5138
sg75
(lp5145
S"<open file '/home/gaurav/classwork/WEB_PROGRAMMING/web2py/applications/OnlineExamination/sessions/127.0.0.1-c946dbc5-3ee7-4ce1-86c5-f16bb3a3c13c', mode 'rb+' at 0xa292548>"
p5146
asbasbasbag68
(g84
g70
NtRp5147
(dp5148
g73
(dp5149
sg82
g3726
sg75
(lp5150
g68
(g89
g70
NtRp5151
(dp5152
g73
(dp5153
g93
g94
ssg82
g5147
sg75
(lp5154
S'session_filename'
p5155
asbag68
(g89
g70
NtRp5156
(dp5157
g73
(dp5158
g100
g101
ssg82
g5147
sg75
(lp5159
S':'
asbag68
(g89
g70
NtRp5160
(dp5161
g73
(dp5162
sg82
g5147
sg75
(lp5163
g68
(g69
g70
NtRp5164
(dp5165
g73
(dp5166
g81
I5
ssg82
g5160
sg75
(lp5167
S'/home/gaurav/classwork/WEB_PROGRAMMING/web2py/applications/OnlineExamination/sessions/127.0.0.1-c946dbc5-3ee7-4ce1-86c5-f16bb3a3c13c'
p5168
asbasbasbag68
(g84
g70
NtRp5169
(dp5170
g73
(dp5171
sg82
g3726
sg75
(lp5172
g68
(g89
g70
NtRp5173
(dp5174
g73
(dp5175
g93
g94
ssg82
g5169
sg75
(lp5176
S'session_id'
p5177
asbag68
(g89
g70
NtRp5178
(dp5179
g73
(dp5180
g100
g101
ssg82
g5169
sg75
(lp5181
S':'
asbag68
(g89
g70
NtRp5182
(dp5183
g73
(dp5184
sg82
g5169
sg75
(lp5185
g68
(g69
g70
NtRp5186
(dp5187
g73
(dp5188
g81
I5
ssg82
g5182
sg75
(lp5189
g486
asbasbasbag68
(g84
g70
NtRp5190
(dp5191
g73
(dp5192
sg82
g3726
sg75
(lp5193
g68
(g89
g70
NtRp5194
(dp5195
g73
(dp5196
g93
g94
ssg82
g5190
sg75
(lp5197
S'session_id_name'
p5198
asbag68
(g89
g70
NtRp5199
(dp5200
g73
(dp5201
g100
g101
ssg82
g5190
sg75
(lp5202
S':'
asbag68
(g89
g70
NtRp5203
(dp5204
g73
(dp5205
sg82
g5190
sg75
(lp5206
g68
(g69
g70
NtRp5207
(dp5208
g73
(dp5209
g81
I5
ssg82
g5203
sg75
(lp5210
g3783
asbasbasbag68
(g84
g70
NtRp5211
(dp5212
g73
(dp5213
sg82
g3726
sg75
(lp5214
g68
(g89
g70
NtRp5215
(dp5216
g73
(dp5217
g93
g94
ssg82
g5211
sg75
(lp5218
S'session_locked'
p5219
asbag68
(g89
g70
NtRp5220
(dp5221
g73
(dp5222
g100
g101
ssg82
g5211
sg75
(lp5223
S':'
asbag68
(g89
g70
NtRp5224
(dp5225
g73
(dp5226
sg82
g5211
sg75
(lp5227
g68
(g69
g70
NtRp5228
(dp5229
g73
(dp5230
g81
I5
ssg82
g5224
sg75
(lp5231
g1802
asbasbasbag68
(g84
g70
NtRp5232
(dp5233
g73
(dp5234
sg82
g3726
sg75
(lp5235
g68
(g89
g70
NtRp5236
(dp5237
g73
(dp5238
g93
g94
ssg82
g5232
sg75
(lp5239
S'session_new'
p5240
asbag68
(g89
g70
NtRp5241
(dp5242
g73
(dp5243
g100
g101
ssg82
g5232
sg75
(lp5244
S':'
asbag68
(g89
g70
NtRp5245
(dp5246
g73
(dp5247
sg82
g5232
sg75
(lp5248
g68
(g69
g70
NtRp5249
(dp5250
g73
(dp5251
g81
I5
ssg82
g5245
sg75
(lp5252
g111
asbasbasbag68
(g84
g70
NtRp5253
(dp5254
g73
(dp5255
sg82
g3726
sg75
(lp5256
g68
(g89
g70
NtRp5257
(dp5258
g73
(dp5259
g93
g94
ssg82
g5253
sg75
(lp5260
S'session_storage_type'
p5261
asbag68
(g89
g70
NtRp5262
(dp5263
g73
(dp5264
g100
g101
ssg82
g5253
sg75
(lp5265
S':'
asbag68
(g89
g70
NtRp5266
(dp5267
g73
(dp5268
sg82
g5253
sg75
(lp5269
g68
(g69
g70
NtRp5270
(dp5271
g73
(dp5272
g81
I5
ssg82
g5266
sg75
(lp5273
g3254
asbasbasbag68
(g84
g70
NtRp5274
(dp5275
g73
(dp5276
sg82
g3726
sg75
(lp5277
g68
(g89
g70
NtRp5278
(dp5279
g73
(dp5280
g93
g94
ssg82
g5274
sg75
(lp5281
S'status'
p5282
asbag68
(g89
g70
NtRp5283
(dp5284
g73
(dp5285
g100
g101
ssg82
g5274
sg75
(lp5286
S':'
asbag68
(g89
g70
NtRp5287
(dp5288
g73
(dp5289
sg82
g5274
sg75
(lp5290
g68
(g69
g70
NtRp5291
(dp5292
g73
(dp5293
g81
I5
ssg82
g5287
sg75
(lp5294
S'200'
p5295
asbasbasbag68
(g84
g70
NtRp5296
(dp5297
g73
(dp5298
sg82
g3726
sg75
(lp5299
g68
(g89
g70
NtRp5300
(dp5301
g73
(dp5302
g93
g94
ssg82
g5296
sg75
(lp5303
S'subtitle'
p5304
asbag68
(g89
g70
NtRp5305
(dp5306
g73
(dp5307
g100
g101
ssg82
g5296
sg75
(lp5308
S':'
asbag68
(g89
g70
NtRp5309
(dp5310
g73
(dp5311
sg82
g5296
sg75
(lp5312
g68
(g69
g70
NtRp5313
(dp5314
g73
(dp5315
g81
I5
ssg82
g5309
sg75
(lp5316
g4260
(S's\x13\x00\x00\x00Online Exam Portal!'
tRp5317
asbasbasbag68
(g84
g70
NtRp5318
(dp5319
g73
(dp5320
sg82
g3726
sg75
(lp5321
g68
(g89
g70
NtRp5322
(dp5323
g73
(dp5324
g93
g94
ssg82
g5318
sg75
(lp5325
S'title'
p5326
asbag68
(g89
g70
NtRp5327
(dp5328
g73
(dp5329
g100
g101
ssg82
g5318
sg75
(lp5330
S':'
asbag68
(g89
g70
NtRp5331
(dp5332
g73
(dp5333
sg82
g5318
sg75
(lp5334
g68
(g69
g70
NtRp5335
(dp5336
g73
(dp5337
g81
I5
ssg82
g5331
sg75
(lp5338
S'Onlineexamination'
p5339
asbasbasbag68
(g84
g70
NtRp5340
(dp5341
g73
(dp5342
sg82
g3726
sg75
(lp5343
g68
(g89
g70
NtRp5344
(dp5345
g73
(dp5346
g93
g94
ssg82
g5340
sg75
(lp5347
S'view'
p5348
asbag68
(g89
g70
NtRp5349
(dp5350
g73
(dp5351
g100
g101
ssg82
g5340
sg75
(lp5352
S':'
asbag68
(g89
g70
NtRp5353
(dp5354
g73
(dp5355
sg82
g5340
sg75
(lp5356
g68
(g69
g70
NtRp5357
(dp5358
g73
(dp5359
g81
I5
ssg82
g5353
sg75
(lp5360
S'default/exam.html'
p5361
asbasbasbasbasbsS'locals'
p5362
(dp5363
g4
S"'/home/gaurav/classwork/WEB_PROGRAMMING/web2py/applications/OnlineExamination/controllers/default.py'"
p5364
sg6
S"'# -*- coding: utf-8 -*-\\n# this file is released ...orm=form)\\n\\nresponse._vars=response._caller(exam)\\n'"
p5365
sssS'traceback'
p5366
S'Traceback (most recent call last):\n  File "/home/gaurav/classwork/WEB_PROGRAMMING/web2py/gluon/restricted.py", line 211, in restricted\n    ccode = compile2(code, layer)\n  File "/home/gaurav/classwork/WEB_PROGRAMMING/web2py/gluon/restricted.py", line 194, in compile2\n    return compile(code.rstrip().replace(\'\\r\\n\', \'\\n\') + \'\\n\', layer, \'exec\')\n  File "/home/gaurav/classwork/WEB_PROGRAMMING/web2py/applications/OnlineExamination/controllers/default.py", line 145\n    k=db(auth.user.email==db.student.email).select(db.student.email)\n    ^\nSyntaxError: invalid syntax\n'
p5367
s.