(dp1
S'output'
p2
S"<type 'exceptions.IndexError'> list index out of range"
p3
sS'layer'
p4
S'/home/saurabh/web2py/applications/OnlineExamination/views/default/F2.html'
p5
sS'code'
p6
S'response.write(\'<!DOCTYPE html>\\n<!-- paulirish.com/2008/conditional-stylesheets-vs-css-hacks-answer-neither/ -->\\n<!--[if lt IE 7]><html class="ie ie6 ie-lte9 ie-lte8 ie-lte7 no-js" lang="\', escape=False)\nresponse.write(T.accepted_language or \'en\')\nresponse.write(\'"> <![endif]-->\\n<!--[if IE 7]><html class="ie ie7 ie-lte9 ie-lte8 ie-lte7 no-js" lang="\', escape=False)\nresponse.write(T.accepted_language or \'en\')\nresponse.write(\'"> <![endif]-->\\n<!--[if IE 8]><html class="ie ie8 ie-lte9 ie-lte8 no-js" lang="\', escape=False)\nresponse.write(T.accepted_language or \'en\')\nresponse.write(\'"> <![endif]-->\\n<!--[if IE 9]><html class="ie9 ie-lte9 no-js" lang="\', escape=False)\nresponse.write(T.accepted_language or \'en\')\nresponse.write(\'"> <![endif]-->\\n<!--[if (gt IE 9)|!(IE)]><!--> <html class="no-js" lang="\', escape=False)\nresponse.write(T.accepted_language or \'en\')\nresponse.write(\'"> <!--<![endif]-->\\n<head>\\n     <meta charset="utf-8" />\\n  <!-- www.phpied.com/conditional-comments-block-downloads/ -->\\n  <!-- Always force latest IE rendering engine\\n       (even in intranet) & Chrome Frame\\n       Remove this if you use the .htaccess -->\\n  <!--[if IE]>\\n      <meta http-equiv="X-UA-Compatible" content="IE=edge\', escape=False)\nresponse.write(not request.is_local and \',chrome=1\' or \'\')\nresponse.write(\'">\\n      <![endif]-->\\n\\n      <title>\', escape=False)\nresponse.write(response.title or request.application)\nresponse.write(\'</title>\\n      <!-- <title> ONLINE EXAM </title>-->\\n\\n  <!-- http://dev.w3.org/html5/markup/meta.name.html -->\\n  <meta name="application-name" content="\', escape=False)\nresponse.write(request.application)\nresponse.write(\'" />\\n\\n  <!-- Speaking of Google, don\\\'t forget to set your site up:\\n       http://google.com/webmasters -->\\n  <meta name="google-site-verification" content="" />\\n\\n  <!--  Mobile Viewport Fix\\n        j.mp/mobileviewport & davidbcalhoun.com/2010/viewport-metatag\\n        device-width: Occupy full width of the screen in its current orientation\\n        initial-scale = 1.0 retains dimensions instead of zooming out if page height > device height\\n        user-scalable = yes allows the user to zoom in -->\\n  <meta name="viewport" content="width=device-width, initial-scale=1.0" />\\n\\n  <link rel="shortcut icon" href="\', escape=False)\nresponse.write(URL(\'static\',\'images/favicon.ico\'))\nresponse.write(\'" type="image/x-icon">\\n  <link rel="apple-touch-icon" href="\', escape=False)\nresponse.write(URL(\'static\',\'images/favicon.png\'))\nresponse.write(\'">\\n\\n  <!-- All JavaScript at the bottom, except for Modernizr which enables\\n       HTML5 elements & feature detects -->\\n  <script src="\', escape=False)\nresponse.write(URL(\'static\',\'js/modernizr.custom.js\'))\nresponse.write(\'"></script>\\n\\n  <!-- include stylesheets -->\\n  \', escape=False)\nresponse.files.append(URL(\'static\',\'css/web2py.css\'))\nresponse.files.append(URL(\'static\',\'css/bootstrap.min.css\'))\nresponse.files.append(URL(\'static\',\'css/bootstrap-responsive.min.css\'))\nresponse.files.append(URL(\'static\',\'css/web2py_bootstrap.css\'))\nresponse.write(\'\\n\\n  \', escape=False)\nresponse.write(\'<script type="text/javascript"><!--\\n    // These variables are used by the web2py_ajax_init function in web2py_ajax.js (which is loaded below).\\n    var w2p_ajax_confirm_message = "\', escape=False)\nresponse.write(T(\'Are you sure you want to delete this object?\'))\nresponse.write(\'";\\n    var w2p_ajax_date_format = "\', escape=False)\nresponse.write(T(\'%Y-%m-%d\'))\nresponse.write(\'";\\n    var w2p_ajax_datetime_format = "\', escape=False)\nresponse.write(T(\'%Y-%m-%d %H:%M:%S\'))\nresponse.write(\'";\\n    //--></script>\\n\', escape=False)\nresponse.files.insert(0,URL(\'static\',\'js/jquery.js\'))\nresponse.files.insert(1,URL(\'static\',\'css/calendar.css\'))\nresponse.files.insert(2,URL(\'static\',\'js/calendar.js\'))\nresponse.files.insert(3,URL(\'static\',\'js/web2py.js\'))\nresponse.include_meta()\nresponse.include_files()\nresponse.write(\'\\n\', escape=False)\nresponse.write(\'\\n\\n  \', escape=False)\n# using sidebars need to know what sidebar you want to use\nleft_sidebar_enabled = globals().get(\'left_sidebar_enabled\',False)\nright_sidebar_enabled = globals().get(\'right_sidebar_enabled\',False)\nmiddle_columns = {0:\'span12\',1:\'span9\',2:\'span6\'}[\n(left_sidebar_enabled and 1 or 0)+(right_sidebar_enabled and 1 or 0)]\nresponse.write(\'\\n\\n  <!-- uncomment here to load jquery-ui\\n       <link rel="stylesheet" href="http://ajax.googleapis.com/ajax/libs/jqueryui/1.8.16/themes/base/jquery-ui.css" type="text/css" media="all" />\\n       <script src="http://ajax.googleapis.com/ajax/libs/jqueryui/1.8.16/jquery-ui.min.js" type="text/javascript"></script>\\n       uncomment to load jquery-ui //-->\\n  <noscript><link href="\', escape=False)\nresponse.write(URL(\'static\', \'css/web2py_bootstrap_nojs.css\'))\nresponse.write(\'" rel="stylesheet" type="text/css" /></noscript>\\n  \', escape=False)\nresponse.write(\'\\n</head>\\n\\n<body>\\n  <!-- Navbar ================================================== -->\\n  <div class="navbar navbar-inverse navbar-fixed-top">\\n    <div class="flash">\', escape=False)\nresponse.write(response.flash or \'\')\nresponse.write(\'</div>\\n    <div class="navbar-inner">\\n      <div class="container">\\n        <!-- the next tag is necessary for bootstrap menus, do not remove -->\\n        <button type="button" class="btn btn-navbar" data-toggle="collapse" data-target=".nav-collapse">\\n          <span class="icon-bar"></span>\\n          <span class="icon-bar"></span>\\n          <span class="icon-bar"></span>\\n        </button>\\n\\t\', escape=False)\nresponse.write(response.logo or \'\')\nresponse.write(\'\\n        <ul id="navbar" class="nav pull-right">\', escape=False)\nresponse.write(\'auth\' in globals() and auth.navbar(mode="dropdown") or \'\')\nresponse.write(\'</ul>\\n        <div class="nav-collapse">\\n          \', escape=False)\nis_mobile=request.user_agent().is_mobile\nresponse.write(\'\\n          \', escape=False)\nif response.menu:\n    response.write(\'\\n          \', escape=False)\n    response.write(MENU(response.menu, _class=\'mobile-menu nav\' if is_mobile else \'nav\',mobile=is_mobile,li_class=\'dropdown\',ul_class=\'dropdown-menu\'))\n    response.write(\'\\n          \', escape=False)\n    pass\nresponse.write(\'\\n        </div><!--/.nav-collapse -->\\n      </div>\\n    </div>\\n  </div><!--/top navbar -->\\n\\n  <div class="container">\\n    <!-- Masthead ================================================== -->\\n    <header class="mastheader row" id="header">\\n        <div class="span12">\\n            <div class="page-header">\\n                <h1>\\n                    \', escape=False)\nresponse.write(response.title or request.application)\nresponse.write(\'\\n                    <small>\', escape=False)\nresponse.write(response.subtitle or \'\')\nresponse.write(\'</small>\\n                </h1>\\n            </div>\\n        </div>\\n    </header>\\n\\n    <section id="main" class="main row">\\n        \', escape=False)\nif left_sidebar_enabled:\n    response.write(\'\\n        <div class="span3 left-sidebar">\\n            \', escape=False)\n    response.write(\'\\n            <h3>Left Sidebar</h3>\\n            <p></p>\\n            \', escape=False)\n    response.write(\'\\n        </div>\\n        \', escape=False)\n    pass\nresponse.write(\'\\n\\n        <div class="\', escape=False)\nresponse.write(middle_columns)\nresponse.write(\'">\\n            \', escape=False)\nresponse.write(\'\\n            \', escape=False)\nresponse.write(\'\\n\', escape=False)\nfor i in range(len(ques)):\n    response.write(\'\\n<b>Q. \', escape=False)\n    response.write(i+1)\n    response.write(\' :  \\n     \', escape=False)\n    response.write(ques[i][\'question\'])\n    response.write(\'<br/></b>\\nA :  \', escape=False)\n    response.write(ques[i][\'option_a\'])\n    response.write(\'<br/>\\nB :  \', escape=False)\n    response.write(ques[i][\'option_b\'])\n    response.write(\'<br/>\\nC :  \', escape=False)\n    response.write(ques[i][\'option_c\'])\n    response.write(\'<br/>\\nD :  \', escape=False)\n    response.write(ques[i][\'option_d\'])\n    response.write(\'<br/>\\n<div style="color:blue">\\nCorrect Answer : \', escape=False)\n    response.write(ques[i][\'ans\'])\n    response.write(\'<br/>\\nYour Answer : \', escape=False)\n    response.write(ans[i][\'op\'])\n    response.write(\'\\n<br/><br/><br/>\\n</div>\\n\', escape=False)\n    pass\nresponse.write(\'\\n\', escape=False)\nresponse.write(\'\\n            \', escape=False)\nresponse.write(\'\\n        </div>\\n\\n        \', escape=False)\nif right_sidebar_enabled:\n    response.write(\'\\n        <div class="span3">\\n            \', escape=False)\n    response.write(\'\\n            <h3>Right Sidebar</h3>\\n            <p></p>\\n            \', escape=False)\n    response.write(\'\\n        </div>\\n        \', escape=False)\n    pass\nresponse.write(\'\\n    </section><!--/main-->\\n\\n    <!-- Footer ================================================== -->\\n    <div class="row">\\n        <footer class="footer span12" id="footer">\\n            <div class="footer-content">\\n                \', escape=False)\nresponse.write(\' <!-- this is default footer -->\\n\\t\\t<div class="copyright pull-left">\', escape=False)\nresponse.write(T(\'Copyright\'))\nresponse.write(\' \\n\\t\\t     <a href="http://web.iiit.ac.in/~saurabh.kathpalia">Saurabh Kathpalia</a>,\\n\\t\\t     <a href="http://web.iiit.ac.in/~gaurav.mishra"> Gaurav Mishra </a>&#169; \', escape=False)\nresponse.write(request.now.year)\nresponse.write(\'</div>\\n                <div id="poweredBy" class="pull-right">\\n                    \', escape=False)\nresponse.write(T(\'Powered by\'))\nresponse.write(\'\\n\\t\\t    <!--  <a href="http://www.web2py.com/">web2py</a>-->\\n\\t\\t    <a href="http://www.iiit.ac.in">IIIT Hyderabad</a>\\n                </div>\\n                \', escape=False)\nresponse.write(\'\\n            </div>\\n        </footer>\\n    </div>\\n\\n  </div> <!-- /container -->\\n\\n  <!-- The javascript =============================================\\n       (Placed at the end of the document so the pages load faster) -->\\n  <script src="\', escape=False)\nresponse.write(URL(\'static\',\'js/bootstrap.min.js\'))\nresponse.write(\'"></script>\\n  <script src="\', escape=False)\nresponse.write(URL(\'static\',\'js/web2py_bootstrap.js\'))\nresponse.write(\'"></script>\\n  <!--[if lt IE 7 ]>\\n      <script src="\', escape=False)\nresponse.write(URL(\'static\',\'js/dd_belatedpng.js\'))\nresponse.write(\'"></script>\\n      <script> DD_belatedPNG.fix(\\\'img, .png_bg\\\'); //fix any <img> or .png_bg background-images </script>\\n      <![endif]-->\\n  \\n  \', escape=False)\nif response.google_analytics_id:\n    response.write(\'\\n  <script src="\', escape=False)\n    response.write(URL(\'static\',\'js/analytics.js\'))\n    response.write(\'"></script>\\n  <script type="text/javascript">\\n  analytics.initialize({\\n    \\\'Google Analytics\\\':{trackingId:\\\'\', escape=False)\n    response.write(response.google_analytics_id)\n    response.write("\'} \\n  });</script>\\n  ", escape=False)\n    pass\nresponse.write(\'\\n  <script src="\', escape=False)\nresponse.write(URL(\'static\',\'js/share.js\',vars=dict(static=URL(\'static\',\'images\'))))\nresponse.write(\'"></script>\\n</body>\\n</html>\\n\\n\', escape=False)'
p7
sS'snapshot'
p8
(dp9
S'exception'
p10
(dp11
S'__hash__'
p12
S"<method-wrapper '__hash__' of exceptions.IndexError object>"
p13
sS'__setattr__'
p14
S"<method-wrapper '__setattr__' of exceptions.IndexError object>"
p15
sS'__reduce_ex__'
p16
S'<built-in method __reduce_ex__ of exceptions.IndexError object>'
p17
sS'__getslice__'
p18
S"<method-wrapper '__getslice__' of exceptions.IndexError object>"
p19
sS'__getitem__'
p20
S"<method-wrapper '__getitem__' of exceptions.IndexError object>"
p21
sS'__setstate__'
p22
S'<built-in method __setstate__ of exceptions.IndexError object>'
p23
sS'args'
p24
S"('list index out of range',)"
p25
sS'__reduce__'
p26
S'<built-in method __reduce__ of exceptions.IndexError object>'
p27
sS'__str__'
p28
S"<method-wrapper '__str__' of exceptions.IndexError object>"
p29
sS'__format__'
p30
S'<built-in method __format__ of exceptions.IndexError object>'
p31
sS'__getattribute__'
p32
S"<method-wrapper '__getattribute__' of exceptions.IndexError object>"
p33
sS'__class__'
p34
S"<type 'exceptions.IndexError'>"
p35
sS'__unicode__'
p36
S'<built-in method __unicode__ of exceptions.IndexError object>'
p37
sS'__delattr__'
p38
S"<method-wrapper '__delattr__' of exceptions.IndexError object>"
p39
sS'__subclasshook__'
p40
S'<built-in method __subclasshook__ of type object>'
p41
sS'__repr__'
p42
S"<method-wrapper '__repr__' of exceptions.IndexError object>"
p43
sS'__dict__'
p44
S'{}'
p45
sS'__sizeof__'
p46
S'<built-in method __sizeof__ of exceptions.IndexError object>'
p47
sS'__doc__'
p48
S"'Sequence index out of range.'"
p49
sS'__init__'
p50
S"<method-wrapper '__init__' of exceptions.IndexError object>"
p51
sS'__new__'
p52
S'<built-in method __new__ of type object>'
p53
ssS'evalue'
p54
S'list index out of range'
p55
sS'request'
p56
ccopy_reg
_reconstructor
p57
(cgluon.html
BEAUTIFY
p58
c__builtin__
object
p59
NtRp60
(dp61
S'attributes'
p62
(dp63
sS'components'
p64
(lp65
g57
(cgluon.html
TABLE
p66
g59
NtRp67
(dp68
g62
(dp69
S'level'
p70
I5
ssS'parent'
p71
Nsg64
(lp72
g57
(cgluon.html
TR
p73
g59
NtRp74
(dp75
g62
(dp76
sg71
g67
sg64
(lp77
g57
(cgluon.html
TD
p78
g59
NtRp79
(dp80
g62
(dp81
S'_style'
p82
S'font-weight:bold;vertical-align:top'
p83
ssg71
g74
sg64
(lp84
S'ajax'
p85
asbag57
(g78
g59
NtRp86
(dp87
g62
(dp88
S'_valign'
p89
S'top'
p90
ssg71
g74
sg64
(lp91
S':'
asbag57
(g78
g59
NtRp92
(dp93
g62
(dp94
sg71
g74
sg64
(lp95
g57
(g58
g59
NtRp96
(dp97
g62
(dp98
g70
I5
ssg71
g92
sg64
(lp99
S'False'
p100
asbasbasbag57
(g73
g59
NtRp101
(dp102
g62
(dp103
sg71
g67
sg64
(lp104
g57
(g78
g59
NtRp105
(dp106
g62
(dp107
g82
g83
ssg71
g101
sg64
(lp108
S'application'
p109
asbag57
(g78
g59
NtRp110
(dp111
g62
(dp112
g89
g90
ssg71
g101
sg64
(lp113
S':'
asbag57
(g78
g59
NtRp114
(dp115
g62
(dp116
sg71
g101
sg64
(lp117
g57
(g58
g59
NtRp118
(dp119
g62
(dp120
g70
I5
ssg71
g114
sg64
(lp121
S'OnlineExamination'
p122
asbasbasbag57
(g73
g59
NtRp123
(dp124
g62
(dp125
sg71
g67
sg64
(lp126
g57
(g78
g59
NtRp127
(dp128
g62
(dp129
g82
g83
ssg71
g123
sg64
(lp130
g24
asbag57
(g78
g59
NtRp131
(dp132
g62
(dp133
g89
g90
ssg71
g123
sg64
(lp134
S':'
asbag57
(g78
g59
NtRp135
(dp136
g62
(dp137
sg71
g123
sg64
(lp138
g57
(g58
g59
NtRp139
(dp140
g62
(dp141
g70
I5
ssg71
g135
sg64
(lp142
g57
(g66
g59
NtRp143
(dp144
g62
(dp145
g70
I4
ssg71
Nsg64
(lp146
sbasbasbasbag57
(g73
g59
NtRp147
(dp148
g62
(dp149
sg71
g67
sg64
(lp150
g57
(g78
g59
NtRp151
(dp152
g62
(dp153
g82
g83
ssg71
g147
sg64
(lp154
S'body'
p155
asbag57
(g78
g59
NtRp156
(dp157
g62
(dp158
g89
g90
ssg71
g147
sg64
(lp159
S':'
asbag57
(g78
g59
NtRp160
(dp161
g62
(dp162
sg71
g147
sg64
(lp163
g57
(g58
g59
NtRp164
(dp165
g62
(dp166
g70
I5
ssg71
g160
sg64
(lp167
S"<open file '<fdopen>', mode 'w+b' at 0x7f55981c25d0>"
p168
asbasbasbag57
(g73
g59
NtRp169
(dp170
g62
(dp171
sg71
g67
sg64
(lp172
g57
(g78
g59
NtRp173
(dp174
g62
(dp175
g82
g83
ssg71
g169
sg64
(lp176
S'cid'
p177
asbag57
(g78
g59
NtRp178
(dp179
g62
(dp180
g89
g90
ssg71
g169
sg64
(lp181
S':'
asbag57
(g78
g59
NtRp182
(dp183
g62
(dp184
sg71
g169
sg64
(lp185
g57
(g58
g59
NtRp186
(dp187
g62
(dp188
g70
I5
ssg71
g182
sg64
(lp189
S'None'
p190
asbasbasbag57
(g73
g59
NtRp191
(dp192
g62
(dp193
sg71
g67
sg64
(lp194
g57
(g78
g59
NtRp195
(dp196
g62
(dp197
g82
g83
ssg71
g191
sg64
(lp198
S'client'
p199
asbag57
(g78
g59
NtRp200
(dp201
g62
(dp202
g89
g90
ssg71
g191
sg64
(lp203
S':'
asbag57
(g78
g59
NtRp204
(dp205
g62
(dp206
sg71
g191
sg64
(lp207
g57
(g58
g59
NtRp208
(dp209
g62
(dp210
g70
I5
ssg71
g204
sg64
(lp211
S'127.0.0.1'
p212
asbasbasbag57
(g73
g59
NtRp213
(dp214
g62
(dp215
sg71
g67
sg64
(lp216
g57
(g78
g59
NtRp217
(dp218
g62
(dp219
g82
g83
ssg71
g213
sg64
(lp220
S'controller'
p221
asbag57
(g78
g59
NtRp222
(dp223
g62
(dp224
g89
g90
ssg71
g213
sg64
(lp225
S':'
asbag57
(g78
g59
NtRp226
(dp227
g62
(dp228
sg71
g213
sg64
(lp229
g57
(g58
g59
NtRp230
(dp231
g62
(dp232
g70
I5
ssg71
g226
sg64
(lp233
S'default'
p234
asbasbasbag57
(g73
g59
NtRp235
(dp236
g62
(dp237
sg71
g67
sg64
(lp238
g57
(g78
g59
NtRp239
(dp240
g62
(dp241
g82
g83
ssg71
g235
sg64
(lp242
S'cookies'
p243
asbag57
(g78
g59
NtRp244
(dp245
g62
(dp246
g89
g90
ssg71
g235
sg64
(lp247
S':'
asbag57
(g78
g59
NtRp248
(dp249
g62
(dp250
sg71
g235
sg64
(lp251
g57
(g58
g59
NtRp252
(dp253
g62
(dp254
g70
I5
ssg71
g248
sg64
(lp255
g57
(g66
g59
NtRp256
(dp257
g62
(dp258
g70
I4
ssg71
Nsg64
(lp259
g57
(g73
g59
NtRp260
(dp261
g62
(dp262
sg71
g256
sg64
(lp263
g57
(g78
g59
NtRp264
(dp265
g62
(dp266
g82
g83
ssg71
g260
sg64
(lp267
S'session_id_admin'
p268
asbag57
(g78
g59
NtRp269
(dp270
g62
(dp271
g89
g90
ssg71
g260
sg64
(lp272
S':'
asbag57
(g78
g59
NtRp273
(dp274
g62
(dp275
sg71
g260
sg64
(lp276
g57
(g58
g59
NtRp277
(dp278
g62
(dp279
g70
I4
ssg71
g273
sg64
(lp280
S'127.0.0.1-c12f25ca-a237-4e3a-8bce-2083c54da741'
p281
ag57
(g66
g59
NtRp282
(dp283
g62
(dp284
g70
I3
ssg71
Nsg64
(lp285
g57
(g73
g59
NtRp286
(dp287
g62
(dp288
sg71
g282
sg64
(lp289
g57
(g78
g59
NtRp290
(dp291
g62
(dp292
g82
g83
ssg71
g286
sg64
(lp293
S'comment'
p294
asbag57
(g78
g59
NtRp295
(dp296
g62
(dp297
g89
g90
ssg71
g286
sg64
(lp298
S':'
asbag57
(g78
g59
NtRp299
(dp300
g62
(dp301
sg71
g286
sg64
(lp302
g57
(g58
g59
NtRp303
(dp304
g62
(dp305
g70
I3
ssg71
g299
sg64
(lp306
S''
asbasbasbag57
(g73
g59
NtRp307
(dp308
g62
(dp309
sg71
g282
sg64
(lp310
g57
(g78
g59
NtRp311
(dp312
g62
(dp313
g82
g83
ssg71
g307
sg64
(lp314
S'domain'
p315
asbag57
(g78
g59
NtRp316
(dp317
g62
(dp318
g89
g90
ssg71
g307
sg64
(lp319
S':'
asbag57
(g78
g59
NtRp320
(dp321
g62
(dp322
sg71
g307
sg64
(lp323
g57
(g58
g59
NtRp324
(dp325
g62
(dp326
g70
I3
ssg71
g320
sg64
(lp327
S''
asbasbasbag57
(g73
g59
NtRp328
(dp329
g62
(dp330
sg71
g282
sg64
(lp331
g57
(g78
g59
NtRp332
(dp333
g62
(dp334
g82
g83
ssg71
g328
sg64
(lp335
S'expires'
p336
asbag57
(g78
g59
NtRp337
(dp338
g62
(dp339
g89
g90
ssg71
g328
sg64
(lp340
S':'
asbag57
(g78
g59
NtRp341
(dp342
g62
(dp343
sg71
g328
sg64
(lp344
g57
(g58
g59
NtRp345
(dp346
g62
(dp347
g70
I3
ssg71
g341
sg64
(lp348
S''
asbasbasbag57
(g73
g59
NtRp349
(dp350
g62
(dp351
sg71
g282
sg64
(lp352
g57
(g78
g59
NtRp353
(dp354
g62
(dp355
g82
g83
ssg71
g349
sg64
(lp356
S'httponly'
p357
asbag57
(g78
g59
NtRp358
(dp359
g62
(dp360
g89
g90
ssg71
g349
sg64
(lp361
S':'
asbag57
(g78
g59
NtRp362
(dp363
g62
(dp364
sg71
g349
sg64
(lp365
g57
(g58
g59
NtRp366
(dp367
g62
(dp368
g70
I3
ssg71
g362
sg64
(lp369
S''
asbasbasbag57
(g73
g59
NtRp370
(dp371
g62
(dp372
sg71
g282
sg64
(lp373
g57
(g78
g59
NtRp374
(dp375
g62
(dp376
g82
g83
ssg71
g370
sg64
(lp377
S'max-age'
p378
asbag57
(g78
g59
NtRp379
(dp380
g62
(dp381
g89
g90
ssg71
g370
sg64
(lp382
S':'
asbag57
(g78
g59
NtRp383
(dp384
g62
(dp385
sg71
g370
sg64
(lp386
g57
(g58
g59
NtRp387
(dp388
g62
(dp389
g70
I3
ssg71
g383
sg64
(lp390
S''
asbasbasbag57
(g73
g59
NtRp391
(dp392
g62
(dp393
sg71
g282
sg64
(lp394
g57
(g78
g59
NtRp395
(dp396
g62
(dp397
g82
g83
ssg71
g391
sg64
(lp398
S'path'
p399
asbag57
(g78
g59
NtRp400
(dp401
g62
(dp402
g89
g90
ssg71
g391
sg64
(lp403
S':'
asbag57
(g78
g59
NtRp404
(dp405
g62
(dp406
sg71
g391
sg64
(lp407
g57
(g58
g59
NtRp408
(dp409
g62
(dp410
g70
I3
ssg71
g404
sg64
(lp411
S''
asbasbasbag57
(g73
g59
NtRp412
(dp413
g62
(dp414
sg71
g282
sg64
(lp415
g57
(g78
g59
NtRp416
(dp417
g62
(dp418
g82
g83
ssg71
g412
sg64
(lp419
S'secure'
p420
asbag57
(g78
g59
NtRp421
(dp422
g62
(dp423
g89
g90
ssg71
g412
sg64
(lp424
S':'
asbag57
(g78
g59
NtRp425
(dp426
g62
(dp427
sg71
g412
sg64
(lp428
g57
(g58
g59
NtRp429
(dp430
g62
(dp431
g70
I3
ssg71
g425
sg64
(lp432
S''
asbasbasbag57
(g73
g59
NtRp433
(dp434
g62
(dp435
sg71
g282
sg64
(lp436
g57
(g78
g59
NtRp437
(dp438
g62
(dp439
g82
g83
ssg71
g433
sg64
(lp440
S'version'
p441
asbag57
(g78
g59
NtRp442
(dp443
g62
(dp444
g89
g90
ssg71
g433
sg64
(lp445
S':'
asbag57
(g78
g59
NtRp446
(dp447
g62
(dp448
sg71
g433
sg64
(lp449
g57
(g58
g59
NtRp450
(dp451
g62
(dp452
g70
I3
ssg71
g446
sg64
(lp453
S''
asbasbasbasbasbasbasbag57
(g73
g59
NtRp454
(dp455
g62
(dp456
sg71
g256
sg64
(lp457
g57
(g78
g59
NtRp458
(dp459
g62
(dp460
g82
g83
ssg71
g454
sg64
(lp461
S'session_id_onlineexamination'
p462
asbag57
(g78
g59
NtRp463
(dp464
g62
(dp465
g89
g90
ssg71
g454
sg64
(lp466
S':'
asbag57
(g78
g59
NtRp467
(dp468
g62
(dp469
sg71
g454
sg64
(lp470
g57
(g58
g59
NtRp471
(dp472
g62
(dp473
g70
I4
ssg71
g467
sg64
(lp474
S'127.0.0.1-b87cd992-95f3-4d75-a378-541b7c7540a9'
p475
ag57
(g66
g59
NtRp476
(dp477
g62
(dp478
g70
I3
ssg71
Nsg64
(lp479
g57
(g73
g59
NtRp480
(dp481
g62
(dp482
sg71
g476
sg64
(lp483
g57
(g78
g59
NtRp484
(dp485
g62
(dp486
g82
g83
ssg71
g480
sg64
(lp487
g294
asbag57
(g78
g59
NtRp488
(dp489
g62
(dp490
g89
g90
ssg71
g480
sg64
(lp491
S':'
asbag57
(g78
g59
NtRp492
(dp493
g62
(dp494
sg71
g480
sg64
(lp495
g57
(g58
g59
NtRp496
(dp497
g62
(dp498
g70
I3
ssg71
g492
sg64
(lp499
S''
asbasbasbag57
(g73
g59
NtRp500
(dp501
g62
(dp502
sg71
g476
sg64
(lp503
g57
(g78
g59
NtRp504
(dp505
g62
(dp506
g82
g83
ssg71
g500
sg64
(lp507
g315
asbag57
(g78
g59
NtRp508
(dp509
g62
(dp510
g89
g90
ssg71
g500
sg64
(lp511
S':'
asbag57
(g78
g59
NtRp512
(dp513
g62
(dp514
sg71
g500
sg64
(lp515
g57
(g58
g59
NtRp516
(dp517
g62
(dp518
g70
I3
ssg71
g512
sg64
(lp519
S''
asbasbasbag57
(g73
g59
NtRp520
(dp521
g62
(dp522
sg71
g476
sg64
(lp523
g57
(g78
g59
NtRp524
(dp525
g62
(dp526
g82
g83
ssg71
g520
sg64
(lp527
g336
asbag57
(g78
g59
NtRp528
(dp529
g62
(dp530
g89
g90
ssg71
g520
sg64
(lp531
S':'
asbag57
(g78
g59
NtRp532
(dp533
g62
(dp534
sg71
g520
sg64
(lp535
g57
(g58
g59
NtRp536
(dp537
g62
(dp538
g70
I3
ssg71
g532
sg64
(lp539
S''
asbasbasbag57
(g73
g59
NtRp540
(dp541
g62
(dp542
sg71
g476
sg64
(lp543
g57
(g78
g59
NtRp544
(dp545
g62
(dp546
g82
g83
ssg71
g540
sg64
(lp547
g357
asbag57
(g78
g59
NtRp548
(dp549
g62
(dp550
g89
g90
ssg71
g540
sg64
(lp551
S':'
asbag57
(g78
g59
NtRp552
(dp553
g62
(dp554
sg71
g540
sg64
(lp555
g57
(g58
g59
NtRp556
(dp557
g62
(dp558
g70
I3
ssg71
g552
sg64
(lp559
S''
asbasbasbag57
(g73
g59
NtRp560
(dp561
g62
(dp562
sg71
g476
sg64
(lp563
g57
(g78
g59
NtRp564
(dp565
g62
(dp566
g82
g83
ssg71
g560
sg64
(lp567
g378
asbag57
(g78
g59
NtRp568
(dp569
g62
(dp570
g89
g90
ssg71
g560
sg64
(lp571
S':'
asbag57
(g78
g59
NtRp572
(dp573
g62
(dp574
sg71
g560
sg64
(lp575
g57
(g58
g59
NtRp576
(dp577
g62
(dp578
g70
I3
ssg71
g572
sg64
(lp579
S''
asbasbasbag57
(g73
g59
NtRp580
(dp581
g62
(dp582
sg71
g476
sg64
(lp583
g57
(g78
g59
NtRp584
(dp585
g62
(dp586
g82
g83
ssg71
g580
sg64
(lp587
g399
asbag57
(g78
g59
NtRp588
(dp589
g62
(dp590
g89
g90
ssg71
g580
sg64
(lp591
S':'
asbag57
(g78
g59
NtRp592
(dp593
g62
(dp594
sg71
g580
sg64
(lp595
g57
(g58
g59
NtRp596
(dp597
g62
(dp598
g70
I3
ssg71
g592
sg64
(lp599
S''
asbasbasbag57
(g73
g59
NtRp600
(dp601
g62
(dp602
sg71
g476
sg64
(lp603
g57
(g78
g59
NtRp604
(dp605
g62
(dp606
g82
g83
ssg71
g600
sg64
(lp607
g420
asbag57
(g78
g59
NtRp608
(dp609
g62
(dp610
g89
g90
ssg71
g600
sg64
(lp611
S':'
asbag57
(g78
g59
NtRp612
(dp613
g62
(dp614
sg71
g600
sg64
(lp615
g57
(g58
g59
NtRp616
(dp617
g62
(dp618
g70
I3
ssg71
g612
sg64
(lp619
S''
asbasbasbag57
(g73
g59
NtRp620
(dp621
g62
(dp622
sg71
g476
sg64
(lp623
g57
(g78
g59
NtRp624
(dp625
g62
(dp626
g82
g83
ssg71
g620
sg64
(lp627
g441
asbag57
(g78
g59
NtRp628
(dp629
g62
(dp630
g89
g90
ssg71
g620
sg64
(lp631
S':'
asbag57
(g78
g59
NtRp632
(dp633
g62
(dp634
sg71
g620
sg64
(lp635
g57
(g58
g59
NtRp636
(dp637
g62
(dp638
g70
I3
ssg71
g632
sg64
(lp639
S''
asbasbasbasbasbasbasbasbasbasbasbag57
(g73
g59
NtRp640
(dp641
g62
(dp642
sg71
g67
sg64
(lp643
g57
(g78
g59
NtRp644
(dp645
g62
(dp646
g82
g83
ssg71
g640
sg64
(lp647
S'env'
p648
asbag57
(g78
g59
NtRp649
(dp650
g62
(dp651
g89
g90
ssg71
g640
sg64
(lp652
S':'
asbag57
(g78
g59
NtRp653
(dp654
g62
(dp655
sg71
g640
sg64
(lp656
g57
(g58
g59
NtRp657
(dp658
g62
(dp659
g70
I5
ssg71
g653
sg64
(lp660
g57
(g66
g59
NtRp661
(dp662
g62
(dp663
g70
I4
ssg71
Nsg64
(lp664
g57
(g73
g59
NtRp665
(dp666
g62
(dp667
sg71
g661
sg64
(lp668
g57
(g78
g59
NtRp669
(dp670
g62
(dp671
g82
g83
ssg71
g665
sg64
(lp672
S'app_folders'
p673
asbag57
(g78
g59
NtRp674
(dp675
g62
(dp676
g89
g90
ssg71
g665
sg64
(lp677
S':'
asbag57
(g78
g59
NtRp678
(dp679
g62
(dp680
sg71
g665
sg64
(lp681
g57
(g58
g59
NtRp682
(dp683
g62
(dp684
g70
I4
ssg71
g678
sg64
(lp685
S"set(['/home/saurabh/web2py/applications/admin/', '/home/saurabh/web2py/applications/OnlineExamination/', '/home/saurabh/web2py/applications/welcome/'])"
p686
asbasbasbag57
(g73
g59
NtRp687
(dp688
g62
(dp689
sg71
g661
sg64
(lp690
g57
(g78
g59
NtRp691
(dp692
g62
(dp693
g82
g83
ssg71
g687
sg64
(lp694
S'applications_parent'
p695
asbag57
(g78
g59
NtRp696
(dp697
g62
(dp698
g89
g90
ssg71
g687
sg64
(lp699
S':'
asbag57
(g78
g59
NtRp700
(dp701
g62
(dp702
sg71
g687
sg64
(lp703
g57
(g58
g59
NtRp704
(dp705
g62
(dp706
g70
I4
ssg71
g700
sg64
(lp707
S'/home/saurabh/web2py'
p708
asbasbasbag57
(g73
g59
NtRp709
(dp710
g62
(dp711
sg71
g661
sg64
(lp712
g57
(g78
g59
NtRp713
(dp714
g62
(dp715
g82
g83
ssg71
g709
sg64
(lp716
S'cmd_args'
p717
asbag57
(g78
g59
NtRp718
(dp719
g62
(dp720
g89
g90
ssg71
g709
sg64
(lp721
S':'
asbag57
(g78
g59
NtRp722
(dp723
g62
(dp724
sg71
g709
sg64
(lp725
g57
(g58
g59
NtRp726
(dp727
g62
(dp728
g70
I4
ssg71
g722
sg64
(lp729
g57
(g66
g59
NtRp730
(dp731
g62
(dp732
g70
I3
ssg71
Nsg64
(lp733
sbasbasbasbag57
(g73
g59
NtRp734
(dp735
g62
(dp736
sg71
g661
sg64
(lp737
g57
(g78
g59
NtRp738
(dp739
g62
(dp740
g82
g83
ssg71
g734
sg64
(lp741
S'cmd_options'
p742
asbag57
(g78
g59
NtRp743
(dp744
g62
(dp745
g89
g90
ssg71
g734
sg64
(lp746
S':'
asbag57
(g78
g59
NtRp747
(dp748
g62
(dp749
sg71
g734
sg64
(lp750
g57
(g58
g59
NtRp751
(dp752
g62
(dp753
g70
I4
ssg71
g747
sg64
(lp754
S"<Values at 0x27518c0: {'verbose': False, 'ip': '127.0.0.1', 'with_scheduler': False, 'ips': [], 'shutdown_timeout': 5, 'taskbar': False, 'port': 8000, 'maxthreads': None, 'softcron': False, 'server_name': 'saurabh-Inspiron-N4050', 'bpython': False, 'nogui': False, 'pid_filename': 'httpserver.pid', 'extcron': False, 'runcron': False, 'run_system_tests': False, 'test': None, 'folder': '/home/saurabh/web2py', 'config': '', 'minthreads': None, 'winservice': '', 'shell': None, 'run': '', 'log_filename': 'httpserver.log', 'debuglevel': 30, 'args': [''], 'socket_timeout': 5, 'ssl_ca_certificate': None, 'scheduler': None, 'profiler_filename': None, 'ssl_private_key': '', 'scheduler_groups': None, 'password': '<ask>', 'request_queue_size': 5, 'ssl_certificate': '', 'cronjob': False, 'numthreads': None, 'quiet': False, 'interfaces': None, 'import_models': False, 'timeout': 10, 'plain': False, 'nobanner': False}>"
p755
asbasbasbag57
(g73
g59
NtRp756
(dp757
g62
(dp758
sg71
g661
sg64
(lp759
g57
(g78
g59
NtRp760
(dp761
g62
(dp762
g82
g83
ssg71
g756
sg64
(lp763
S'content_length'
p764
asbag57
(g78
g59
NtRp765
(dp766
g62
(dp767
g89
g90
ssg71
g756
sg64
(lp768
S':'
asbag57
(g78
g59
NtRp769
(dp770
g62
(dp771
sg71
g756
sg64
(lp772
g57
(g58
g59
NtRp773
(dp774
g62
(dp775
g70
I4
ssg71
g769
sg64
(lp776
S'4'
asbasbasbag57
(g73
g59
NtRp777
(dp778
g62
(dp779
sg71
g661
sg64
(lp780
g57
(g78
g59
NtRp781
(dp782
g62
(dp783
g82
g83
ssg71
g777
sg64
(lp784
S'content_type'
p785
asbag57
(g78
g59
NtRp786
(dp787
g62
(dp788
g89
g90
ssg71
g777
sg64
(lp789
S':'
asbag57
(g78
g59
NtRp790
(dp791
g62
(dp792
sg71
g777
sg64
(lp793
g57
(g58
g59
NtRp794
(dp795
g62
(dp796
g70
I4
ssg71
g790
sg64
(lp797
S'application/x-www-form-urlencoded'
p798
asbasbasbag57
(g73
g59
NtRp799
(dp800
g62
(dp801
sg71
g661
sg64
(lp802
g57
(g78
g59
NtRp803
(dp804
g62
(dp805
g82
g83
ssg71
g799
sg64
(lp806
S'db_sessions'
p807
asbag57
(g78
g59
NtRp808
(dp809
g62
(dp810
g89
g90
ssg71
g799
sg64
(lp811
S':'
asbag57
(g78
g59
NtRp812
(dp813
g62
(dp814
sg71
g799
sg64
(lp815
g57
(g58
g59
NtRp816
(dp817
g62
(dp818
g70
I4
ssg71
g812
sg64
(lp819
S'set([])'
p820
asbasbasbag57
(g73
g59
NtRp821
(dp822
g62
(dp823
sg71
g661
sg64
(lp824
g57
(g78
g59
NtRp825
(dp826
g62
(dp827
g82
g83
ssg71
g821
sg64
(lp828
S'debugging'
p829
asbag57
(g78
g59
NtRp830
(dp831
g62
(dp832
g89
g90
ssg71
g821
sg64
(lp833
S':'
asbag57
(g78
g59
NtRp834
(dp835
g62
(dp836
sg71
g821
sg64
(lp837
g57
(g58
g59
NtRp838
(dp839
g62
(dp840
g70
I4
ssg71
g834
sg64
(lp841
g100
asbasbasbag57
(g73
g59
NtRp842
(dp843
g62
(dp844
sg71
g661
sg64
(lp845
g57
(g78
g59
NtRp846
(dp847
g62
(dp848
g82
g83
ssg71
g842
sg64
(lp849
S'gluon_parent'
p850
asbag57
(g78
g59
NtRp851
(dp852
g62
(dp853
g89
g90
ssg71
g842
sg64
(lp854
S':'
asbag57
(g78
g59
NtRp855
(dp856
g62
(dp857
sg71
g842
sg64
(lp858
g57
(g58
g59
NtRp859
(dp860
g62
(dp861
g70
I4
ssg71
g855
sg64
(lp862
S'/home/saurabh/web2py'
p863
asbasbasbag57
(g73
g59
NtRp864
(dp865
g62
(dp866
sg71
g661
sg64
(lp867
g57
(g78
g59
NtRp868
(dp869
g62
(dp870
g82
g83
ssg71
g864
sg64
(lp871
S'http_accept'
p872
asbag57
(g78
g59
NtRp873
(dp874
g62
(dp875
g89
g90
ssg71
g864
sg64
(lp876
S':'
asbag57
(g78
g59
NtRp877
(dp878
g62
(dp879
sg71
g864
sg64
(lp880
g57
(g58
g59
NtRp881
(dp882
g62
(dp883
g70
I4
ssg71
g877
sg64
(lp884
S'text/html,application/xhtml+xml,application/xml;q=0.9,*/*;q=0.8'
p885
asbasbasbag57
(g73
g59
NtRp886
(dp887
g62
(dp888
sg71
g661
sg64
(lp889
g57
(g78
g59
NtRp890
(dp891
g62
(dp892
g82
g83
ssg71
g886
sg64
(lp893
S'http_accept_encoding'
p894
asbag57
(g78
g59
NtRp895
(dp896
g62
(dp897
g89
g90
ssg71
g886
sg64
(lp898
S':'
asbag57
(g78
g59
NtRp899
(dp900
g62
(dp901
sg71
g886
sg64
(lp902
g57
(g58
g59
NtRp903
(dp904
g62
(dp905
g70
I4
ssg71
g899
sg64
(lp906
S'gzip, deflate'
p907
asbasbasbag57
(g73
g59
NtRp908
(dp909
g62
(dp910
sg71
g661
sg64
(lp911
g57
(g78
g59
NtRp912
(dp913
g62
(dp914
g82
g83
ssg71
g908
sg64
(lp915
S'http_accept_language'
p916
asbag57
(g78
g59
NtRp917
(dp918
g62
(dp919
g89
g90
ssg71
g908
sg64
(lp920
S':'
asbag57
(g78
g59
NtRp921
(dp922
g62
(dp923
sg71
g908
sg64
(lp924
g57
(g58
g59
NtRp925
(dp926
g62
(dp927
g70
I4
ssg71
g921
sg64
(lp928
S'en-US,en;q=0.5'
p929
asbasbasbag57
(g73
g59
NtRp930
(dp931
g62
(dp932
sg71
g661
sg64
(lp933
g57
(g78
g59
NtRp934
(dp935
g62
(dp936
g82
g83
ssg71
g930
sg64
(lp937
S'http_connection'
p938
asbag57
(g78
g59
NtRp939
(dp940
g62
(dp941
g89
g90
ssg71
g930
sg64
(lp942
S':'
asbag57
(g78
g59
NtRp943
(dp944
g62
(dp945
sg71
g930
sg64
(lp946
g57
(g58
g59
NtRp947
(dp948
g62
(dp949
g70
I4
ssg71
g943
sg64
(lp950
S'keep-alive'
p951
asbasbasbag57
(g73
g59
NtRp952
(dp953
g62
(dp954
sg71
g661
sg64
(lp955
g57
(g78
g59
NtRp956
(dp957
g62
(dp958
g82
g83
ssg71
g952
sg64
(lp959
S'http_content_length'
p960
asbag57
(g78
g59
NtRp961
(dp962
g62
(dp963
g89
g90
ssg71
g952
sg64
(lp964
S':'
asbag57
(g78
g59
NtRp965
(dp966
g62
(dp967
sg71
g952
sg64
(lp968
g57
(g58
g59
NtRp969
(dp970
g62
(dp971
g70
I4
ssg71
g965
sg64
(lp972
S'4'
asbasbasbag57
(g73
g59
NtRp973
(dp974
g62
(dp975
sg71
g661
sg64
(lp976
g57
(g78
g59
NtRp977
(dp978
g62
(dp979
g82
g83
ssg71
g973
sg64
(lp980
S'http_content_type'
p981
asbag57
(g78
g59
NtRp982
(dp983
g62
(dp984
g89
g90
ssg71
g973
sg64
(lp985
S':'
asbag57
(g78
g59
NtRp986
(dp987
g62
(dp988
sg71
g973
sg64
(lp989
g57
(g58
g59
NtRp990
(dp991
g62
(dp992
g70
I4
ssg71
g986
sg64
(lp993
g798
asbasbasbag57
(g73
g59
NtRp994
(dp995
g62
(dp996
sg71
g661
sg64
(lp997
g57
(g78
g59
NtRp998
(dp999
g62
(dp1000
g82
g83
ssg71
g994
sg64
(lp1001
S'http_cookie'
p1002
asbag57
(g78
g59
NtRp1003
(dp1004
g62
(dp1005
g89
g90
ssg71
g994
sg64
(lp1006
S':'
asbag57
(g78
g59
NtRp1007
(dp1008
g62
(dp1009
sg71
g994
sg64
(lp1010
g57
(g58
g59
NtRp1011
(dp1012
g62
(dp1013
g70
I4
ssg71
g1007
sg64
(lp1014
S'session_id_onlineexamination=127.0.0.1-b87cd992-95f3-4d75-a378-541b7c7540a9; session_id_admin=127.0.0.1-c12f25ca-a237-4e3a-8bce-2083c54da741'
p1015
asbasbasbag57
(g73
g59
NtRp1016
(dp1017
g62
(dp1018
sg71
g661
sg64
(lp1019
g57
(g78
g59
NtRp1020
(dp1021
g62
(dp1022
g82
g83
ssg71
g1016
sg64
(lp1023
S'http_host'
p1024
asbag57
(g78
g59
NtRp1025
(dp1026
g62
(dp1027
g89
g90
ssg71
g1016
sg64
(lp1028
S':'
asbag57
(g78
g59
NtRp1029
(dp1030
g62
(dp1031
sg71
g1016
sg64
(lp1032
g57
(g58
g59
NtRp1033
(dp1034
g62
(dp1035
g70
I4
ssg71
g1029
sg64
(lp1036
S'127.0.0.1:8000'
p1037
asbasbasbag57
(g73
g59
NtRp1038
(dp1039
g62
(dp1040
sg71
g661
sg64
(lp1041
g57
(g78
g59
NtRp1042
(dp1043
g62
(dp1044
g82
g83
ssg71
g1038
sg64
(lp1045
S'http_referer'
p1046
asbag57
(g78
g59
NtRp1047
(dp1048
g62
(dp1049
g89
g90
ssg71
g1038
sg64
(lp1050
S':'
asbag57
(g78
g59
NtRp1051
(dp1052
g62
(dp1053
sg71
g1038
sg64
(lp1054
g57
(g58
g59
NtRp1055
(dp1056
g62
(dp1057
g70
I4
ssg71
g1051
sg64
(lp1058
S'http://127.0.0.1:8000/OnlineExamination/default/F1'
p1059
asbasbasbag57
(g73
g59
NtRp1060
(dp1061
g62
(dp1062
sg71
g661
sg64
(lp1063
g57
(g78
g59
NtRp1064
(dp1065
g62
(dp1066
g82
g83
ssg71
g1060
sg64
(lp1067
S'http_user_agent'
p1068
asbag57
(g78
g59
NtRp1069
(dp1070
g62
(dp1071
g89
g90
ssg71
g1060
sg64
(lp1072
S':'
asbag57
(g78
g59
NtRp1073
(dp1074
g62
(dp1075
sg71
g1060
sg64
(lp1076
g57
(g58
g59
NtRp1077
(dp1078
g62
(dp1079
g70
I4
ssg71
g1073
sg64
(lp1080
S'Mozilla/5.0 (X11; Ubuntu; Linux x86_64; rv:20.0) Gecko/20100101 Firefox/20.0'
p1081
asbasbasbag57
(g73
g59
NtRp1082
(dp1083
g62
(dp1084
sg71
g661
sg64
(lp1085
g57
(g78
g59
NtRp1086
(dp1087
g62
(dp1088
g82
g83
ssg71
g1082
sg64
(lp1089
S'is_jython'
p1090
asbag57
(g78
g59
NtRp1091
(dp1092
g62
(dp1093
g89
g90
ssg71
g1082
sg64
(lp1094
S':'
asbag57
(g78
g59
NtRp1095
(dp1096
g62
(dp1097
sg71
g1082
sg64
(lp1098
g57
(g58
g59
NtRp1099
(dp1100
g62
(dp1101
g70
I4
ssg71
g1095
sg64
(lp1102
g100
asbasbasbag57
(g73
g59
NtRp1103
(dp1104
g62
(dp1105
sg71
g661
sg64
(lp1106
g57
(g78
g59
NtRp1107
(dp1108
g62
(dp1109
g82
g83
ssg71
g1103
sg64
(lp1110
S'is_pypy'
p1111
asbag57
(g78
g59
NtRp1112
(dp1113
g62
(dp1114
g89
g90
ssg71
g1103
sg64
(lp1115
S':'
asbag57
(g78
g59
NtRp1116
(dp1117
g62
(dp1118
sg71
g1103
sg64
(lp1119
g57
(g58
g59
NtRp1120
(dp1121
g62
(dp1122
g70
I4
ssg71
g1116
sg64
(lp1123
g100
asbasbasbag57
(g73
g59
NtRp1124
(dp1125
g62
(dp1126
sg71
g661
sg64
(lp1127
g57
(g78
g59
NtRp1128
(dp1129
g62
(dp1130
g82
g83
ssg71
g1124
sg64
(lp1131
S'local_hosts'
p1132
asbag57
(g78
g59
NtRp1133
(dp1134
g62
(dp1135
g89
g90
ssg71
g1124
sg64
(lp1136
S':'
asbag57
(g78
g59
NtRp1137
(dp1138
g62
(dp1139
sg71
g1124
sg64
(lp1140
g57
(g58
g59
NtRp1141
(dp1142
g62
(dp1143
g70
I4
ssg71
g1137
sg64
(lp1144
g57
(g66
g59
NtRp1145
(dp1146
g62
(dp1147
g70
I3
ssg71
Nsg64
(lp1148
g57
(g73
g59
NtRp1149
(dp1150
g62
(dp1151
sg71
g1145
sg64
(lp1152
g57
(g78
g59
NtRp1153
(dp1154
g62
(dp1155
sg71
g1149
sg64
(lp1156
g57
(g58
g59
NtRp1157
(dp1158
g62
(dp1159
g70
I3
ssg71
g1153
sg64
(lp1160
S'127.0.1.1'
p1161
asbasbasbag57
(g73
g59
NtRp1162
(dp1163
g62
(dp1164
sg71
g1145
sg64
(lp1165
g57
(g78
g59
NtRp1166
(dp1167
g62
(dp1168
sg71
g1162
sg64
(lp1169
g57
(g58
g59
NtRp1170
(dp1171
g62
(dp1172
g70
I3
ssg71
g1166
sg64
(lp1173
S'::1'
p1174
asbasbasbag57
(g73
g59
NtRp1175
(dp1176
g62
(dp1177
sg71
g1145
sg64
(lp1178
g57
(g78
g59
NtRp1179
(dp1180
g62
(dp1181
sg71
g1175
sg64
(lp1182
g57
(g58
g59
NtRp1183
(dp1184
g62
(dp1185
g70
I3
ssg71
g1179
sg64
(lp1186
S'saurabh-Inspiron-N4050'
p1187
asbasbasbag57
(g73
g59
NtRp1188
(dp1189
g62
(dp1190
sg71
g1145
sg64
(lp1191
g57
(g78
g59
NtRp1192
(dp1193
g62
(dp1194
sg71
g1188
sg64
(lp1195
g57
(g58
g59
NtRp1196
(dp1197
g62
(dp1198
g70
I3
ssg71
g1192
sg64
(lp1199
S'::ffff:127.0.0.1'
p1200
asbasbasbag57
(g73
g59
NtRp1201
(dp1202
g62
(dp1203
sg71
g1145
sg64
(lp1204
g57
(g78
g59
NtRp1205
(dp1206
g62
(dp1207
sg71
g1201
sg64
(lp1208
g57
(g58
g59
NtRp1209
(dp1210
g62
(dp1211
g70
I3
ssg71
g1205
sg64
(lp1212
S'127.0.0.1'
p1213
asbasbasbasbasbasbasbag57
(g73
g59
NtRp1214
(dp1215
g62
(dp1216
sg71
g661
sg64
(lp1217
g57
(g78
g59
NtRp1218
(dp1219
g62
(dp1220
g82
g83
ssg71
g1214
sg64
(lp1221
S'path_info'
p1222
asbag57
(g78
g59
NtRp1223
(dp1224
g62
(dp1225
g89
g90
ssg71
g1214
sg64
(lp1226
S':'
asbag57
(g78
g59
NtRp1227
(dp1228
g62
(dp1229
sg71
g1214
sg64
(lp1230
g57
(g58
g59
NtRp1231
(dp1232
g62
(dp1233
g70
I4
ssg71
g1227
sg64
(lp1234
S'/OnlineExamination/default/F2'
p1235
asbasbasbag57
(g73
g59
NtRp1236
(dp1237
g62
(dp1238
sg71
g661
sg64
(lp1239
g57
(g78
g59
NtRp1240
(dp1241
g62
(dp1242
g82
g83
ssg71
g1236
sg64
(lp1243
S'query_string'
p1244
asbag57
(g78
g59
NtRp1245
(dp1246
g62
(dp1247
g89
g90
ssg71
g1236
sg64
(lp1248
S':'
asbag57
(g78
g59
NtRp1249
(dp1250
g62
(dp1251
sg71
g1236
sg64
(lp1252
g57
(g58
g59
NtRp1253
(dp1254
g62
(dp1255
g70
I4
ssg71
g1249
sg64
(lp1256
S''
asbasbasbag57
(g73
g59
NtRp1257
(dp1258
g62
(dp1259
sg71
g661
sg64
(lp1260
g57
(g78
g59
NtRp1261
(dp1262
g62
(dp1263
g82
g83
ssg71
g1257
sg64
(lp1264
S'remote_addr'
p1265
asbag57
(g78
g59
NtRp1266
(dp1267
g62
(dp1268
g89
g90
ssg71
g1257
sg64
(lp1269
S':'
asbag57
(g78
g59
NtRp1270
(dp1271
g62
(dp1272
sg71
g1257
sg64
(lp1273
g57
(g58
g59
NtRp1274
(dp1275
g62
(dp1276
g70
I4
ssg71
g1270
sg64
(lp1277
g212
asbasbasbag57
(g73
g59
NtRp1278
(dp1279
g62
(dp1280
sg71
g661
sg64
(lp1281
g57
(g78
g59
NtRp1282
(dp1283
g62
(dp1284
g82
g83
ssg71
g1278
sg64
(lp1285
S'remote_port'
p1286
asbag57
(g78
g59
NtRp1287
(dp1288
g62
(dp1289
g89
g90
ssg71
g1278
sg64
(lp1290
S':'
asbag57
(g78
g59
NtRp1291
(dp1292
g62
(dp1293
sg71
g1278
sg64
(lp1294
g57
(g58
g59
NtRp1295
(dp1296
g62
(dp1297
g70
I4
ssg71
g1291
sg64
(lp1298
S'37627'
p1299
asbasbasbag57
(g73
g59
NtRp1300
(dp1301
g62
(dp1302
sg71
g661
sg64
(lp1303
g57
(g78
g59
NtRp1304
(dp1305
g62
(dp1306
g82
g83
ssg71
g1300
sg64
(lp1307
S'request_method'
p1308
asbag57
(g78
g59
NtRp1309
(dp1310
g62
(dp1311
g89
g90
ssg71
g1300
sg64
(lp1312
S':'
asbag57
(g78
g59
NtRp1313
(dp1314
g62
(dp1315
sg71
g1300
sg64
(lp1316
g57
(g58
g59
NtRp1317
(dp1318
g62
(dp1319
g70
I4
ssg71
g1313
sg64
(lp1320
S'POST'
p1321
asbasbasbag57
(g73
g59
NtRp1322
(dp1323
g62
(dp1324
sg71
g661
sg64
(lp1325
g57
(g78
g59
NtRp1326
(dp1327
g62
(dp1328
g82
g83
ssg71
g1322
sg64
(lp1329
S'request_uri'
p1330
asbag57
(g78
g59
NtRp1331
(dp1332
g62
(dp1333
g89
g90
ssg71
g1322
sg64
(lp1334
S':'
asbag57
(g78
g59
NtRp1335
(dp1336
g62
(dp1337
sg71
g1322
sg64
(lp1338
g57
(g58
g59
NtRp1339
(dp1340
g62
(dp1341
g70
I4
ssg71
g1335
sg64
(lp1342
g1235
asbasbasbag57
(g73
g59
NtRp1343
(dp1344
g62
(dp1345
sg71
g661
sg64
(lp1346
g57
(g78
g59
NtRp1347
(dp1348
g62
(dp1349
g82
g83
ssg71
g1343
sg64
(lp1350
S'script_name'
p1351
asbag57
(g78
g59
NtRp1352
(dp1353
g62
(dp1354
g89
g90
ssg71
g1343
sg64
(lp1355
S':'
asbag57
(g78
g59
NtRp1356
(dp1357
g62
(dp1358
sg71
g1343
sg64
(lp1359
g57
(g58
g59
NtRp1360
(dp1361
g62
(dp1362
g70
I4
ssg71
g1356
sg64
(lp1363
S''
asbasbasbag57
(g73
g59
NtRp1364
(dp1365
g62
(dp1366
sg71
g661
sg64
(lp1367
g57
(g78
g59
NtRp1368
(dp1369
g62
(dp1370
g82
g83
ssg71
g1364
sg64
(lp1371
S'server_name'
p1372
asbag57
(g78
g59
NtRp1373
(dp1374
g62
(dp1375
g89
g90
ssg71
g1364
sg64
(lp1376
S':'
asbag57
(g78
g59
NtRp1377
(dp1378
g62
(dp1379
sg71
g1364
sg64
(lp1380
g57
(g58
g59
NtRp1381
(dp1382
g62
(dp1383
g70
I4
ssg71
g1377
sg64
(lp1384
S'saurabh-Inspiron-N4050'
p1385
asbasbasbag57
(g73
g59
NtRp1386
(dp1387
g62
(dp1388
sg71
g661
sg64
(lp1389
g57
(g78
g59
NtRp1390
(dp1391
g62
(dp1392
g82
g83
ssg71
g1386
sg64
(lp1393
S'server_port'
p1394
asbag57
(g78
g59
NtRp1395
(dp1396
g62
(dp1397
g89
g90
ssg71
g1386
sg64
(lp1398
S':'
asbag57
(g78
g59
NtRp1399
(dp1400
g62
(dp1401
sg71
g1386
sg64
(lp1402
g57
(g58
g59
NtRp1403
(dp1404
g62
(dp1405
g70
I4
ssg71
g1399
sg64
(lp1406
S'8000'
p1407
asbasbasbag57
(g73
g59
NtRp1408
(dp1409
g62
(dp1410
sg71
g661
sg64
(lp1411
g57
(g78
g59
NtRp1412
(dp1413
g62
(dp1414
g82
g83
ssg71
g1408
sg64
(lp1415
S'server_protocol'
p1416
asbag57
(g78
g59
NtRp1417
(dp1418
g62
(dp1419
g89
g90
ssg71
g1408
sg64
(lp1420
S':'
asbag57
(g78
g59
NtRp1421
(dp1422
g62
(dp1423
sg71
g1408
sg64
(lp1424
g57
(g58
g59
NtRp1425
(dp1426
g62
(dp1427
g70
I4
ssg71
g1421
sg64
(lp1428
S'HTTP/1.1'
p1429
asbasbasbag57
(g73
g59
NtRp1430
(dp1431
g62
(dp1432
sg71
g661
sg64
(lp1433
g57
(g78
g59
NtRp1434
(dp1435
g62
(dp1436
g82
g83
ssg71
g1430
sg64
(lp1437
S'server_software'
p1438
asbag57
(g78
g59
NtRp1439
(dp1440
g62
(dp1441
g89
g90
ssg71
g1430
sg64
(lp1442
S':'
asbag57
(g78
g59
NtRp1443
(dp1444
g62
(dp1445
sg71
g1430
sg64
(lp1446
g57
(g58
g59
NtRp1447
(dp1448
g62
(dp1449
g70
I4
ssg71
g1443
sg64
(lp1450
S'Rocket 1.2.6'
p1451
asbasbasbag57
(g73
g59
NtRp1452
(dp1453
g62
(dp1454
sg71
g661
sg64
(lp1455
g57
(g78
g59
NtRp1456
(dp1457
g62
(dp1458
g82
g83
ssg71
g1452
sg64
(lp1459
S'web2py_path'
p1460
asbag57
(g78
g59
NtRp1461
(dp1462
g62
(dp1463
g89
g90
ssg71
g1452
sg64
(lp1464
S':'
asbag57
(g78
g59
NtRp1465
(dp1466
g62
(dp1467
sg71
g1452
sg64
(lp1468
g57
(g58
g59
NtRp1469
(dp1470
g62
(dp1471
g70
I4
ssg71
g1465
sg64
(lp1472
g708
asbasbasbag57
(g73
g59
NtRp1473
(dp1474
g62
(dp1475
sg71
g661
sg64
(lp1476
g57
(g78
g59
NtRp1477
(dp1478
g62
(dp1479
g82
g83
ssg71
g1473
sg64
(lp1480
S'web2py_version'
p1481
asbag57
(g78
g59
NtRp1482
(dp1483
g62
(dp1484
g89
g90
ssg71
g1473
sg64
(lp1485
S':'
asbag57
(g78
g59
NtRp1486
(dp1487
g62
(dp1488
sg71
g1473
sg64
(lp1489
g57
(g58
g59
NtRp1490
(dp1491
g62
(dp1492
g70
I4
ssg71
g1486
sg64
(lp1493
g57
(g66
g59
NtRp1494
(dp1495
g62
(dp1496
g70
I3
ssg71
Nsg64
(lp1497
g57
(g73
g59
NtRp1498
(dp1499
g62
(dp1500
sg71
g1494
sg64
(lp1501
g57
(g78
g59
NtRp1502
(dp1503
g62
(dp1504
sg71
g1498
sg64
(lp1505
g57
(g58
g59
NtRp1506
(dp1507
g62
(dp1508
g70
I3
ssg71
g1502
sg64
(lp1509
S'2'
asbasbasbag57
(g73
g59
NtRp1510
(dp1511
g62
(dp1512
sg71
g1494
sg64
(lp1513
g57
(g78
g59
NtRp1514
(dp1515
g62
(dp1516
sg71
g1510
sg64
(lp1517
g57
(g58
g59
NtRp1518
(dp1519
g62
(dp1520
g70
I3
ssg71
g1514
sg64
(lp1521
S'3'
asbasbasbag57
(g73
g59
NtRp1522
(dp1523
g62
(dp1524
sg71
g1494
sg64
(lp1525
g57
(g78
g59
NtRp1526
(dp1527
g62
(dp1528
sg71
g1522
sg64
(lp1529
g57
(g58
g59
NtRp1530
(dp1531
g62
(dp1532
g70
I3
ssg71
g1526
sg64
(lp1533
S'2'
asbasbasbag57
(g73
g59
NtRp1534
(dp1535
g62
(dp1536
sg71
g1494
sg64
(lp1537
g57
(g78
g59
NtRp1538
(dp1539
g62
(dp1540
sg71
g1534
sg64
(lp1541
g57
(g58
g59
NtRp1542
(dp1543
g62
(dp1544
g70
I3
ssg71
g1538
sg64
(lp1545
S'datetime.datetime(2012, 12, 17, 15, 3, 30)'
p1546
asbasbasbag57
(g73
g59
NtRp1547
(dp1548
g62
(dp1549
sg71
g1494
sg64
(lp1550
g57
(g78
g59
NtRp1551
(dp1552
g62
(dp1553
sg71
g1547
sg64
(lp1554
g57
(g58
g59
NtRp1555
(dp1556
g62
(dp1557
g70
I3
ssg71
g1551
sg64
(lp1558
S'stable'
p1559
asbasbasbasbasbasbasbag57
(g73
g59
NtRp1560
(dp1561
g62
(dp1562
sg71
g661
sg64
(lp1563
g57
(g78
g59
NtRp1564
(dp1565
g62
(dp1566
g82
g83
ssg71
g1560
sg64
(lp1567
S'wsgi_errors'
p1568
asbag57
(g78
g59
NtRp1569
(dp1570
g62
(dp1571
g89
g90
ssg71
g1560
sg64
(lp1572
S':'
asbag57
(g78
g59
NtRp1573
(dp1574
g62
(dp1575
sg71
g1560
sg64
(lp1576
g57
(g58
g59
NtRp1577
(dp1578
g62
(dp1579
g70
I4
ssg71
g1573
sg64
(lp1580
S"<open file '<stderr>', mode 'w' at 0x7f55cb1db270>"
p1581
asbasbasbag57
(g73
g59
NtRp1582
(dp1583
g62
(dp1584
sg71
g661
sg64
(lp1585
g57
(g78
g59
NtRp1586
(dp1587
g62
(dp1588
g82
g83
ssg71
g1582
sg64
(lp1589
S'wsgi_file_wrapper'
p1590
asbag57
(g78
g59
NtRp1591
(dp1592
g62
(dp1593
g89
g90
ssg71
g1582
sg64
(lp1594
S':'
asbag57
(g78
g59
NtRp1595
(dp1596
g62
(dp1597
sg71
g1582
sg64
(lp1598
g57
(g58
g59
NtRp1599
(dp1600
g62
(dp1601
g70
I4
ssg71
g1595
sg64
(lp1602
S'<class wsgiref.util.FileWrapper at 0x26bbc18>'
p1603
asbasbasbag57
(g73
g59
NtRp1604
(dp1605
g62
(dp1606
sg71
g661
sg64
(lp1607
g57
(g78
g59
NtRp1608
(dp1609
g62
(dp1610
g82
g83
ssg71
g1604
sg64
(lp1611
S'wsgi_input'
p1612
asbag57
(g78
g59
NtRp1613
(dp1614
g62
(dp1615
g89
g90
ssg71
g1604
sg64
(lp1616
S':'
asbag57
(g78
g59
NtRp1617
(dp1618
g62
(dp1619
sg71
g1604
sg64
(lp1620
g57
(g58
g59
NtRp1621
(dp1622
g62
(dp1623
g70
I4
ssg71
g1617
sg64
(lp1624
S'<socket._fileobject object at 0x7f55a430a750>'
p1625
asbasbasbag57
(g73
g59
NtRp1626
(dp1627
g62
(dp1628
sg71
g661
sg64
(lp1629
g57
(g78
g59
NtRp1630
(dp1631
g62
(dp1632
g82
g83
ssg71
g1626
sg64
(lp1633
S'wsgi_multiprocess'
p1634
asbag57
(g78
g59
NtRp1635
(dp1636
g62
(dp1637
g89
g90
ssg71
g1626
sg64
(lp1638
S':'
asbag57
(g78
g59
NtRp1639
(dp1640
g62
(dp1641
sg71
g1626
sg64
(lp1642
g57
(g58
g59
NtRp1643
(dp1644
g62
(dp1645
g70
I4
ssg71
g1639
sg64
(lp1646
g100
asbasbasbag57
(g73
g59
NtRp1647
(dp1648
g62
(dp1649
sg71
g661
sg64
(lp1650
g57
(g78
g59
NtRp1651
(dp1652
g62
(dp1653
g82
g83
ssg71
g1647
sg64
(lp1654
S'wsgi_multithread'
p1655
asbag57
(g78
g59
NtRp1656
(dp1657
g62
(dp1658
g89
g90
ssg71
g1647
sg64
(lp1659
S':'
asbag57
(g78
g59
NtRp1660
(dp1661
g62
(dp1662
sg71
g1647
sg64
(lp1663
g57
(g58
g59
NtRp1664
(dp1665
g62
(dp1666
g70
I4
ssg71
g1660
sg64
(lp1667
S'True'
p1668
asbasbasbag57
(g73
g59
NtRp1669
(dp1670
g62
(dp1671
sg71
g661
sg64
(lp1672
g57
(g78
g59
NtRp1673
(dp1674
g62
(dp1675
g82
g83
ssg71
g1669
sg64
(lp1676
S'wsgi_run_once'
p1677
asbag57
(g78
g59
NtRp1678
(dp1679
g62
(dp1680
g89
g90
ssg71
g1669
sg64
(lp1681
S':'
asbag57
(g78
g59
NtRp1682
(dp1683
g62
(dp1684
sg71
g1669
sg64
(lp1685
g57
(g58
g59
NtRp1686
(dp1687
g62
(dp1688
g70
I4
ssg71
g1682
sg64
(lp1689
g100
asbasbasbag57
(g73
g59
NtRp1690
(dp1691
g62
(dp1692
sg71
g661
sg64
(lp1693
g57
(g78
g59
NtRp1694
(dp1695
g62
(dp1696
g82
g83
ssg71
g1690
sg64
(lp1697
S'wsgi_url_scheme'
p1698
asbag57
(g78
g59
NtRp1699
(dp1700
g62
(dp1701
g89
g90
ssg71
g1690
sg64
(lp1702
S':'
asbag57
(g78
g59
NtRp1703
(dp1704
g62
(dp1705
sg71
g1690
sg64
(lp1706
g57
(g58
g59
NtRp1707
(dp1708
g62
(dp1709
g70
I4
ssg71
g1703
sg64
(lp1710
S'http'
p1711
asbasbasbag57
(g73
g59
NtRp1712
(dp1713
g62
(dp1714
sg71
g661
sg64
(lp1715
g57
(g78
g59
NtRp1716
(dp1717
g62
(dp1718
g82
g83
ssg71
g1712
sg64
(lp1719
S'wsgi_version'
p1720
asbag57
(g78
g59
NtRp1721
(dp1722
g62
(dp1723
g89
g90
ssg71
g1712
sg64
(lp1724
S':'
asbag57
(g78
g59
NtRp1725
(dp1726
g62
(dp1727
sg71
g1712
sg64
(lp1728
g57
(g58
g59
NtRp1729
(dp1730
g62
(dp1731
g70
I4
ssg71
g1725
sg64
(lp1732
g57
(g66
g59
NtRp1733
(dp1734
g62
(dp1735
g70
I3
ssg71
Nsg64
(lp1736
g57
(g73
g59
NtRp1737
(dp1738
g62
(dp1739
sg71
g1733
sg64
(lp1740
g57
(g78
g59
NtRp1741
(dp1742
g62
(dp1743
sg71
g1737
sg64
(lp1744
g57
(g58
g59
NtRp1745
(dp1746
g62
(dp1747
g70
I3
ssg71
g1741
sg64
(lp1748
S'1'
asbasbasbag57
(g73
g59
NtRp1749
(dp1750
g62
(dp1751
sg71
g1733
sg64
(lp1752
g57
(g78
g59
NtRp1753
(dp1754
g62
(dp1755
sg71
g1749
sg64
(lp1756
g57
(g58
g59
NtRp1757
(dp1758
g62
(dp1759
g70
I3
ssg71
g1753
sg64
(lp1760
S'0'
asbasbasbasbasbasbasbasbasbasbasbag57
(g73
g59
NtRp1761
(dp1762
g62
(dp1763
sg71
g67
sg64
(lp1764
g57
(g78
g59
NtRp1765
(dp1766
g62
(dp1767
g82
g83
ssg71
g1761
sg64
(lp1768
S'extension'
p1769
asbag57
(g78
g59
NtRp1770
(dp1771
g62
(dp1772
g89
g90
ssg71
g1761
sg64
(lp1773
S':'
asbag57
(g78
g59
NtRp1774
(dp1775
g62
(dp1776
sg71
g1761
sg64
(lp1777
g57
(g58
g59
NtRp1778
(dp1779
g62
(dp1780
g70
I5
ssg71
g1774
sg64
(lp1781
S'html'
p1782
asbasbasbag57
(g73
g59
NtRp1783
(dp1784
g62
(dp1785
sg71
g67
sg64
(lp1786
g57
(g78
g59
NtRp1787
(dp1788
g62
(dp1789
g82
g83
ssg71
g1783
sg64
(lp1790
S'folder'
p1791
asbag57
(g78
g59
NtRp1792
(dp1793
g62
(dp1794
g89
g90
ssg71
g1783
sg64
(lp1795
S':'
asbag57
(g78
g59
NtRp1796
(dp1797
g62
(dp1798
sg71
g1783
sg64
(lp1799
g57
(g58
g59
NtRp1800
(dp1801
g62
(dp1802
g70
I5
ssg71
g1796
sg64
(lp1803
S'/home/saurabh/web2py/applications/OnlineExamination/'
p1804
asbasbasbag57
(g73
g59
NtRp1805
(dp1806
g62
(dp1807
sg71
g67
sg64
(lp1808
g57
(g78
g59
NtRp1809
(dp1810
g62
(dp1811
g82
g83
ssg71
g1805
sg64
(lp1812
S'function'
p1813
asbag57
(g78
g59
NtRp1814
(dp1815
g62
(dp1816
g89
g90
ssg71
g1805
sg64
(lp1817
S':'
asbag57
(g78
g59
NtRp1818
(dp1819
g62
(dp1820
sg71
g1805
sg64
(lp1821
g57
(g58
g59
NtRp1822
(dp1823
g62
(dp1824
g70
I5
ssg71
g1818
sg64
(lp1825
S'F2'
p1826
asbasbasbag57
(g73
g59
NtRp1827
(dp1828
g62
(dp1829
sg71
g67
sg64
(lp1830
g57
(g78
g59
NtRp1831
(dp1832
g62
(dp1833
g82
g83
ssg71
g1827
sg64
(lp1834
S'get_vars'
p1835
asbag57
(g78
g59
NtRp1836
(dp1837
g62
(dp1838
g89
g90
ssg71
g1827
sg64
(lp1839
S':'
asbag57
(g78
g59
NtRp1840
(dp1841
g62
(dp1842
sg71
g1827
sg64
(lp1843
g57
(g58
g59
NtRp1844
(dp1845
g62
(dp1846
g70
I5
ssg71
g1840
sg64
(lp1847
g57
(g66
g59
NtRp1848
(dp1849
g62
(dp1850
g70
I4
ssg71
Nsg64
(lp1851
sbasbasbasbag57
(g73
g59
NtRp1852
(dp1853
g62
(dp1854
sg71
g67
sg64
(lp1855
g57
(g78
g59
NtRp1856
(dp1857
g62
(dp1858
g82
g83
ssg71
g1852
sg64
(lp1859
S'global_settings'
p1860
asbag57
(g78
g59
NtRp1861
(dp1862
g62
(dp1863
g89
g90
ssg71
g1852
sg64
(lp1864
S':'
asbag57
(g78
g59
NtRp1865
(dp1866
g62
(dp1867
sg71
g1852
sg64
(lp1868
g57
(g58
g59
NtRp1869
(dp1870
g62
(dp1871
g70
I5
ssg71
g1865
sg64
(lp1872
g57
(g66
g59
NtRp1873
(dp1874
g62
(dp1875
g70
I4
ssg71
Nsg64
(lp1876
g57
(g73
g59
NtRp1877
(dp1878
g62
(dp1879
sg71
g1873
sg64
(lp1880
g57
(g78
g59
NtRp1881
(dp1882
g62
(dp1883
g82
g83
ssg71
g1877
sg64
(lp1884
g673
asbag57
(g78
g59
NtRp1885
(dp1886
g62
(dp1887
g89
g90
ssg71
g1877
sg64
(lp1888
S':'
asbag57
(g78
g59
NtRp1889
(dp1890
g62
(dp1891
sg71
g1877
sg64
(lp1892
g57
(g58
g59
NtRp1893
(dp1894
g62
(dp1895
g70
I4
ssg71
g1889
sg64
(lp1896
S"set(['/home/saurabh/web2py/applications/admin/', '/home/saurabh/web2py/applications/OnlineExamination/', '/home/saurabh/web2py/applications/welcome/'])"
p1897
asbasbasbag57
(g73
g59
NtRp1898
(dp1899
g62
(dp1900
sg71
g1873
sg64
(lp1901
g57
(g78
g59
NtRp1902
(dp1903
g62
(dp1904
g82
g83
ssg71
g1898
sg64
(lp1905
g695
asbag57
(g78
g59
NtRp1906
(dp1907
g62
(dp1908
g89
g90
ssg71
g1898
sg64
(lp1909
S':'
asbag57
(g78
g59
NtRp1910
(dp1911
g62
(dp1912
sg71
g1898
sg64
(lp1913
g57
(g58
g59
NtRp1914
(dp1915
g62
(dp1916
g70
I4
ssg71
g1910
sg64
(lp1917
g708
asbasbasbag57
(g73
g59
NtRp1918
(dp1919
g62
(dp1920
sg71
g1873
sg64
(lp1921
g57
(g78
g59
NtRp1922
(dp1923
g62
(dp1924
g82
g83
ssg71
g1918
sg64
(lp1925
g717
asbag57
(g78
g59
NtRp1926
(dp1927
g62
(dp1928
g89
g90
ssg71
g1918
sg64
(lp1929
S':'
asbag57
(g78
g59
NtRp1930
(dp1931
g62
(dp1932
sg71
g1918
sg64
(lp1933
g57
(g58
g59
NtRp1934
(dp1935
g62
(dp1936
g70
I4
ssg71
g1930
sg64
(lp1937
g57
(g66
g59
NtRp1938
(dp1939
g62
(dp1940
g70
I3
ssg71
Nsg64
(lp1941
sbasbasbasbag57
(g73
g59
NtRp1942
(dp1943
g62
(dp1944
sg71
g1873
sg64
(lp1945
g57
(g78
g59
NtRp1946
(dp1947
g62
(dp1948
g82
g83
ssg71
g1942
sg64
(lp1949
g742
asbag57
(g78
g59
NtRp1950
(dp1951
g62
(dp1952
g89
g90
ssg71
g1942
sg64
(lp1953
S':'
asbag57
(g78
g59
NtRp1954
(dp1955
g62
(dp1956
sg71
g1942
sg64
(lp1957
g57
(g58
g59
NtRp1958
(dp1959
g62
(dp1960
g70
I4
ssg71
g1954
sg64
(lp1961
S"<Values at 0x27518c0: {'verbose': False, 'ip': '127.0.0.1', 'with_scheduler': False, 'ips': [], 'shutdown_timeout': 5, 'taskbar': False, 'port': 8000, 'maxthreads': None, 'softcron': False, 'server_name': 'saurabh-Inspiron-N4050', 'bpython': False, 'nogui': False, 'pid_filename': 'httpserver.pid', 'extcron': False, 'runcron': False, 'run_system_tests': False, 'test': None, 'folder': '/home/saurabh/web2py', 'config': '', 'minthreads': None, 'winservice': '', 'shell': None, 'run': '', 'log_filename': 'httpserver.log', 'debuglevel': 30, 'args': [''], 'socket_timeout': 5, 'ssl_ca_certificate': None, 'scheduler': None, 'profiler_filename': None, 'ssl_private_key': '', 'scheduler_groups': None, 'password': '<ask>', 'request_queue_size': 5, 'ssl_certificate': '', 'cronjob': False, 'numthreads': None, 'quiet': False, 'interfaces': None, 'import_models': False, 'timeout': 10, 'plain': False, 'nobanner': False}>"
p1962
asbasbasbag57
(g73
g59
NtRp1963
(dp1964
g62
(dp1965
sg71
g1873
sg64
(lp1966
g57
(g78
g59
NtRp1967
(dp1968
g62
(dp1969
g82
g83
ssg71
g1963
sg64
(lp1970
g807
asbag57
(g78
g59
NtRp1971
(dp1972
g62
(dp1973
g89
g90
ssg71
g1963
sg64
(lp1974
S':'
asbag57
(g78
g59
NtRp1975
(dp1976
g62
(dp1977
sg71
g1963
sg64
(lp1978
g57
(g58
g59
NtRp1979
(dp1980
g62
(dp1981
g70
I4
ssg71
g1975
sg64
(lp1982
S'set([])'
p1983
asbasbasbag57
(g73
g59
NtRp1984
(dp1985
g62
(dp1986
sg71
g1873
sg64
(lp1987
g57
(g78
g59
NtRp1988
(dp1989
g62
(dp1990
g82
g83
ssg71
g1984
sg64
(lp1991
g829
asbag57
(g78
g59
NtRp1992
(dp1993
g62
(dp1994
g89
g90
ssg71
g1984
sg64
(lp1995
S':'
asbag57
(g78
g59
NtRp1996
(dp1997
g62
(dp1998
sg71
g1984
sg64
(lp1999
g57
(g58
g59
NtRp2000
(dp2001
g62
(dp2002
g70
I4
ssg71
g1996
sg64
(lp2003
g100
asbasbasbag57
(g73
g59
NtRp2004
(dp2005
g62
(dp2006
sg71
g1873
sg64
(lp2007
g57
(g78
g59
NtRp2008
(dp2009
g62
(dp2010
g82
g83
ssg71
g2004
sg64
(lp2011
g850
asbag57
(g78
g59
NtRp2012
(dp2013
g62
(dp2014
g89
g90
ssg71
g2004
sg64
(lp2015
S':'
asbag57
(g78
g59
NtRp2016
(dp2017
g62
(dp2018
sg71
g2004
sg64
(lp2019
g57
(g58
g59
NtRp2020
(dp2021
g62
(dp2022
g70
I4
ssg71
g2016
sg64
(lp2023
g863
asbasbasbag57
(g73
g59
NtRp2024
(dp2025
g62
(dp2026
sg71
g1873
sg64
(lp2027
g57
(g78
g59
NtRp2028
(dp2029
g62
(dp2030
g82
g83
ssg71
g2024
sg64
(lp2031
g1090
asbag57
(g78
g59
NtRp2032
(dp2033
g62
(dp2034
g89
g90
ssg71
g2024
sg64
(lp2035
S':'
asbag57
(g78
g59
NtRp2036
(dp2037
g62
(dp2038
sg71
g2024
sg64
(lp2039
g57
(g58
g59
NtRp2040
(dp2041
g62
(dp2042
g70
I4
ssg71
g2036
sg64
(lp2043
g100
asbasbasbag57
(g73
g59
NtRp2044
(dp2045
g62
(dp2046
sg71
g1873
sg64
(lp2047
g57
(g78
g59
NtRp2048
(dp2049
g62
(dp2050
g82
g83
ssg71
g2044
sg64
(lp2051
g1111
asbag57
(g78
g59
NtRp2052
(dp2053
g62
(dp2054
g89
g90
ssg71
g2044
sg64
(lp2055
S':'
asbag57
(g78
g59
NtRp2056
(dp2057
g62
(dp2058
sg71
g2044
sg64
(lp2059
g57
(g58
g59
NtRp2060
(dp2061
g62
(dp2062
g70
I4
ssg71
g2056
sg64
(lp2063
g100
asbasbasbag57
(g73
g59
NtRp2064
(dp2065
g62
(dp2066
sg71
g1873
sg64
(lp2067
g57
(g78
g59
NtRp2068
(dp2069
g62
(dp2070
g82
g83
ssg71
g2064
sg64
(lp2071
g1132
asbag57
(g78
g59
NtRp2072
(dp2073
g62
(dp2074
g89
g90
ssg71
g2064
sg64
(lp2075
S':'
asbag57
(g78
g59
NtRp2076
(dp2077
g62
(dp2078
sg71
g2064
sg64
(lp2079
g57
(g58
g59
NtRp2080
(dp2081
g62
(dp2082
g70
I4
ssg71
g2076
sg64
(lp2083
g57
(g66
g59
NtRp2084
(dp2085
g62
(dp2086
g70
I3
ssg71
Nsg64
(lp2087
g57
(g73
g59
NtRp2088
(dp2089
g62
(dp2090
sg71
g2084
sg64
(lp2091
g57
(g78
g59
NtRp2092
(dp2093
g62
(dp2094
sg71
g2088
sg64
(lp2095
g57
(g58
g59
NtRp2096
(dp2097
g62
(dp2098
g70
I3
ssg71
g2092
sg64
(lp2099
g1161
asbasbasbag57
(g73
g59
NtRp2100
(dp2101
g62
(dp2102
sg71
g2084
sg64
(lp2103
g57
(g78
g59
NtRp2104
(dp2105
g62
(dp2106
sg71
g2100
sg64
(lp2107
g57
(g58
g59
NtRp2108
(dp2109
g62
(dp2110
g70
I3
ssg71
g2104
sg64
(lp2111
g1174
asbasbasbag57
(g73
g59
NtRp2112
(dp2113
g62
(dp2114
sg71
g2084
sg64
(lp2115
g57
(g78
g59
NtRp2116
(dp2117
g62
(dp2118
sg71
g2112
sg64
(lp2119
g57
(g58
g59
NtRp2120
(dp2121
g62
(dp2122
g70
I3
ssg71
g2116
sg64
(lp2123
g1187
asbasbasbag57
(g73
g59
NtRp2124
(dp2125
g62
(dp2126
sg71
g2084
sg64
(lp2127
g57
(g78
g59
NtRp2128
(dp2129
g62
(dp2130
sg71
g2124
sg64
(lp2131
g57
(g58
g59
NtRp2132
(dp2133
g62
(dp2134
g70
I3
ssg71
g2128
sg64
(lp2135
g1200
asbasbasbag57
(g73
g59
NtRp2136
(dp2137
g62
(dp2138
sg71
g2084
sg64
(lp2139
g57
(g78
g59
NtRp2140
(dp2141
g62
(dp2142
sg71
g2136
sg64
(lp2143
g57
(g58
g59
NtRp2144
(dp2145
g62
(dp2146
g70
I3
ssg71
g2140
sg64
(lp2147
g1213
asbasbasbasbasbasbasbag57
(g73
g59
NtRp2148
(dp2149
g62
(dp2150
sg71
g1873
sg64
(lp2151
g57
(g78
g59
NtRp2152
(dp2153
g62
(dp2154
g82
g83
ssg71
g2148
sg64
(lp2155
g1481
asbag57
(g78
g59
NtRp2156
(dp2157
g62
(dp2158
g89
g90
ssg71
g2148
sg64
(lp2159
S':'
asbag57
(g78
g59
NtRp2160
(dp2161
g62
(dp2162
sg71
g2148
sg64
(lp2163
g57
(g58
g59
NtRp2164
(dp2165
g62
(dp2166
g70
I4
ssg71
g2160
sg64
(lp2167
g57
(g66
g59
NtRp2168
(dp2169
g62
(dp2170
g70
I3
ssg71
Nsg64
(lp2171
g57
(g73
g59
NtRp2172
(dp2173
g62
(dp2174
sg71
g2168
sg64
(lp2175
g57
(g78
g59
NtRp2176
(dp2177
g62
(dp2178
sg71
g2172
sg64
(lp2179
g57
(g58
g59
NtRp2180
(dp2181
g62
(dp2182
g70
I3
ssg71
g2176
sg64
(lp2183
S'2'
asbasbasbag57
(g73
g59
NtRp2184
(dp2185
g62
(dp2186
sg71
g2168
sg64
(lp2187
g57
(g78
g59
NtRp2188
(dp2189
g62
(dp2190
sg71
g2184
sg64
(lp2191
g57
(g58
g59
NtRp2192
(dp2193
g62
(dp2194
g70
I3
ssg71
g2188
sg64
(lp2195
S'3'
asbasbasbag57
(g73
g59
NtRp2196
(dp2197
g62
(dp2198
sg71
g2168
sg64
(lp2199
g57
(g78
g59
NtRp2200
(dp2201
g62
(dp2202
sg71
g2196
sg64
(lp2203
g57
(g58
g59
NtRp2204
(dp2205
g62
(dp2206
g70
I3
ssg71
g2200
sg64
(lp2207
S'2'
asbasbasbag57
(g73
g59
NtRp2208
(dp2209
g62
(dp2210
sg71
g2168
sg64
(lp2211
g57
(g78
g59
NtRp2212
(dp2213
g62
(dp2214
sg71
g2208
sg64
(lp2215
g57
(g58
g59
NtRp2216
(dp2217
g62
(dp2218
g70
I3
ssg71
g2212
sg64
(lp2219
S'datetime.datetime(2012, 12, 17, 15, 3, 30)'
p2220
asbasbasbag57
(g73
g59
NtRp2221
(dp2222
g62
(dp2223
sg71
g2168
sg64
(lp2224
g57
(g78
g59
NtRp2225
(dp2226
g62
(dp2227
sg71
g2221
sg64
(lp2228
g57
(g58
g59
NtRp2229
(dp2230
g62
(dp2231
g70
I3
ssg71
g2225
sg64
(lp2232
g1559
asbasbasbasbasbasbasbasbasbasbasbag57
(g73
g59
NtRp2233
(dp2234
g62
(dp2235
sg71
g67
sg64
(lp2236
g57
(g78
g59
NtRp2237
(dp2238
g62
(dp2239
g82
g83
ssg71
g2233
sg64
(lp2240
S'is_https'
p2241
asbag57
(g78
g59
NtRp2242
(dp2243
g62
(dp2244
g89
g90
ssg71
g2233
sg64
(lp2245
S':'
asbag57
(g78
g59
NtRp2246
(dp2247
g62
(dp2248
sg71
g2233
sg64
(lp2249
g57
(g58
g59
NtRp2250
(dp2251
g62
(dp2252
g70
I5
ssg71
g2246
sg64
(lp2253
g100
asbasbasbag57
(g73
g59
NtRp2254
(dp2255
g62
(dp2256
sg71
g67
sg64
(lp2257
g57
(g78
g59
NtRp2258
(dp2259
g62
(dp2260
g82
g83
ssg71
g2254
sg64
(lp2261
S'is_local'
p2262
asbag57
(g78
g59
NtRp2263
(dp2264
g62
(dp2265
g89
g90
ssg71
g2254
sg64
(lp2266
S':'
asbag57
(g78
g59
NtRp2267
(dp2268
g62
(dp2269
sg71
g2254
sg64
(lp2270
g57
(g58
g59
NtRp2271
(dp2272
g62
(dp2273
g70
I5
ssg71
g2267
sg64
(lp2274
g1668
asbasbasbag57
(g73
g59
NtRp2275
(dp2276
g62
(dp2277
sg71
g67
sg64
(lp2278
g57
(g78
g59
NtRp2279
(dp2280
g62
(dp2281
g82
g83
ssg71
g2275
sg64
(lp2282
S'is_restful'
p2283
asbag57
(g78
g59
NtRp2284
(dp2285
g62
(dp2286
g89
g90
ssg71
g2275
sg64
(lp2287
S':'
asbag57
(g78
g59
NtRp2288
(dp2289
g62
(dp2290
sg71
g2275
sg64
(lp2291
g57
(g58
g59
NtRp2292
(dp2293
g62
(dp2294
g70
I5
ssg71
g2288
sg64
(lp2295
g100
asbasbasbag57
(g73
g59
NtRp2296
(dp2297
g62
(dp2298
sg71
g67
sg64
(lp2299
g57
(g78
g59
NtRp2300
(dp2301
g62
(dp2302
g82
g83
ssg71
g2296
sg64
(lp2303
S'now'
p2304
asbag57
(g78
g59
NtRp2305
(dp2306
g62
(dp2307
g89
g90
ssg71
g2296
sg64
(lp2308
S':'
asbag57
(g78
g59
NtRp2309
(dp2310
g62
(dp2311
sg71
g2296
sg64
(lp2312
g57
(g58
g59
NtRp2313
(dp2314
g62
(dp2315
g70
I5
ssg71
g2309
sg64
(lp2316
S'datetime.datetime(2013, 4, 18, 23, 48, 28, 80202)'
p2317
asbasbasbag57
(g73
g59
NtRp2318
(dp2319
g62
(dp2320
sg71
g67
sg64
(lp2321
g57
(g78
g59
NtRp2322
(dp2323
g62
(dp2324
g82
g83
ssg71
g2318
sg64
(lp2325
S'post_vars'
p2326
asbag57
(g78
g59
NtRp2327
(dp2328
g62
(dp2329
g89
g90
ssg71
g2318
sg64
(lp2330
S':'
asbag57
(g78
g59
NtRp2331
(dp2332
g62
(dp2333
sg71
g2318
sg64
(lp2334
g57
(g58
g59
NtRp2335
(dp2336
g62
(dp2337
g70
I5
ssg71
g2331
sg64
(lp2338
g57
(g66
g59
NtRp2339
(dp2340
g62
(dp2341
g70
I4
ssg71
Nsg64
(lp2342
g57
(g73
g59
NtRp2343
(dp2344
g62
(dp2345
sg71
g2339
sg64
(lp2346
g57
(g78
g59
NtRp2347
(dp2348
g62
(dp2349
g82
g83
ssg71
g2343
sg64
(lp2350
S'id'
p2351
asbag57
(g78
g59
NtRp2352
(dp2353
g62
(dp2354
g89
g90
ssg71
g2343
sg64
(lp2355
S':'
asbag57
(g78
g59
NtRp2356
(dp2357
g62
(dp2358
sg71
g2343
sg64
(lp2359
g57
(g58
g59
NtRp2360
(dp2361
g62
(dp2362
g70
I4
ssg71
g2356
sg64
(lp2363
S'5'
asbasbasbasbasbasbasbag57
(g73
g59
NtRp2364
(dp2365
g62
(dp2366
sg71
g67
sg64
(lp2367
g57
(g78
g59
NtRp2368
(dp2369
g62
(dp2370
g82
g83
ssg71
g2364
sg64
(lp2371
S'raw_args'
p2372
asbag57
(g78
g59
NtRp2373
(dp2374
g62
(dp2375
g89
g90
ssg71
g2364
sg64
(lp2376
S':'
asbag57
(g78
g59
NtRp2377
(dp2378
g62
(dp2379
sg71
g2364
sg64
(lp2380
g57
(g58
g59
NtRp2381
(dp2382
g62
(dp2383
g70
I5
ssg71
g2377
sg64
(lp2384
S''
asbasbasbag57
(g73
g59
NtRp2385
(dp2386
g62
(dp2387
sg71
g67
sg64
(lp2388
g57
(g78
g59
NtRp2389
(dp2390
g62
(dp2391
g82
g83
ssg71
g2385
sg64
(lp2392
S'raw_extension'
p2393
asbag57
(g78
g59
NtRp2394
(dp2395
g62
(dp2396
g89
g90
ssg71
g2385
sg64
(lp2397
S':'
asbag57
(g78
g59
NtRp2398
(dp2399
g62
(dp2400
sg71
g2385
sg64
(lp2401
g57
(g58
g59
NtRp2402
(dp2403
g62
(dp2404
g70
I5
ssg71
g2398
sg64
(lp2405
S'None'
p2406
asbasbasbag57
(g73
g59
NtRp2407
(dp2408
g62
(dp2409
sg71
g67
sg64
(lp2410
g57
(g78
g59
NtRp2411
(dp2412
g62
(dp2413
g82
g83
ssg71
g2407
sg64
(lp2414
S'url'
p2415
asbag57
(g78
g59
NtRp2416
(dp2417
g62
(dp2418
g89
g90
ssg71
g2407
sg64
(lp2419
S':'
asbag57
(g78
g59
NtRp2420
(dp2421
g62
(dp2422
sg71
g2407
sg64
(lp2423
g57
(g58
g59
NtRp2424
(dp2425
g62
(dp2426
g70
I5
ssg71
g2420
sg64
(lp2427
g1235
asbasbasbag57
(g73
g59
NtRp2428
(dp2429
g62
(dp2430
sg71
g67
sg64
(lp2431
g57
(g78
g59
NtRp2432
(dp2433
g62
(dp2434
g82
g83
ssg71
g2428
sg64
(lp2435
S'utcnow'
p2436
asbag57
(g78
g59
NtRp2437
(dp2438
g62
(dp2439
g89
g90
ssg71
g2428
sg64
(lp2440
S':'
asbag57
(g78
g59
NtRp2441
(dp2442
g62
(dp2443
sg71
g2428
sg64
(lp2444
g57
(g58
g59
NtRp2445
(dp2446
g62
(dp2447
g70
I5
ssg71
g2441
sg64
(lp2448
S'datetime.datetime(2013, 4, 18, 18, 18, 28, 80236)'
p2449
asbasbasbag57
(g73
g59
NtRp2450
(dp2451
g62
(dp2452
sg71
g67
sg64
(lp2453
g57
(g78
g59
NtRp2454
(dp2455
g62
(dp2456
g82
g83
ssg71
g2450
sg64
(lp2457
S'uuid'
p2458
asbag57
(g78
g59
NtRp2459
(dp2460
g62
(dp2461
g89
g90
ssg71
g2450
sg64
(lp2462
S':'
asbag57
(g78
g59
NtRp2463
(dp2464
g62
(dp2465
sg71
g2450
sg64
(lp2466
g57
(g58
g59
NtRp2467
(dp2468
g62
(dp2469
g70
I5
ssg71
g2463
sg64
(lp2470
S'OnlineExamination/127.0.0.1.2013-04-18.23-48-28.b0b41188-3d28-4678-a533-605af37ea506'
p2471
asbasbasbag57
(g73
g59
NtRp2472
(dp2473
g62
(dp2474
sg71
g67
sg64
(lp2475
g57
(g78
g59
NtRp2476
(dp2477
g62
(dp2478
g82
g83
ssg71
g2472
sg64
(lp2479
S'vars'
p2480
asbag57
(g78
g59
NtRp2481
(dp2482
g62
(dp2483
g89
g90
ssg71
g2472
sg64
(lp2484
S':'
asbag57
(g78
g59
NtRp2485
(dp2486
g62
(dp2487
sg71
g2472
sg64
(lp2488
g57
(g58
g59
NtRp2489
(dp2490
g62
(dp2491
g70
I5
ssg71
g2485
sg64
(lp2492
g57
(g66
g59
NtRp2493
(dp2494
g62
(dp2495
g70
I4
ssg71
Nsg64
(lp2496
g57
(g73
g59
NtRp2497
(dp2498
g62
(dp2499
sg71
g2493
sg64
(lp2500
g57
(g78
g59
NtRp2501
(dp2502
g62
(dp2503
g82
g83
ssg71
g2497
sg64
(lp2504
g2351
asbag57
(g78
g59
NtRp2505
(dp2506
g62
(dp2507
g89
g90
ssg71
g2497
sg64
(lp2508
S':'
asbag57
(g78
g59
NtRp2509
(dp2510
g62
(dp2511
sg71
g2497
sg64
(lp2512
g57
(g58
g59
NtRp2513
(dp2514
g62
(dp2515
g70
I4
ssg71
g2509
sg64
(lp2516
S'5'
asbasbasbasbasbasbasbag57
(g73
g59
NtRp2517
(dp2518
g62
(dp2519
sg71
g67
sg64
(lp2520
g57
(g78
g59
NtRp2521
(dp2522
g62
(dp2523
g82
g83
ssg71
g2517
sg64
(lp2524
S'wsgi'
p2525
asbag57
(g78
g59
NtRp2526
(dp2527
g62
(dp2528
g89
g90
ssg71
g2517
sg64
(lp2529
S':'
asbag57
(g78
g59
NtRp2530
(dp2531
g62
(dp2532
sg71
g2517
sg64
(lp2533
g57
(g58
g59
NtRp2534
(dp2535
g62
(dp2536
g70
I5
ssg71
g2530
sg64
(lp2537
g57
(g66
g59
NtRp2538
(dp2539
g62
(dp2540
g70
I4
ssg71
Nsg64
(lp2541
g57
(g73
g59
NtRp2542
(dp2543
g62
(dp2544
sg71
g2538
sg64
(lp2545
g57
(g78
g59
NtRp2546
(dp2547
g62
(dp2548
g82
g83
ssg71
g2542
sg64
(lp2549
S'environ'
p2550
asbag57
(g78
g59
NtRp2551
(dp2552
g62
(dp2553
g89
g90
ssg71
g2542
sg64
(lp2554
S':'
asbag57
(g78
g59
NtRp2555
(dp2556
g62
(dp2557
sg71
g2542
sg64
(lp2558
g57
(g58
g59
NtRp2559
(dp2560
g62
(dp2561
g70
I4
ssg71
g2555
sg64
(lp2562
g57
(g66
g59
NtRp2563
(dp2564
g62
(dp2565
g70
I3
ssg71
Nsg64
(lp2566
g57
(g73
g59
NtRp2567
(dp2568
g62
(dp2569
sg71
g2563
sg64
(lp2570
g57
(g78
g59
NtRp2571
(dp2572
g62
(dp2573
g82
g83
ssg71
g2567
sg64
(lp2574
S'CONTENT_LENGTH'
p2575
asbag57
(g78
g59
NtRp2576
(dp2577
g62
(dp2578
g89
g90
ssg71
g2567
sg64
(lp2579
S':'
asbag57
(g78
g59
NtRp2580
(dp2581
g62
(dp2582
sg71
g2567
sg64
(lp2583
g57
(g58
g59
NtRp2584
(dp2585
g62
(dp2586
g70
I3
ssg71
g2580
sg64
(lp2587
S'4'
asbasbasbag57
(g73
g59
NtRp2588
(dp2589
g62
(dp2590
sg71
g2563
sg64
(lp2591
g57
(g78
g59
NtRp2592
(dp2593
g62
(dp2594
g82
g83
ssg71
g2588
sg64
(lp2595
S'CONTENT_TYPE'
p2596
asbag57
(g78
g59
NtRp2597
(dp2598
g62
(dp2599
g89
g90
ssg71
g2588
sg64
(lp2600
S':'
asbag57
(g78
g59
NtRp2601
(dp2602
g62
(dp2603
sg71
g2588
sg64
(lp2604
g57
(g58
g59
NtRp2605
(dp2606
g62
(dp2607
g70
I3
ssg71
g2601
sg64
(lp2608
g798
asbasbasbag57
(g73
g59
NtRp2609
(dp2610
g62
(dp2611
sg71
g2563
sg64
(lp2612
g57
(g78
g59
NtRp2613
(dp2614
g62
(dp2615
g82
g83
ssg71
g2609
sg64
(lp2616
S'HTTP_ACCEPT'
p2617
asbag57
(g78
g59
NtRp2618
(dp2619
g62
(dp2620
g89
g90
ssg71
g2609
sg64
(lp2621
S':'
asbag57
(g78
g59
NtRp2622
(dp2623
g62
(dp2624
sg71
g2609
sg64
(lp2625
g57
(g58
g59
NtRp2626
(dp2627
g62
(dp2628
g70
I3
ssg71
g2622
sg64
(lp2629
g885
asbasbasbag57
(g73
g59
NtRp2630
(dp2631
g62
(dp2632
sg71
g2563
sg64
(lp2633
g57
(g78
g59
NtRp2634
(dp2635
g62
(dp2636
g82
g83
ssg71
g2630
sg64
(lp2637
S'HTTP_ACCEPT_ENCODING'
p2638
asbag57
(g78
g59
NtRp2639
(dp2640
g62
(dp2641
g89
g90
ssg71
g2630
sg64
(lp2642
S':'
asbag57
(g78
g59
NtRp2643
(dp2644
g62
(dp2645
sg71
g2630
sg64
(lp2646
g57
(g58
g59
NtRp2647
(dp2648
g62
(dp2649
g70
I3
ssg71
g2643
sg64
(lp2650
g907
asbasbasbag57
(g73
g59
NtRp2651
(dp2652
g62
(dp2653
sg71
g2563
sg64
(lp2654
g57
(g78
g59
NtRp2655
(dp2656
g62
(dp2657
g82
g83
ssg71
g2651
sg64
(lp2658
S'HTTP_ACCEPT_LANGUAGE'
p2659
asbag57
(g78
g59
NtRp2660
(dp2661
g62
(dp2662
g89
g90
ssg71
g2651
sg64
(lp2663
S':'
asbag57
(g78
g59
NtRp2664
(dp2665
g62
(dp2666
sg71
g2651
sg64
(lp2667
g57
(g58
g59
NtRp2668
(dp2669
g62
(dp2670
g70
I3
ssg71
g2664
sg64
(lp2671
g929
asbasbasbag57
(g73
g59
NtRp2672
(dp2673
g62
(dp2674
sg71
g2563
sg64
(lp2675
g57
(g78
g59
NtRp2676
(dp2677
g62
(dp2678
g82
g83
ssg71
g2672
sg64
(lp2679
S'HTTP_CONNECTION'
p2680
asbag57
(g78
g59
NtRp2681
(dp2682
g62
(dp2683
g89
g90
ssg71
g2672
sg64
(lp2684
S':'
asbag57
(g78
g59
NtRp2685
(dp2686
g62
(dp2687
sg71
g2672
sg64
(lp2688
g57
(g58
g59
NtRp2689
(dp2690
g62
(dp2691
g70
I3
ssg71
g2685
sg64
(lp2692
g951
asbasbasbag57
(g73
g59
NtRp2693
(dp2694
g62
(dp2695
sg71
g2563
sg64
(lp2696
g57
(g78
g59
NtRp2697
(dp2698
g62
(dp2699
g82
g83
ssg71
g2693
sg64
(lp2700
S'HTTP_CONTENT_LENGTH'
p2701
asbag57
(g78
g59
NtRp2702
(dp2703
g62
(dp2704
g89
g90
ssg71
g2693
sg64
(lp2705
S':'
asbag57
(g78
g59
NtRp2706
(dp2707
g62
(dp2708
sg71
g2693
sg64
(lp2709
g57
(g58
g59
NtRp2710
(dp2711
g62
(dp2712
g70
I3
ssg71
g2706
sg64
(lp2713
S'4'
asbasbasbag57
(g73
g59
NtRp2714
(dp2715
g62
(dp2716
sg71
g2563
sg64
(lp2717
g57
(g78
g59
NtRp2718
(dp2719
g62
(dp2720
g82
g83
ssg71
g2714
sg64
(lp2721
S'HTTP_CONTENT_TYPE'
p2722
asbag57
(g78
g59
NtRp2723
(dp2724
g62
(dp2725
g89
g90
ssg71
g2714
sg64
(lp2726
S':'
asbag57
(g78
g59
NtRp2727
(dp2728
g62
(dp2729
sg71
g2714
sg64
(lp2730
g57
(g58
g59
NtRp2731
(dp2732
g62
(dp2733
g70
I3
ssg71
g2727
sg64
(lp2734
g798
asbasbasbag57
(g73
g59
NtRp2735
(dp2736
g62
(dp2737
sg71
g2563
sg64
(lp2738
g57
(g78
g59
NtRp2739
(dp2740
g62
(dp2741
g82
g83
ssg71
g2735
sg64
(lp2742
S'HTTP_COOKIE'
p2743
asbag57
(g78
g59
NtRp2744
(dp2745
g62
(dp2746
g89
g90
ssg71
g2735
sg64
(lp2747
S':'
asbag57
(g78
g59
NtRp2748
(dp2749
g62
(dp2750
sg71
g2735
sg64
(lp2751
g57
(g58
g59
NtRp2752
(dp2753
g62
(dp2754
g70
I3
ssg71
g2748
sg64
(lp2755
g1015
asbasbasbag57
(g73
g59
NtRp2756
(dp2757
g62
(dp2758
sg71
g2563
sg64
(lp2759
g57
(g78
g59
NtRp2760
(dp2761
g62
(dp2762
g82
g83
ssg71
g2756
sg64
(lp2763
S'HTTP_HOST'
p2764
asbag57
(g78
g59
NtRp2765
(dp2766
g62
(dp2767
g89
g90
ssg71
g2756
sg64
(lp2768
S':'
asbag57
(g78
g59
NtRp2769
(dp2770
g62
(dp2771
sg71
g2756
sg64
(lp2772
g57
(g58
g59
NtRp2773
(dp2774
g62
(dp2775
g70
I3
ssg71
g2769
sg64
(lp2776
g1037
asbasbasbag57
(g73
g59
NtRp2777
(dp2778
g62
(dp2779
sg71
g2563
sg64
(lp2780
g57
(g78
g59
NtRp2781
(dp2782
g62
(dp2783
g82
g83
ssg71
g2777
sg64
(lp2784
S'HTTP_REFERER'
p2785
asbag57
(g78
g59
NtRp2786
(dp2787
g62
(dp2788
g89
g90
ssg71
g2777
sg64
(lp2789
S':'
asbag57
(g78
g59
NtRp2790
(dp2791
g62
(dp2792
sg71
g2777
sg64
(lp2793
g57
(g58
g59
NtRp2794
(dp2795
g62
(dp2796
g70
I3
ssg71
g2790
sg64
(lp2797
g1059
asbasbasbag57
(g73
g59
NtRp2798
(dp2799
g62
(dp2800
sg71
g2563
sg64
(lp2801
g57
(g78
g59
NtRp2802
(dp2803
g62
(dp2804
g82
g83
ssg71
g2798
sg64
(lp2805
S'HTTP_USER_AGENT'
p2806
asbag57
(g78
g59
NtRp2807
(dp2808
g62
(dp2809
g89
g90
ssg71
g2798
sg64
(lp2810
S':'
asbag57
(g78
g59
NtRp2811
(dp2812
g62
(dp2813
sg71
g2798
sg64
(lp2814
g57
(g58
g59
NtRp2815
(dp2816
g62
(dp2817
g70
I3
ssg71
g2811
sg64
(lp2818
g1081
asbasbasbag57
(g73
g59
NtRp2819
(dp2820
g62
(dp2821
sg71
g2563
sg64
(lp2822
g57
(g78
g59
NtRp2823
(dp2824
g62
(dp2825
g82
g83
ssg71
g2819
sg64
(lp2826
S'PATH_INFO'
p2827
asbag57
(g78
g59
NtRp2828
(dp2829
g62
(dp2830
g89
g90
ssg71
g2819
sg64
(lp2831
S':'
asbag57
(g78
g59
NtRp2832
(dp2833
g62
(dp2834
sg71
g2819
sg64
(lp2835
g57
(g58
g59
NtRp2836
(dp2837
g62
(dp2838
g70
I3
ssg71
g2832
sg64
(lp2839
g1235
asbasbasbag57
(g73
g59
NtRp2840
(dp2841
g62
(dp2842
sg71
g2563
sg64
(lp2843
g57
(g78
g59
NtRp2844
(dp2845
g62
(dp2846
g82
g83
ssg71
g2840
sg64
(lp2847
S'QUERY_STRING'
p2848
asbag57
(g78
g59
NtRp2849
(dp2850
g62
(dp2851
g89
g90
ssg71
g2840
sg64
(lp2852
S':'
asbag57
(g78
g59
NtRp2853
(dp2854
g62
(dp2855
sg71
g2840
sg64
(lp2856
g57
(g58
g59
NtRp2857
(dp2858
g62
(dp2859
g70
I3
ssg71
g2853
sg64
(lp2860
S''
asbasbasbag57
(g73
g59
NtRp2861
(dp2862
g62
(dp2863
sg71
g2563
sg64
(lp2864
g57
(g78
g59
NtRp2865
(dp2866
g62
(dp2867
g82
g83
ssg71
g2861
sg64
(lp2868
S'REMOTE_ADDR'
p2869
asbag57
(g78
g59
NtRp2870
(dp2871
g62
(dp2872
g89
g90
ssg71
g2861
sg64
(lp2873
S':'
asbag57
(g78
g59
NtRp2874
(dp2875
g62
(dp2876
sg71
g2861
sg64
(lp2877
g57
(g58
g59
NtRp2878
(dp2879
g62
(dp2880
g70
I3
ssg71
g2874
sg64
(lp2881
g212
asbasbasbag57
(g73
g59
NtRp2882
(dp2883
g62
(dp2884
sg71
g2563
sg64
(lp2885
g57
(g78
g59
NtRp2886
(dp2887
g62
(dp2888
g82
g83
ssg71
g2882
sg64
(lp2889
S'REMOTE_PORT'
p2890
asbag57
(g78
g59
NtRp2891
(dp2892
g62
(dp2893
g89
g90
ssg71
g2882
sg64
(lp2894
S':'
asbag57
(g78
g59
NtRp2895
(dp2896
g62
(dp2897
sg71
g2882
sg64
(lp2898
g57
(g58
g59
NtRp2899
(dp2900
g62
(dp2901
g70
I3
ssg71
g2895
sg64
(lp2902
g1299
asbasbasbag57
(g73
g59
NtRp2903
(dp2904
g62
(dp2905
sg71
g2563
sg64
(lp2906
g57
(g78
g59
NtRp2907
(dp2908
g62
(dp2909
g82
g83
ssg71
g2903
sg64
(lp2910
S'REQUEST_METHOD'
p2911
asbag57
(g78
g59
NtRp2912
(dp2913
g62
(dp2914
g89
g90
ssg71
g2903
sg64
(lp2915
S':'
asbag57
(g78
g59
NtRp2916
(dp2917
g62
(dp2918
sg71
g2903
sg64
(lp2919
g57
(g58
g59
NtRp2920
(dp2921
g62
(dp2922
g70
I3
ssg71
g2916
sg64
(lp2923
g1321
asbasbasbag57
(g73
g59
NtRp2924
(dp2925
g62
(dp2926
sg71
g2563
sg64
(lp2927
g57
(g78
g59
NtRp2928
(dp2929
g62
(dp2930
g82
g83
ssg71
g2924
sg64
(lp2931
S'REQUEST_URI'
p2932
asbag57
(g78
g59
NtRp2933
(dp2934
g62
(dp2935
g89
g90
ssg71
g2924
sg64
(lp2936
S':'
asbag57
(g78
g59
NtRp2937
(dp2938
g62
(dp2939
sg71
g2924
sg64
(lp2940
g57
(g58
g59
NtRp2941
(dp2942
g62
(dp2943
g70
I3
ssg71
g2937
sg64
(lp2944
g1235
asbasbasbag57
(g73
g59
NtRp2945
(dp2946
g62
(dp2947
sg71
g2563
sg64
(lp2948
g57
(g78
g59
NtRp2949
(dp2950
g62
(dp2951
g82
g83
ssg71
g2945
sg64
(lp2952
S'SCRIPT_NAME'
p2953
asbag57
(g78
g59
NtRp2954
(dp2955
g62
(dp2956
g89
g90
ssg71
g2945
sg64
(lp2957
S':'
asbag57
(g78
g59
NtRp2958
(dp2959
g62
(dp2960
sg71
g2945
sg64
(lp2961
g57
(g58
g59
NtRp2962
(dp2963
g62
(dp2964
g70
I3
ssg71
g2958
sg64
(lp2965
S''
asbasbasbag57
(g73
g59
NtRp2966
(dp2967
g62
(dp2968
sg71
g2563
sg64
(lp2969
g57
(g78
g59
NtRp2970
(dp2971
g62
(dp2972
g82
g83
ssg71
g2966
sg64
(lp2973
S'SERVER_NAME'
p2974
asbag57
(g78
g59
NtRp2975
(dp2976
g62
(dp2977
g89
g90
ssg71
g2966
sg64
(lp2978
S':'
asbag57
(g78
g59
NtRp2979
(dp2980
g62
(dp2981
sg71
g2966
sg64
(lp2982
g57
(g58
g59
NtRp2983
(dp2984
g62
(dp2985
g70
I3
ssg71
g2979
sg64
(lp2986
g1385
asbasbasbag57
(g73
g59
NtRp2987
(dp2988
g62
(dp2989
sg71
g2563
sg64
(lp2990
g57
(g78
g59
NtRp2991
(dp2992
g62
(dp2993
g82
g83
ssg71
g2987
sg64
(lp2994
S'SERVER_PORT'
p2995
asbag57
(g78
g59
NtRp2996
(dp2997
g62
(dp2998
g89
g90
ssg71
g2987
sg64
(lp2999
S':'
asbag57
(g78
g59
NtRp3000
(dp3001
g62
(dp3002
sg71
g2987
sg64
(lp3003
g57
(g58
g59
NtRp3004
(dp3005
g62
(dp3006
g70
I3
ssg71
g3000
sg64
(lp3007
g1407
asbasbasbag57
(g73
g59
NtRp3008
(dp3009
g62
(dp3010
sg71
g2563
sg64
(lp3011
g57
(g78
g59
NtRp3012
(dp3013
g62
(dp3014
g82
g83
ssg71
g3008
sg64
(lp3015
S'SERVER_PROTOCOL'
p3016
asbag57
(g78
g59
NtRp3017
(dp3018
g62
(dp3019
g89
g90
ssg71
g3008
sg64
(lp3020
S':'
asbag57
(g78
g59
NtRp3021
(dp3022
g62
(dp3023
sg71
g3008
sg64
(lp3024
g57
(g58
g59
NtRp3025
(dp3026
g62
(dp3027
g70
I3
ssg71
g3021
sg64
(lp3028
g1429
asbasbasbag57
(g73
g59
NtRp3029
(dp3030
g62
(dp3031
sg71
g2563
sg64
(lp3032
g57
(g78
g59
NtRp3033
(dp3034
g62
(dp3035
g82
g83
ssg71
g3029
sg64
(lp3036
S'SERVER_SOFTWARE'
p3037
asbag57
(g78
g59
NtRp3038
(dp3039
g62
(dp3040
g89
g90
ssg71
g3029
sg64
(lp3041
S':'
asbag57
(g78
g59
NtRp3042
(dp3043
g62
(dp3044
sg71
g3029
sg64
(lp3045
g57
(g58
g59
NtRp3046
(dp3047
g62
(dp3048
g70
I3
ssg71
g3042
sg64
(lp3049
g1451
asbasbasbag57
(g73
g59
NtRp3050
(dp3051
g62
(dp3052
sg71
g2563
sg64
(lp3053
g57
(g78
g59
NtRp3054
(dp3055
g62
(dp3056
g82
g83
ssg71
g3050
sg64
(lp3057
S'wsgi.errors'
p3058
asbag57
(g78
g59
NtRp3059
(dp3060
g62
(dp3061
g89
g90
ssg71
g3050
sg64
(lp3062
S':'
asbag57
(g78
g59
NtRp3063
(dp3064
g62
(dp3065
sg71
g3050
sg64
(lp3066
g57
(g58
g59
NtRp3067
(dp3068
g62
(dp3069
g70
I3
ssg71
g3063
sg64
(lp3070
S"<open file '<stderr>', mode 'w' at 0x7f55cb1db270>"
p3071
asbasbasbag57
(g73
g59
NtRp3072
(dp3073
g62
(dp3074
sg71
g2563
sg64
(lp3075
g57
(g78
g59
NtRp3076
(dp3077
g62
(dp3078
g82
g83
ssg71
g3072
sg64
(lp3079
S'wsgi.file_wrapper'
p3080
asbag57
(g78
g59
NtRp3081
(dp3082
g62
(dp3083
g89
g90
ssg71
g3072
sg64
(lp3084
S':'
asbag57
(g78
g59
NtRp3085
(dp3086
g62
(dp3087
sg71
g3072
sg64
(lp3088
g57
(g58
g59
NtRp3089
(dp3090
g62
(dp3091
g70
I3
ssg71
g3085
sg64
(lp3092
S'<class wsgiref.util.FileWrapper at 0x26bbc18>'
p3093
asbasbasbag57
(g73
g59
NtRp3094
(dp3095
g62
(dp3096
sg71
g2563
sg64
(lp3097
g57
(g78
g59
NtRp3098
(dp3099
g62
(dp3100
g82
g83
ssg71
g3094
sg64
(lp3101
S'wsgi.input'
p3102
asbag57
(g78
g59
NtRp3103
(dp3104
g62
(dp3105
g89
g90
ssg71
g3094
sg64
(lp3106
S':'
asbag57
(g78
g59
NtRp3107
(dp3108
g62
(dp3109
sg71
g3094
sg64
(lp3110
g57
(g58
g59
NtRp3111
(dp3112
g62
(dp3113
g70
I3
ssg71
g3107
sg64
(lp3114
S"<open file '<fdopen>', mode 'w+b' at 0x7f55981c25d0>"
p3115
asbasbasbag57
(g73
g59
NtRp3116
(dp3117
g62
(dp3118
sg71
g2563
sg64
(lp3119
g57
(g78
g59
NtRp3120
(dp3121
g62
(dp3122
g82
g83
ssg71
g3116
sg64
(lp3123
S'wsgi.multiprocess'
p3124
asbag57
(g78
g59
NtRp3125
(dp3126
g62
(dp3127
g89
g90
ssg71
g3116
sg64
(lp3128
S':'
asbag57
(g78
g59
NtRp3129
(dp3130
g62
(dp3131
sg71
g3116
sg64
(lp3132
g57
(g58
g59
NtRp3133
(dp3134
g62
(dp3135
g70
I3
ssg71
g3129
sg64
(lp3136
g100
asbasbasbag57
(g73
g59
NtRp3137
(dp3138
g62
(dp3139
sg71
g2563
sg64
(lp3140
g57
(g78
g59
NtRp3141
(dp3142
g62
(dp3143
g82
g83
ssg71
g3137
sg64
(lp3144
S'wsgi.multithread'
p3145
asbag57
(g78
g59
NtRp3146
(dp3147
g62
(dp3148
g89
g90
ssg71
g3137
sg64
(lp3149
S':'
asbag57
(g78
g59
NtRp3150
(dp3151
g62
(dp3152
sg71
g3137
sg64
(lp3153
g57
(g58
g59
NtRp3154
(dp3155
g62
(dp3156
g70
I3
ssg71
g3150
sg64
(lp3157
g1668
asbasbasbag57
(g73
g59
NtRp3158
(dp3159
g62
(dp3160
sg71
g2563
sg64
(lp3161
g57
(g78
g59
NtRp3162
(dp3163
g62
(dp3164
g82
g83
ssg71
g3158
sg64
(lp3165
S'wsgi.run_once'
p3166
asbag57
(g78
g59
NtRp3167
(dp3168
g62
(dp3169
g89
g90
ssg71
g3158
sg64
(lp3170
S':'
asbag57
(g78
g59
NtRp3171
(dp3172
g62
(dp3173
sg71
g3158
sg64
(lp3174
g57
(g58
g59
NtRp3175
(dp3176
g62
(dp3177
g70
I3
ssg71
g3171
sg64
(lp3178
g100
asbasbasbag57
(g73
g59
NtRp3179
(dp3180
g62
(dp3181
sg71
g2563
sg64
(lp3182
g57
(g78
g59
NtRp3183
(dp3184
g62
(dp3185
g82
g83
ssg71
g3179
sg64
(lp3186
S'wsgi.url_scheme'
p3187
asbag57
(g78
g59
NtRp3188
(dp3189
g62
(dp3190
g89
g90
ssg71
g3179
sg64
(lp3191
S':'
asbag57
(g78
g59
NtRp3192
(dp3193
g62
(dp3194
sg71
g3179
sg64
(lp3195
g57
(g58
g59
NtRp3196
(dp3197
g62
(dp3198
g70
I3
ssg71
g3192
sg64
(lp3199
g1711
asbasbasbag57
(g73
g59
NtRp3200
(dp3201
g62
(dp3202
sg71
g2563
sg64
(lp3203
g57
(g78
g59
NtRp3204
(dp3205
g62
(dp3206
g82
g83
ssg71
g3200
sg64
(lp3207
S'wsgi.version'
p3208
asbag57
(g78
g59
NtRp3209
(dp3210
g62
(dp3211
g89
g90
ssg71
g3200
sg64
(lp3212
S':'
asbag57
(g78
g59
NtRp3213
(dp3214
g62
(dp3215
sg71
g3200
sg64
(lp3216
g57
(g58
g59
NtRp3217
(dp3218
g62
(dp3219
g70
I3
ssg71
g3213
sg64
(lp3220
S'1'
asbasbasbasbasbasbasbasbasbasbasbasbasbsS'frames'
p3221
(lp3222
(dp3223
S'file'
p3224
S'/home/saurabh/web2py/gluon/restricted.py'
p3225
sS'dump'
p3226
(dp3227
S'environment'
p3228
S"{'A': <class 'gluon.html.A'>, 'Auth': <class 'gluon.tools.Auth'>, 'B': <class 'gluon.html.B'>, 'BEAUTIFY': <class 'gluon.html.BEAUTIFY'>, 'BODY': <class 'gluon.html.BODY'>, 'BR': <class 'gluon.html.BR'>, 'BUTTON': <class 'gluon.html.BUTTON'>, 'CAT': <class 'gluon.html.CAT'>, 'CENTER': <class 'gluon.html.CENTER'>, 'CLEANUP': <class 'gluon.validators.CLEANUP'>, ...}"
p3229
sS'ccode'
p3230
S'<code object <module> at 0x7f559c160830, file "/...OnlineExamination/views/default/F2.html", line 1>'
p3231
ssS'lnum'
p3232
I212
sS'lines'
p3233
(dp3234
I207
S'    try:'
p3235
sI208
S'        if isinstance(code, types.CodeType):'
p3236
sI209
S'            ccode = code'
p3237
sI210
S'        else:'
p3238
sI211
S'            ccode = compile2(code, layer)'
p3239
sI212
S'        exec ccode in environment'
p3240
sI213
S'    except HTTP:'
p3241
sI214
S'        raise'
p3242
sI215
S'    except RestrictedError:'
p3243
sI216
S'        # do not encapsulate (obfuscate) the original RestrictedError'
p3244
ssS'call'
p3245
S'(code=\'response.write(\\\'<!DOCTYPE html>\\\\n<!-- paulirish...."></script>\\\\n</body>\\\\n</html>\\\\n\\\\n\\\', escape=False)\', environment={\'A\': <class \'gluon.html.A\'>, \'Auth\': <class \'gluon.tools.Auth\'>, \'B\': <class \'gluon.html.B\'>, \'BEAUTIFY\': <class \'gluon.html.BEAUTIFY\'>, \'BODY\': <class \'gluon.html.BODY\'>, \'BR\': <class \'gluon.html.BR\'>, \'BUTTON\': <class \'gluon.html.BUTTON\'>, \'CAT\': <class \'gluon.html.CAT\'>, \'CENTER\': <class \'gluon.html.CENTER\'>, \'CLEANUP\': <class \'gluon.validators.CLEANUP\'>, ...}, layer=\'/home/saurabh/web2py/applications/OnlineExamination/views/default/F2.html\')'
p3246
sS'func'
p3247
S'restricted'
p3248
sa(dp3249
g3224
S'/home/saurabh/web2py/applications/OnlineExamination/views/default/F2.html'
p3250
sg3226
(dp3251
sg3232
I97
sg3233
(dp3252
I96
S"    response.write('<br/>\\nYour Answer : ', escape=False)"
p3253
sI97
S"    response.write(ans[i]['op'])"
p3254
sI98
S"    response.write('\\n<br/><br/><br/>\\n</div>\\n', escape=False)"
p3255
sI99
S'    pass'
p3256
sI100
S"response.write('\\n', escape=False)"
p3257
sI101
S"response.write('\\n            ', escape=False)"
p3258
sI102
S"response.write('\\n        </div>\\n\\n        ', escape=False)"
p3259
sI103
S'if right_sidebar_enabled:'
p3260
sI104
S'    response.write(\'\\n        <div class="span3">\\n            \', escape=False)'
p3261
sI105
S"    response.write('\\n            <h3>Right Sidebar</h3>\\n            <p></p>\\n            ', escape=False)"
p3262
sI106
S"    response.write('\\n        </div>\\n        ', escape=False)"
p3263
sI107
S'    pass'
p3264
sI88
S"    response.write('<br/>\\nB :  ', escape=False)"
p3265
sI89
S"    response.write(ques[i]['option_b'])"
p3266
sI90
S"    response.write('<br/>\\nC :  ', escape=False)"
p3267
sI91
S"    response.write(ques[i]['option_c'])"
p3268
sI92
S"    response.write('<br/>\\nD :  ', escape=False)"
p3269
sI93
S"    response.write(ques[i]['option_d'])"
p3270
sI94
S'    response.write(\'<br/>\\n<div style="color:blue">\\nCorrect Answer : \', escape=False)'
p3271
sI95
S"    response.write(ques[i]['ans'])"
p3272
ssg3245
S'()'
p3273
sg3247
S'<module>'
p3274
sa(dp3275
g3224
S'/home/saurabh/web2py/gluon/dal.py'
p3276
sg3226
(dp3277
S'i'
S'1'
sS'self'
p3278
S'<Rows (1)>'
p3279
sS'self.records'
p3280
S"[<Row {'answer': {'que_num': 1, 'op': '|A|D|'}}>]"
p3281
sS'row'
p3282
S'undefined'
p3283
ssg3232
I9170
sg3233
(dp3284
I9165
S''
sI9166
S'    def __getslice__(self, a, b):'
p3285
sI9167
S'        return Rows(self.db,self.records[a:b],self.colnames)'
p3286
sI9168
S''
sI9169
S'    def __getitem__(self, i):'
p3287
sI9170
S'        row = self.records[i]'
p3288
sI9171
S'        keys = row.keys()'
p3289
sI9172
S"        if self.compact and len(keys) == 1 and keys[0] != '_extra':"
p3290
sI9173
S'            return row[row.keys()[0]]'
p3291
sI9174
S'        return row'
p3292
ssg3245
S'(self=<Rows (1)>, i=1)'
p3293
sg3247
g20
sasS'pyver'
p3294
S'Python 2.7.3: /usr/bin/python'
p3295
sS'session'
p3296
g57
(g58
g59
NtRp3297
(dp3298
g62
(dp3299
sg64
(lp3300
g57
(g66
g59
NtRp3301
(dp3302
g62
(dp3303
g70
I5
ssg71
Nsg64
(lp3304
g57
(g73
g59
NtRp3305
(dp3306
g62
(dp3307
sg71
g3301
sg64
(lp3308
g57
(g78
g59
NtRp3309
(dp3310
g62
(dp3311
g82
g83
ssg71
g3305
sg64
(lp3312
S'auth'
p3313
asbag57
(g78
g59
NtRp3314
(dp3315
g62
(dp3316
g89
g90
ssg71
g3305
sg64
(lp3317
S':'
asbag57
(g78
g59
NtRp3318
(dp3319
g62
(dp3320
sg71
g3305
sg64
(lp3321
g57
(g58
g59
NtRp3322
(dp3323
g62
(dp3324
g70
I5
ssg71
g3318
sg64
(lp3325
g57
(g66
g59
NtRp3326
(dp3327
g62
(dp3328
g70
I4
ssg71
Nsg64
(lp3329
g57
(g73
g59
NtRp3330
(dp3331
g62
(dp3332
sg71
g3326
sg64
(lp3333
g57
(g78
g59
NtRp3334
(dp3335
g62
(dp3336
g82
g83
ssg71
g3330
sg64
(lp3337
S'expiration'
p3338
asbag57
(g78
g59
NtRp3339
(dp3340
g62
(dp3341
g89
g90
ssg71
g3330
sg64
(lp3342
S':'
asbag57
(g78
g59
NtRp3343
(dp3344
g62
(dp3345
sg71
g3330
sg64
(lp3346
g57
(g58
g59
NtRp3347
(dp3348
g62
(dp3349
g70
I4
ssg71
g3343
sg64
(lp3350
S'3600'
p3351
asbasbasbag57
(g73
g59
NtRp3352
(dp3353
g62
(dp3354
sg71
g3326
sg64
(lp3355
g57
(g78
g59
NtRp3356
(dp3357
g62
(dp3358
g82
g83
ssg71
g3352
sg64
(lp3359
S'hmac_key'
p3360
asbag57
(g78
g59
NtRp3361
(dp3362
g62
(dp3363
g89
g90
ssg71
g3352
sg64
(lp3364
S':'
asbag57
(g78
g59
NtRp3365
(dp3366
g62
(dp3367
sg71
g3352
sg64
(lp3368
g57
(g58
g59
NtRp3369
(dp3370
g62
(dp3371
g70
I4
ssg71
g3365
sg64
(lp3372
S'4396f8dd-946c-4f43-a7f3-d9263973aeaf'
p3373
asbasbasbag57
(g73
g59
NtRp3374
(dp3375
g62
(dp3376
sg71
g3326
sg64
(lp3377
g57
(g78
g59
NtRp3378
(dp3379
g62
(dp3380
g82
g83
ssg71
g3374
sg64
(lp3381
S'last_visit'
p3382
asbag57
(g78
g59
NtRp3383
(dp3384
g62
(dp3385
g89
g90
ssg71
g3374
sg64
(lp3386
S':'
asbag57
(g78
g59
NtRp3387
(dp3388
g62
(dp3389
sg71
g3374
sg64
(lp3390
g57
(g58
g59
NtRp3391
(dp3392
g62
(dp3393
g70
I4
ssg71
g3387
sg64
(lp3394
S'datetime.datetime(2013, 4, 18, 23, 45, 5, 141788)'
p3395
asbasbasbag57
(g73
g59
NtRp3396
(dp3397
g62
(dp3398
sg71
g3326
sg64
(lp3399
g57
(g78
g59
NtRp3400
(dp3401
g62
(dp3402
g82
g83
ssg71
g3396
sg64
(lp3403
S'remember'
p3404
asbag57
(g78
g59
NtRp3405
(dp3406
g62
(dp3407
g89
g90
ssg71
g3396
sg64
(lp3408
S':'
asbag57
(g78
g59
NtRp3409
(dp3410
g62
(dp3411
sg71
g3396
sg64
(lp3412
g57
(g58
g59
NtRp3413
(dp3414
g62
(dp3415
g70
I4
ssg71
g3409
sg64
(lp3416
g100
asbasbasbag57
(g73
g59
NtRp3417
(dp3418
g62
(dp3419
sg71
g3326
sg64
(lp3420
g57
(g78
g59
NtRp3421
(dp3422
g62
(dp3423
g82
g83
ssg71
g3417
sg64
(lp3424
S'user'
p3425
asbag57
(g78
g59
NtRp3426
(dp3427
g62
(dp3428
g89
g90
ssg71
g3417
sg64
(lp3429
S':'
asbag57
(g78
g59
NtRp3430
(dp3431
g62
(dp3432
sg71
g3417
sg64
(lp3433
g57
(g58
g59
NtRp3434
(dp3435
g62
(dp3436
g70
I4
ssg71
g3430
sg64
(lp3437
g57
(g66
g59
NtRp3438
(dp3439
g62
(dp3440
g70
I3
ssg71
Nsg64
(lp3441
g57
(g73
g59
NtRp3442
(dp3443
g62
(dp3444
sg71
g3438
sg64
(lp3445
g57
(g78
g59
NtRp3446
(dp3447
g62
(dp3448
g82
g83
ssg71
g3442
sg64
(lp3449
S'email'
p3450
asbag57
(g78
g59
NtRp3451
(dp3452
g62
(dp3453
g89
g90
ssg71
g3442
sg64
(lp3454
S':'
asbag57
(g78
g59
NtRp3455
(dp3456
g62
(dp3457
sg71
g3442
sg64
(lp3458
g57
(g58
g59
NtRp3459
(dp3460
g62
(dp3461
g70
I3
ssg71
g3455
sg64
(lp3462
S'kd@kd.com'
p3463
asbasbasbag57
(g73
g59
NtRp3464
(dp3465
g62
(dp3466
sg71
g3438
sg64
(lp3467
g57
(g78
g59
NtRp3468
(dp3469
g62
(dp3470
g82
g83
ssg71
g3464
sg64
(lp3471
S'first_name'
p3472
asbag57
(g78
g59
NtRp3473
(dp3474
g62
(dp3475
g89
g90
ssg71
g3464
sg64
(lp3476
S':'
asbag57
(g78
g59
NtRp3477
(dp3478
g62
(dp3479
sg71
g3464
sg64
(lp3480
g57
(g58
g59
NtRp3481
(dp3482
g62
(dp3483
g70
I3
ssg71
g3477
sg64
(lp3484
S'kd'
p3485
asbasbasbag57
(g73
g59
NtRp3486
(dp3487
g62
(dp3488
sg71
g3438
sg64
(lp3489
g57
(g78
g59
NtRp3490
(dp3491
g62
(dp3492
g82
g83
ssg71
g3486
sg64
(lp3493
S'id'
p3494
asbag57
(g78
g59
NtRp3495
(dp3496
g62
(dp3497
g89
g90
ssg71
g3486
sg64
(lp3498
S':'
asbag57
(g78
g59
NtRp3499
(dp3500
g62
(dp3501
sg71
g3486
sg64
(lp3502
g57
(g58
g59
NtRp3503
(dp3504
g62
(dp3505
g70
I3
ssg71
g3499
sg64
(lp3506
S'44'
p3507
asbasbasbag57
(g73
g59
NtRp3508
(dp3509
g62
(dp3510
sg71
g3438
sg64
(lp3511
g57
(g78
g59
NtRp3512
(dp3513
g62
(dp3514
g82
g83
ssg71
g3508
sg64
(lp3515
S'last_name'
p3516
asbag57
(g78
g59
NtRp3517
(dp3518
g62
(dp3519
g89
g90
ssg71
g3508
sg64
(lp3520
S':'
asbag57
(g78
g59
NtRp3521
(dp3522
g62
(dp3523
sg71
g3508
sg64
(lp3524
g57
(g58
g59
NtRp3525
(dp3526
g62
(dp3527
g70
I3
ssg71
g3521
sg64
(lp3528
S'kd'
p3529
asbasbasbag57
(g73
g59
NtRp3530
(dp3531
g62
(dp3532
sg71
g3438
sg64
(lp3533
g57
(g78
g59
NtRp3534
(dp3535
g62
(dp3536
g82
g83
ssg71
g3530
sg64
(lp3537
S'registration_id'
p3538
asbag57
(g78
g59
NtRp3539
(dp3540
g62
(dp3541
g89
g90
ssg71
g3530
sg64
(lp3542
S':'
asbag57
(g78
g59
NtRp3543
(dp3544
g62
(dp3545
sg71
g3530
sg64
(lp3546
g57
(g58
g59
NtRp3547
(dp3548
g62
(dp3549
g70
I3
ssg71
g3543
sg64
(lp3550
S''
asbasbasbag57
(g73
g59
NtRp3551
(dp3552
g62
(dp3553
sg71
g3438
sg64
(lp3554
g57
(g78
g59
NtRp3555
(dp3556
g62
(dp3557
g82
g83
ssg71
g3551
sg64
(lp3558
S'registration_key'
p3559
asbag57
(g78
g59
NtRp3560
(dp3561
g62
(dp3562
g89
g90
ssg71
g3551
sg64
(lp3563
S':'
asbag57
(g78
g59
NtRp3564
(dp3565
g62
(dp3566
sg71
g3551
sg64
(lp3567
g57
(g58
g59
NtRp3568
(dp3569
g62
(dp3570
g70
I3
ssg71
g3564
sg64
(lp3571
S''
asbasbasbag57
(g73
g59
NtRp3572
(dp3573
g62
(dp3574
sg71
g3438
sg64
(lp3575
g57
(g78
g59
NtRp3576
(dp3577
g62
(dp3578
g82
g83
ssg71
g3572
sg64
(lp3579
S'reset_password_key'
p3580
asbag57
(g78
g59
NtRp3581
(dp3582
g62
(dp3583
g89
g90
ssg71
g3572
sg64
(lp3584
S':'
asbag57
(g78
g59
NtRp3585
(dp3586
g62
(dp3587
sg71
g3572
sg64
(lp3588
g57
(g58
g59
NtRp3589
(dp3590
g62
(dp3591
g70
I3
ssg71
g3585
sg64
(lp3592
S''
asbasbasbasbasbasbasbag57
(g73
g59
NtRp3593
(dp3594
g62
(dp3595
sg71
g3326
sg64
(lp3596
g57
(g78
g59
NtRp3597
(dp3598
g62
(dp3599
g82
g83
ssg71
g3593
sg64
(lp3600
S'user_groups'
p3601
asbag57
(g78
g59
NtRp3602
(dp3603
g62
(dp3604
g89
g90
ssg71
g3593
sg64
(lp3605
S':'
asbag57
(g78
g59
NtRp3606
(dp3607
g62
(dp3608
sg71
g3593
sg64
(lp3609
g57
(g58
g59
NtRp3610
(dp3611
g62
(dp3612
g70
I4
ssg71
g3606
sg64
(lp3613
g57
(g66
g59
NtRp3614
(dp3615
g62
(dp3616
g70
I3
ssg71
Nsg64
(lp3617
g57
(g73
g59
NtRp3618
(dp3619
g62
(dp3620
sg71
g3614
sg64
(lp3621
g57
(g78
g59
NtRp3622
(dp3623
g62
(dp3624
g82
g83
ssg71
g3618
sg64
(lp3625
S'45'
p3626
asbag57
(g78
g59
NtRp3627
(dp3628
g62
(dp3629
g89
g90
ssg71
g3618
sg64
(lp3630
S':'
asbag57
(g78
g59
NtRp3631
(dp3632
g62
(dp3633
sg71
g3618
sg64
(lp3634
g57
(g58
g59
NtRp3635
(dp3636
g62
(dp3637
g70
I3
ssg71
g3631
sg64
(lp3638
S'user_44'
p3639
asbasbasbasbasbasbasbasbasbasbasbag57
(g73
g59
NtRp3640
(dp3641
g62
(dp3642
sg71
g3301
sg64
(lp3643
g57
(g78
g59
NtRp3644
(dp3645
g62
(dp3646
g82
g83
ssg71
g3640
sg64
(lp3647
S'flash'
p3648
asbag57
(g78
g59
NtRp3649
(dp3650
g62
(dp3651
g89
g90
ssg71
g3640
sg64
(lp3652
S':'
asbag57
(g78
g59
NtRp3653
(dp3654
g62
(dp3655
sg71
g3640
sg64
(lp3656
g57
(g58
g59
NtRp3657
(dp3658
g62
(dp3659
g70
I5
ssg71
g3653
sg64
(lp3660
S'None'
p3661
asbasbasbag57
(g73
g59
NtRp3662
(dp3663
g62
(dp3664
sg71
g3301
sg64
(lp3665
g57
(g78
g59
NtRp3666
(dp3667
g62
(dp3668
g82
g83
ssg71
g3662
sg64
(lp3669
S'last_orderby'
p3670
asbag57
(g78
g59
NtRp3671
(dp3672
g62
(dp3673
g89
g90
ssg71
g3662
sg64
(lp3674
S':'
asbag57
(g78
g59
NtRp3675
(dp3676
g62
(dp3677
sg71
g3662
sg64
(lp3678
g57
(g58
g59
NtRp3679
(dp3680
g62
(dp3681
g70
I5
ssg71
g3675
sg64
(lp3682
S'None'
p3683
asbasbasbag57
(g73
g59
NtRp3684
(dp3685
g62
(dp3686
sg71
g3301
sg64
(lp3687
g57
(g78
g59
NtRp3688
(dp3689
g62
(dp3690
g82
g83
ssg71
g3684
sg64
(lp3691
S'last_query'
p3692
asbag57
(g78
g59
NtRp3693
(dp3694
g62
(dp3695
g89
g90
ssg71
g3684
sg64
(lp3696
S':'
asbag57
(g78
g59
NtRp3697
(dp3698
g62
(dp3699
sg71
g3684
sg64
(lp3700
g57
(g58
g59
NtRp3701
(dp3702
g62
(dp3703
g70
I5
ssg71
g3697
sg64
(lp3704
S'db.times.id>0'
p3705
asbasbasbasbasbsS'etype'
p3706
S"<type 'exceptions.IndexError'>"
p3707
sS'date'
p3708
S'Thu Apr 18 23:48:28 2013'
p3709
sS'response'
p3710
g57
(g58
g59
NtRp3711
(dp3712
g62
(dp3713
sg64
(lp3714
g57
(g66
g59
NtRp3715
(dp3716
g62
(dp3717
g70
I5
ssg71
Nsg64
(lp3718
g57
(g73
g59
NtRp3719
(dp3720
g62
(dp3721
sg71
g3715
sg64
(lp3722
g57
(g78
g59
NtRp3723
(dp3724
g62
(dp3725
g82
g83
ssg71
g3719
sg64
(lp3726
g155
asbag57
(g78
g59
NtRp3727
(dp3728
g62
(dp3729
g89
g90
ssg71
g3719
sg64
(lp3730
S':'
asbag57
(g78
g59
NtRp3731
(dp3732
g62
(dp3733
sg71
g3719
sg64
(lp3734
g57
(g58
g59
NtRp3735
(dp3736
g62
(dp3737
g70
I5
ssg71
g3731
sg64
(lp3738
S'<cStringIO.StringO object at 0x7f55b0020ab0>'
p3739
asbasbasbag57
(g73
g59
NtRp3740
(dp3741
g62
(dp3742
sg71
g3715
sg64
(lp3743
g57
(g78
g59
NtRp3744
(dp3745
g62
(dp3746
g82
g83
ssg71
g3740
sg64
(lp3747
g243
asbag57
(g78
g59
NtRp3748
(dp3749
g62
(dp3750
g89
g90
ssg71
g3740
sg64
(lp3751
S':'
asbag57
(g78
g59
NtRp3752
(dp3753
g62
(dp3754
sg71
g3740
sg64
(lp3755
g57
(g58
g59
NtRp3756
(dp3757
g62
(dp3758
g70
I5
ssg71
g3752
sg64
(lp3759
g57
(g66
g59
NtRp3760
(dp3761
g62
(dp3762
g70
I4
ssg71
Nsg64
(lp3763
g57
(g73
g59
NtRp3764
(dp3765
g62
(dp3766
sg71
g3760
sg64
(lp3767
g57
(g78
g59
NtRp3768
(dp3769
g62
(dp3770
g82
g83
ssg71
g3764
sg64
(lp3771
S'session_id_onlineexamination'
p3772
asbag57
(g78
g59
NtRp3773
(dp3774
g62
(dp3775
g89
g90
ssg71
g3764
sg64
(lp3776
S':'
asbag57
(g78
g59
NtRp3777
(dp3778
g62
(dp3779
sg71
g3764
sg64
(lp3780
g57
(g58
g59
NtRp3781
(dp3782
g62
(dp3783
g70
I4
ssg71
g3777
sg64
(lp3784
g475
ag57
(g66
g59
NtRp3785
(dp3786
g62
(dp3787
g70
I3
ssg71
Nsg64
(lp3788
g57
(g73
g59
NtRp3789
(dp3790
g62
(dp3791
sg71
g3785
sg64
(lp3792
g57
(g78
g59
NtRp3793
(dp3794
g62
(dp3795
g82
g83
ssg71
g3789
sg64
(lp3796
g294
asbag57
(g78
g59
NtRp3797
(dp3798
g62
(dp3799
g89
g90
ssg71
g3789
sg64
(lp3800
S':'
asbag57
(g78
g59
NtRp3801
(dp3802
g62
(dp3803
sg71
g3789
sg64
(lp3804
g57
(g58
g59
NtRp3805
(dp3806
g62
(dp3807
g70
I3
ssg71
g3801
sg64
(lp3808
S''
asbasbasbag57
(g73
g59
NtRp3809
(dp3810
g62
(dp3811
sg71
g3785
sg64
(lp3812
g57
(g78
g59
NtRp3813
(dp3814
g62
(dp3815
g82
g83
ssg71
g3809
sg64
(lp3816
g315
asbag57
(g78
g59
NtRp3817
(dp3818
g62
(dp3819
g89
g90
ssg71
g3809
sg64
(lp3820
S':'
asbag57
(g78
g59
NtRp3821
(dp3822
g62
(dp3823
sg71
g3809
sg64
(lp3824
g57
(g58
g59
NtRp3825
(dp3826
g62
(dp3827
g70
I3
ssg71
g3821
sg64
(lp3828
S''
asbasbasbag57
(g73
g59
NtRp3829
(dp3830
g62
(dp3831
sg71
g3785
sg64
(lp3832
g57
(g78
g59
NtRp3833
(dp3834
g62
(dp3835
g82
g83
ssg71
g3829
sg64
(lp3836
g336
asbag57
(g78
g59
NtRp3837
(dp3838
g62
(dp3839
g89
g90
ssg71
g3829
sg64
(lp3840
S':'
asbag57
(g78
g59
NtRp3841
(dp3842
g62
(dp3843
sg71
g3829
sg64
(lp3844
g57
(g58
g59
NtRp3845
(dp3846
g62
(dp3847
g70
I3
ssg71
g3841
sg64
(lp3848
S''
asbasbasbag57
(g73
g59
NtRp3849
(dp3850
g62
(dp3851
sg71
g3785
sg64
(lp3852
g57
(g78
g59
NtRp3853
(dp3854
g62
(dp3855
g82
g83
ssg71
g3849
sg64
(lp3856
g357
asbag57
(g78
g59
NtRp3857
(dp3858
g62
(dp3859
g89
g90
ssg71
g3849
sg64
(lp3860
S':'
asbag57
(g78
g59
NtRp3861
(dp3862
g62
(dp3863
sg71
g3849
sg64
(lp3864
g57
(g58
g59
NtRp3865
(dp3866
g62
(dp3867
g70
I3
ssg71
g3861
sg64
(lp3868
S''
asbasbasbag57
(g73
g59
NtRp3869
(dp3870
g62
(dp3871
sg71
g3785
sg64
(lp3872
g57
(g78
g59
NtRp3873
(dp3874
g62
(dp3875
g82
g83
ssg71
g3869
sg64
(lp3876
g378
asbag57
(g78
g59
NtRp3877
(dp3878
g62
(dp3879
g89
g90
ssg71
g3869
sg64
(lp3880
S':'
asbag57
(g78
g59
NtRp3881
(dp3882
g62
(dp3883
sg71
g3869
sg64
(lp3884
g57
(g58
g59
NtRp3885
(dp3886
g62
(dp3887
g70
I3
ssg71
g3881
sg64
(lp3888
S''
asbasbasbag57
(g73
g59
NtRp3889
(dp3890
g62
(dp3891
sg71
g3785
sg64
(lp3892
g57
(g78
g59
NtRp3893
(dp3894
g62
(dp3895
g82
g83
ssg71
g3889
sg64
(lp3896
g399
asbag57
(g78
g59
NtRp3897
(dp3898
g62
(dp3899
g89
g90
ssg71
g3889
sg64
(lp3900
S':'
asbag57
(g78
g59
NtRp3901
(dp3902
g62
(dp3903
sg71
g3889
sg64
(lp3904
g57
(g58
g59
NtRp3905
(dp3906
g62
(dp3907
g70
I3
ssg71
g3901
sg64
(lp3908
S'/'
asbasbasbag57
(g73
g59
NtRp3909
(dp3910
g62
(dp3911
sg71
g3785
sg64
(lp3912
g57
(g78
g59
NtRp3913
(dp3914
g62
(dp3915
g82
g83
ssg71
g3909
sg64
(lp3916
g420
asbag57
(g78
g59
NtRp3917
(dp3918
g62
(dp3919
g89
g90
ssg71
g3909
sg64
(lp3920
S':'
asbag57
(g78
g59
NtRp3921
(dp3922
g62
(dp3923
sg71
g3909
sg64
(lp3924
g57
(g58
g59
NtRp3925
(dp3926
g62
(dp3927
g70
I3
ssg71
g3921
sg64
(lp3928
S''
asbasbasbag57
(g73
g59
NtRp3929
(dp3930
g62
(dp3931
sg71
g3785
sg64
(lp3932
g57
(g78
g59
NtRp3933
(dp3934
g62
(dp3935
g82
g83
ssg71
g3929
sg64
(lp3936
g441
asbag57
(g78
g59
NtRp3937
(dp3938
g62
(dp3939
g89
g90
ssg71
g3929
sg64
(lp3940
S':'
asbag57
(g78
g59
NtRp3941
(dp3942
g62
(dp3943
sg71
g3929
sg64
(lp3944
g57
(g58
g59
NtRp3945
(dp3946
g62
(dp3947
g70
I3
ssg71
g3941
sg64
(lp3948
S''
asbasbasbasbasbasbasbasbasbasbasbag57
(g73
g59
NtRp3949
(dp3950
g62
(dp3951
sg71
g3715
sg64
(lp3952
g57
(g78
g59
NtRp3953
(dp3954
g62
(dp3955
g82
g83
ssg71
g3949
sg64
(lp3956
S'delimiters'
p3957
asbag57
(g78
g59
NtRp3958
(dp3959
g62
(dp3960
g89
g90
ssg71
g3949
sg64
(lp3961
S':'
asbag57
(g78
g59
NtRp3962
(dp3963
g62
(dp3964
sg71
g3949
sg64
(lp3965
g57
(g58
g59
NtRp3966
(dp3967
g62
(dp3968
g70
I5
ssg71
g3962
sg64
(lp3969
g57
(g66
g59
NtRp3970
(dp3971
g62
(dp3972
g70
I4
ssg71
Nsg64
(lp3973
g57
(g73
g59
NtRp3974
(dp3975
g62
(dp3976
sg71
g3970
sg64
(lp3977
g57
(g78
g59
NtRp3978
(dp3979
g62
(dp3980
sg71
g3974
sg64
(lp3981
g57
(g58
g59
NtRp3982
(dp3983
g62
(dp3984
g70
I4
ssg71
g3978
sg64
(lp3985
S'{{'
p3986
asbasbasbag57
(g73
g59
NtRp3987
(dp3988
g62
(dp3989
sg71
g3970
sg64
(lp3990
g57
(g78
g59
NtRp3991
(dp3992
g62
(dp3993
sg71
g3987
sg64
(lp3994
g57
(g58
g59
NtRp3995
(dp3996
g62
(dp3997
g70
I4
ssg71
g3991
sg64
(lp3998
S'}}'
p3999
asbasbasbasbasbasbasbag57
(g73
g59
NtRp4000
(dp4001
g62
(dp4002
sg71
g3715
sg64
(lp4003
g57
(g78
g59
NtRp4004
(dp4005
g62
(dp4006
g82
g83
ssg71
g4000
sg64
(lp4007
S'files'
p4008
asbag57
(g78
g59
NtRp4009
(dp4010
g62
(dp4011
g89
g90
ssg71
g4000
sg64
(lp4012
S':'
asbag57
(g78
g59
NtRp4013
(dp4014
g62
(dp4015
sg71
g4000
sg64
(lp4016
g57
(g58
g59
NtRp4017
(dp4018
g62
(dp4019
g70
I5
ssg71
g4013
sg64
(lp4020
g57
(g66
g59
NtRp4021
(dp4022
g62
(dp4023
g70
I4
ssg71
Nsg64
(lp4024
g57
(g73
g59
NtRp4025
(dp4026
g62
(dp4027
sg71
g4021
sg64
(lp4028
g57
(g78
g59
NtRp4029
(dp4030
g62
(dp4031
sg71
g4025
sg64
(lp4032
g57
(g58
g59
NtRp4033
(dp4034
g62
(dp4035
g70
I4
ssg71
g4029
sg64
(lp4036
S'/OnlineExamination/static/js/jquery.js'
p4037
asbasbasbag57
(g73
g59
NtRp4038
(dp4039
g62
(dp4040
sg71
g4021
sg64
(lp4041
g57
(g78
g59
NtRp4042
(dp4043
g62
(dp4044
sg71
g4038
sg64
(lp4045
g57
(g58
g59
NtRp4046
(dp4047
g62
(dp4048
g70
I4
ssg71
g4042
sg64
(lp4049
S'/OnlineExamination/static/css/calendar.css'
p4050
asbasbasbag57
(g73
g59
NtRp4051
(dp4052
g62
(dp4053
sg71
g4021
sg64
(lp4054
g57
(g78
g59
NtRp4055
(dp4056
g62
(dp4057
sg71
g4051
sg64
(lp4058
g57
(g58
g59
NtRp4059
(dp4060
g62
(dp4061
g70
I4
ssg71
g4055
sg64
(lp4062
S'/OnlineExamination/static/js/calendar.js'
p4063
asbasbasbag57
(g73
g59
NtRp4064
(dp4065
g62
(dp4066
sg71
g4021
sg64
(lp4067
g57
(g78
g59
NtRp4068
(dp4069
g62
(dp4070
sg71
g4064
sg64
(lp4071
g57
(g58
g59
NtRp4072
(dp4073
g62
(dp4074
g70
I4
ssg71
g4068
sg64
(lp4075
S'/OnlineExamination/static/js/web2py.js'
p4076
asbasbasbag57
(g73
g59
NtRp4077
(dp4078
g62
(dp4079
sg71
g4021
sg64
(lp4080
g57
(g78
g59
NtRp4081
(dp4082
g62
(dp4083
sg71
g4077
sg64
(lp4084
g57
(g58
g59
NtRp4085
(dp4086
g62
(dp4087
g70
I4
ssg71
g4081
sg64
(lp4088
S'/OnlineExamination/static/css/web2py.css'
p4089
asbasbasbag57
(g73
g59
NtRp4090
(dp4091
g62
(dp4092
sg71
g4021
sg64
(lp4093
g57
(g78
g59
NtRp4094
(dp4095
g62
(dp4096
sg71
g4090
sg64
(lp4097
g57
(g58
g59
NtRp4098
(dp4099
g62
(dp4100
g70
I4
ssg71
g4094
sg64
(lp4101
S'/OnlineExamination/static/css/bootstrap.min.css'
p4102
asbasbasbag57
(g73
g59
NtRp4103
(dp4104
g62
(dp4105
sg71
g4021
sg64
(lp4106
g57
(g78
g59
NtRp4107
(dp4108
g62
(dp4109
sg71
g4103
sg64
(lp4110
g57
(g58
g59
NtRp4111
(dp4112
g62
(dp4113
g70
I4
ssg71
g4107
sg64
(lp4114
S'/OnlineExamination/static/css/bootstrap-responsive.min.css'
p4115
asbasbasbag57
(g73
g59
NtRp4116
(dp4117
g62
(dp4118
sg71
g4021
sg64
(lp4119
g57
(g78
g59
NtRp4120
(dp4121
g62
(dp4122
sg71
g4116
sg64
(lp4123
g57
(g58
g59
NtRp4124
(dp4125
g62
(dp4126
g70
I4
ssg71
g4120
sg64
(lp4127
S'/OnlineExamination/static/css/web2py_bootstrap.css'
p4128
asbasbasbasbasbasbasbag57
(g73
g59
NtRp4129
(dp4130
g62
(dp4131
sg71
g3715
sg64
(lp4132
g57
(g78
g59
NtRp4133
(dp4134
g62
(dp4135
g82
g83
ssg71
g4129
sg64
(lp4136
S'flash'
p4137
asbag57
(g78
g59
NtRp4138
(dp4139
g62
(dp4140
g89
g90
ssg71
g4129
sg64
(lp4141
S':'
asbag57
(g78
g59
NtRp4142
(dp4143
g62
(dp4144
sg71
g4129
sg64
(lp4145
g57
(g58
g59
NtRp4146
(dp4147
g62
(dp4148
g70
I5
ssg71
g4142
sg64
(lp4149
S''
asbasbasbag57
(g73
g59
NtRp4150
(dp4151
g62
(dp4152
sg71
g3715
sg64
(lp4153
g57
(g78
g59
NtRp4154
(dp4155
g62
(dp4156
g82
g83
ssg71
g4150
sg64
(lp4157
S'generic_patterns'
p4158
asbag57
(g78
g59
NtRp4159
(dp4160
g62
(dp4161
g89
g90
ssg71
g4150
sg64
(lp4162
S':'
asbag57
(g78
g59
NtRp4163
(dp4164
g62
(dp4165
sg71
g4150
sg64
(lp4166
g57
(g58
g59
NtRp4167
(dp4168
g62
(dp4169
g70
I5
ssg71
g4163
sg64
(lp4170
g57
(g66
g59
NtRp4171
(dp4172
g62
(dp4173
g70
I4
ssg71
Nsg64
(lp4174
g57
(g73
g59
NtRp4175
(dp4176
g62
(dp4177
sg71
g4171
sg64
(lp4178
g57
(g78
g59
NtRp4179
(dp4180
g62
(dp4181
sg71
g4175
sg64
(lp4182
g57
(g58
g59
NtRp4183
(dp4184
g62
(dp4185
g70
I4
ssg71
g4179
sg64
(lp4186
S'*'
asbasbasbasbasbasbasbag57
(g73
g59
NtRp4187
(dp4188
g62
(dp4189
sg71
g3715
sg64
(lp4190
g57
(g78
g59
NtRp4191
(dp4192
g62
(dp4193
g82
g83
ssg71
g4187
sg64
(lp4194
S'google_analytics_id'
p4195
asbag57
(g78
g59
NtRp4196
(dp4197
g62
(dp4198
g89
g90
ssg71
g4187
sg64
(lp4199
S':'
asbag57
(g78
g59
NtRp4200
(dp4201
g62
(dp4202
sg71
g4187
sg64
(lp4203
g57
(g58
g59
NtRp4204
(dp4205
g62
(dp4206
g70
I5
ssg71
g4200
sg64
(lp4207
S'None'
p4208
asbasbasbag57
(g73
g59
NtRp4209
(dp4210
g62
(dp4211
sg71
g3715
sg64
(lp4212
g57
(g78
g59
NtRp4213
(dp4214
g62
(dp4215
g82
g83
ssg71
g4209
sg64
(lp4216
S'headers'
p4217
asbag57
(g78
g59
NtRp4218
(dp4219
g62
(dp4220
g89
g90
ssg71
g4209
sg64
(lp4221
S':'
asbag57
(g78
g59
NtRp4222
(dp4223
g62
(dp4224
sg71
g4209
sg64
(lp4225
g57
(g58
g59
NtRp4226
(dp4227
g62
(dp4228
g70
I5
ssg71
g4222
sg64
(lp4229
g57
(g66
g59
NtRp4230
(dp4231
g62
(dp4232
g70
I4
ssg71
Nsg64
(lp4233
g57
(g73
g59
NtRp4234
(dp4235
g62
(dp4236
sg71
g4230
sg64
(lp4237
g57
(g78
g59
NtRp4238
(dp4239
g62
(dp4240
g82
g83
ssg71
g4234
sg64
(lp4241
S'X-Powered-By'
p4242
asbag57
(g78
g59
NtRp4243
(dp4244
g62
(dp4245
g89
g90
ssg71
g4234
sg64
(lp4246
S':'
asbag57
(g78
g59
NtRp4247
(dp4248
g62
(dp4249
sg71
g4234
sg64
(lp4250
g57
(g58
g59
NtRp4251
(dp4252
g62
(dp4253
g70
I4
ssg71
g4247
sg64
(lp4254
S'web2py'
p4255
asbasbasbasbasbasbasbag57
(g73
g59
NtRp4256
(dp4257
g62
(dp4258
sg71
g3715
sg64
(lp4259
g57
(g78
g59
NtRp4260
(dp4261
g62
(dp4262
g82
g83
ssg71
g4256
sg64
(lp4263
S'logo'
p4264
asbag57
(g78
g59
NtRp4265
(dp4266
g62
(dp4267
g89
g90
ssg71
g4256
sg64
(lp4268
S':'
asbag57
(g78
g59
NtRp4269
(dp4270
g62
(dp4271
sg71
g4256
sg64
(lp4272
g57
(g58
g59
NtRp4273
(dp4274
g62
(dp4275
g70
I5
ssg71
g4269
sg64
(lp4276
g57
(cgluon.html
A
p4277
g59
NtRp4278
(dp4279
g62
(dp4280
S'_class'
p4281
S'brand'
p4282
sS'_href'
p4283
S'http://www.web2py.com/'
p4284
ssg71
Nsg64
(lp4285
g57
(cgluon.html
B
p4286
g59
NtRp4287
(dp4288
g62
(dp4289
sg71
g4278
sg64
(lp4290
S'web'
p4291
ag57
(cgluon.html
SPAN
p4292
g59
NtRp4293
(dp4294
g62
(dp4295
sg71
g4287
sg64
(lp4296
I2
asbaS'py'
p4297
asbacgluon.html
XML_unpickle
p4298
(S's\r\x00\x00\x00&trade;&nbsp;'
tRp4299
asbasbasbasbag57
(g73
g59
NtRp4300
(dp4301
g62
(dp4302
sg71
g3715
sg64
(lp4303
g57
(g78
g59
NtRp4304
(dp4305
g62
(dp4306
g82
g83
ssg71
g4300
sg64
(lp4307
S'menu'
p4308
asbag57
(g78
g59
NtRp4309
(dp4310
g62
(dp4311
g89
g90
ssg71
g4300
sg64
(lp4312
S':'
asbag57
(g78
g59
NtRp4313
(dp4314
g62
(dp4315
sg71
g4300
sg64
(lp4316
g57
(g58
g59
NtRp4317
(dp4318
g62
(dp4319
g70
I5
ssg71
g4313
sg64
(lp4320
g57
(g66
g59
NtRp4321
(dp4322
g62
(dp4323
g70
I4
ssg71
Nsg64
(lp4324
g57
(g73
g59
NtRp4325
(dp4326
g62
(dp4327
sg71
g4321
sg64
(lp4328
g57
(g78
g59
NtRp4329
(dp4330
g62
(dp4331
sg71
g4325
sg64
(lp4332
g57
(g58
g59
NtRp4333
(dp4334
g62
(dp4335
g70
I4
ssg71
g4329
sg64
(lp4336
g57
(g66
g59
NtRp4337
(dp4338
g62
(dp4339
g70
I3
ssg71
Nsg64
(lp4340
g57
(g73
g59
NtRp4341
(dp4342
g62
(dp4343
sg71
g4337
sg64
(lp4344
g57
(g78
g59
NtRp4345
(dp4346
g62
(dp4347
sg71
g4341
sg64
(lp4348
g57
(g58
g59
NtRp4349
(dp4350
g62
(dp4351
g70
I3
ssg71
g4345
sg64
(lp4352
cgluon.languages
lazyT_unpickle
p4353
(S's\x04\x00\x00\x00Home'
tRp4354
asbasbasbag57
(g73
g59
NtRp4355
(dp4356
g62
(dp4357
sg71
g4337
sg64
(lp4358
g57
(g78
g59
NtRp4359
(dp4360
g62
(dp4361
sg71
g4355
sg64
(lp4362
g57
(g58
g59
NtRp4363
(dp4364
g62
(dp4365
g70
I3
ssg71
g4359
sg64
(lp4366
g100
asbasbasbag57
(g73
g59
NtRp4367
(dp4368
g62
(dp4369
sg71
g4337
sg64
(lp4370
g57
(g78
g59
NtRp4371
(dp4372
g62
(dp4373
sg71
g4367
sg64
(lp4374
g57
(g58
g59
NtRp4375
(dp4376
g62
(dp4377
g70
I3
ssg71
g4371
sg64
(lp4378
S'/OnlineExamination/default/index'
p4379
asbasbasbag57
(g73
g59
NtRp4380
(dp4381
g62
(dp4382
sg71
g4337
sg64
(lp4383
g57
(g78
g59
NtRp4384
(dp4385
g62
(dp4386
sg71
g4380
sg64
(lp4387
g57
(g58
g59
NtRp4388
(dp4389
g62
(dp4390
g70
I3
ssg71
g4384
sg64
(lp4391
g57
(g66
g59
NtRp4392
(dp4393
g62
(dp4394
g70
I2
ssg71
Nsg64
(lp4395
sbasbasbasbasbasbasbasbag57
(g73
g59
NtRp4396
(dp4397
g62
(dp4398
sg71
g4321
sg64
(lp4399
g57
(g78
g59
NtRp4400
(dp4401
g62
(dp4402
sg71
g4396
sg64
(lp4403
g57
(g58
g59
NtRp4404
(dp4405
g62
(dp4406
g70
I4
ssg71
g4400
sg64
(lp4407
g57
(g66
g59
NtRp4408
(dp4409
g62
(dp4410
g70
I3
ssg71
Nsg64
(lp4411
g57
(g73
g59
NtRp4412
(dp4413
g62
(dp4414
sg71
g4408
sg64
(lp4415
g57
(g78
g59
NtRp4416
(dp4417
g62
(dp4418
sg71
g4412
sg64
(lp4419
g57
(g58
g59
NtRp4420
(dp4421
g62
(dp4422
g70
I3
ssg71
g4416
sg64
(lp4423
g57
(g4292
g59
NtRp4424
(dp4425
g62
(dp4426
g4281
S'highlighted'
p4427
ssg71
g57
(g4277
g59
NtRp4428
(dp4429
g62
(dp4430
g4283
S'http://web2py.com'
p4431
ssg71
g57
(cgluon.html
LI
p4432
g59
NtRp4433
(dp4434
g62
(dp4435
g4281
S'dropdown'
p4436
ssg71
g57
(cgluon.html
UL
p4437
g59
NtRp4438
(dp4439
g62
(dp4440
S'mobile'
p4441
I00
sS'ul_class'
p4442
S'dropdown-menu'
p4443
sS'li_last'
p4444
S'web2py-menu-last'
p4445
sS'li_class'
p4446
g4436
sS'li_first'
p4447
S'web2py-menu-first'
p4448
sg4281
S'nav'
p4449
sS'li_active'
p4450
S'web2py-menu-active'
p4451
ssg71
Nsg64
(lp4452
g57
(g4432
g59
NtRp4453
(dp4454
g62
(dp4455
g4281
g4448
ssg71
g4438
sg64
(lp4456
g57
(g4277
g59
NtRp4457
(dp4458
g62
(dp4459
g4283
g4379
ssg71
g4453
sg64
(lp4460
g4354
asbasbag4433
asbsg64
(lp4461
g4428
ag57
(g4437
g59
NtRp4462
(dp4463
g62
(dp4464
g4281
g4443
ssg71
g4433
sg64
(lp4465
g57
(g4432
g59
NtRp4466
(dp4467
g62
(dp4468
sg71
g4462
sg64
(lp4469
g57
(g4277
g59
NtRp4470
(dp4471
g62
(dp4472
g4283
S'/admin/default/site'
p4473
ssg71
g4466
sg64
(lp4474
g4353
(S's\x08\x00\x00\x00My Sites'
tRp4475
asbasbag57
(g4432
g59
NtRp4476
(dp4477
g62
(dp4478
g4281
g4436
ssg71
g4462
sg64
(lp4479
g57
(g4277
g59
NtRp4480
(dp4481
g62
(dp4482
g4283
S'/admin/default/design/OnlineExamination'
p4483
ssg71
g4476
sg64
(lp4484
g4353
(S's\x08\x00\x00\x00This App'
tRp4485
asbag57
(g4437
g59
NtRp4486
(dp4487
g62
(dp4488
g4281
g4443
ssg71
g4476
sg64
(lp4489
g57
(g4432
g59
NtRp4490
(dp4491
g62
(dp4492
sg71
g4486
sg64
(lp4493
g57
(g4277
g59
NtRp4494
(dp4495
g62
(dp4496
g4283
S'/admin/default/edit/OnlineExamination/controllers/default.py'
p4497
ssg71
g4490
sg64
(lp4498
g4353
(S's\n\x00\x00\x00Controller'
tRp4499
asbasbag57
(g4432
g59
NtRp4500
(dp4501
g62
(dp4502
sg71
g4486
sg64
(lp4503
g57
(g4277
g59
NtRp4504
(dp4505
g62
(dp4506
g4283
S'/admin/default/edit/OnlineExamination/views/default/F2.html'
p4507
ssg71
g4500
sg64
(lp4508
g4353
(S's\x04\x00\x00\x00View'
tRp4509
asbasbag57
(g4432
g59
NtRp4510
(dp4511
g62
(dp4512
sg71
g4486
sg64
(lp4513
g57
(g4277
g59
NtRp4514
(dp4515
g62
(dp4516
g4283
S'/admin/default/edit/OnlineExamination/views/layout.html'
p4517
ssg71
g4510
sg64
(lp4518
g4353
(S's\x06\x00\x00\x00Layout'
tRp4519
asbasbag57
(g4432
g59
NtRp4520
(dp4521
g62
(dp4522
sg71
g4486
sg64
(lp4523
g57
(g4277
g59
NtRp4524
(dp4525
g62
(dp4526
g4283
S'/admin/default/edit/OnlineExamination/static/css/web2py.css'
p4527
ssg71
g4520
sg64
(lp4528
g4353
(S's\n\x00\x00\x00Stylesheet'
tRp4529
asbasbag57
(g4432
g59
NtRp4530
(dp4531
g62
(dp4532
sg71
g4486
sg64
(lp4533
g57
(g4277
g59
NtRp4534
(dp4535
g62
(dp4536
g4283
S'/admin/default/edit/OnlineExamination/models/db.py'
p4537
ssg71
g4530
sg64
(lp4538
g4353
(S's\x08\x00\x00\x00DB Model'
tRp4539
asbasbag57
(g4432
g59
NtRp4540
(dp4541
g62
(dp4542
sg71
g4486
sg64
(lp4543
g57
(g4277
g59
NtRp4544
(dp4545
g62
(dp4546
g4283
S'/admin/default/edit/OnlineExamination/models/menu.py'
p4547
ssg71
g4540
sg64
(lp4548
g4353
(S's\n\x00\x00\x00Menu Model'
tRp4549
asbasbag57
(g4432
g59
NtRp4550
(dp4551
g62
(dp4552
sg71
g4486
sg64
(lp4553
g57
(g4277
g59
NtRp4554
(dp4555
g62
(dp4556
g4283
S'/OnlineExamination/appadmin/index'
p4557
ssg71
g4550
sg64
(lp4558
g4353
(S's\x08\x00\x00\x00Database'
tRp4559
asbasbag57
(g4432
g59
NtRp4560
(dp4561
g62
(dp4562
sg71
g4486
sg64
(lp4563
g57
(g4277
g59
NtRp4564
(dp4565
g62
(dp4566
g4283
S'/admin/default/errors/OnlineExamination'
p4567
ssg71
g4560
sg64
(lp4568
g4353
(S's\x06\x00\x00\x00Errors'
tRp4569
asbasbag57
(g4432
g59
NtRp4570
(dp4571
g62
(dp4572
sg71
g4486
sg64
(lp4573
g57
(g4277
g59
NtRp4574
(dp4575
g62
(dp4576
g4283
S'/admin/default/about/OnlineExamination'
p4577
ssg71
g4570
sg64
(lp4578
g4353
(S's\x05\x00\x00\x00About'
tRp4579
asbasbasbasbag57
(g4432
g59
NtRp4580
(dp4581
g62
(dp4582
g4281
g4436
ssg71
g4462
sg64
(lp4583
g57
(g4277
g59
NtRp4584
(dp4585
g62
(dp4586
g4283
S'http://www.web2py.com'
p4587
ssg71
g4580
sg64
(lp4588
S'web2py.com'
p4589
asbag57
(g4437
g59
NtRp4590
(dp4591
g62
(dp4592
g4281
g4443
ssg71
g4580
sg64
(lp4593
g57
(g4432
g59
NtRp4594
(dp4595
g62
(dp4596
sg71
g4590
sg64
(lp4597
g57
(g4277
g59
NtRp4598
(dp4599
g62
(dp4600
g4283
S'http://www.web2py.com/examples/default/download'
p4601
ssg71
g4594
sg64
(lp4602
g4353
(S's\x08\x00\x00\x00Download'
tRp4603
asbasbag57
(g4432
g59
NtRp4604
(dp4605
g62
(dp4606
sg71
g4590
sg64
(lp4607
g57
(g4277
g59
NtRp4608
(dp4609
g62
(dp4610
g4283
S'http://www.web2py.com/examples/default/support'
p4611
ssg71
g4604
sg64
(lp4612
g4353
(S's\x07\x00\x00\x00Support'
tRp4613
asbasbag57
(g4432
g59
NtRp4614
(dp4615
g62
(dp4616
sg71
g4590
sg64
(lp4617
g57
(g4277
g59
NtRp4618
(dp4619
g62
(dp4620
g4283
S'http://web2py.com/demo_admin'
p4621
ssg71
g4614
sg64
(lp4622
g4353
(S's\x04\x00\x00\x00Demo'
tRp4623
asbasbag57
(g4432
g59
NtRp4624
(dp4625
g62
(dp4626
sg71
g4590
sg64
(lp4627
g57
(g4277
g59
NtRp4628
(dp4629
g62
(dp4630
g4283
S'http://web2py.com/examples/default/examples'
p4631
ssg71
g4624
sg64
(lp4632
g4353
(S's\x0e\x00\x00\x00Quick Examples'
tRp4633
asbasbag57
(g4432
g59
NtRp4634
(dp4635
g62
(dp4636
sg71
g4590
sg64
(lp4637
g57
(g4277
g59
NtRp4638
(dp4639
g62
(dp4640
g4283
S'http://web2py.com/AlterEgo'
p4641
ssg71
g4634
sg64
(lp4642
g4353
(S's\x03\x00\x00\x00FAQ'
tRp4643
asbasbag57
(g4432
g59
NtRp4644
(dp4645
g62
(dp4646
sg71
g4590
sg64
(lp4647
g57
(g4277
g59
NtRp4648
(dp4649
g62
(dp4650
g4283
S'http://www.web2py.com/examples/default/videos/'
p4651
ssg71
g4644
sg64
(lp4652
g4353
(S's\x06\x00\x00\x00Videos'
tRp4653
asbasbag57
(g4432
g59
NtRp4654
(dp4655
g62
(dp4656
sg71
g4590
sg64
(lp4657
g57
(g4277
g59
NtRp4658
(dp4659
g62
(dp4660
g4283
S'http://web2py.com/appliances'
p4661
ssg71
g4654
sg64
(lp4662
g4353
(S's\x11\x00\x00\x00Free Applications'
tRp4663
asbasbag57
(g4432
g59
NtRp4664
(dp4665
g62
(dp4666
sg71
g4590
sg64
(lp4667
g57
(g4277
g59
NtRp4668
(dp4669
g62
(dp4670
g4283
S'http://web2py.com/plugins'
p4671
ssg71
g4664
sg64
(lp4672
g4353
(S's\x07\x00\x00\x00Plugins'
tRp4673
asbasbag57
(g4432
g59
NtRp4674
(dp4675
g62
(dp4676
sg71
g4590
sg64
(lp4677
g57
(g4277
g59
NtRp4678
(dp4679
g62
(dp4680
g4283
S'http://web2py.com/layouts'
p4681
ssg71
g4674
sg64
(lp4682
g4353
(S's\x07\x00\x00\x00Layouts'
tRp4683
asbasbag57
(g4432
g59
NtRp4684
(dp4685
g62
(dp4686
sg71
g4590
sg64
(lp4687
g57
(g4277
g59
NtRp4688
(dp4689
g62
(dp4690
g4283
S'http://web2pyslices.com/'
p4691
ssg71
g4684
sg64
(lp4692
g4353
(S's\x07\x00\x00\x00Recipes'
tRp4693
asbasbag57
(g4432
g59
NtRp4694
(dp4695
g62
(dp4696
sg71
g4590
sg64
(lp4697
g57
(g4277
g59
NtRp4698
(dp4699
g62
(dp4700
g4283
S'http://web2py.com/semantic'
p4701
ssg71
g4694
sg64
(lp4702
g4353
(S's\x08\x00\x00\x00Semantic'
tRp4703
asbasbasbasbag57
(g4432
g59
NtRp4704
(dp4705
g62
(dp4706
g4281
g4436
ssg71
g4462
sg64
(lp4707
g57
(g4277
g59
NtRp4708
(dp4709
g62
(dp4710
g4283
S'http://www.web2py.com/book'
p4711
ssg71
g4704
sg64
(lp4712
g4353
(S's\r\x00\x00\x00Documentation'
tRp4713
asbag57
(g4437
g59
NtRp4714
(dp4715
g62
(dp4716
g4281
g4443
ssg71
g4704
sg64
(lp4717
g57
(g4432
g59
NtRp4718
(dp4719
g62
(dp4720
sg71
g4714
sg64
(lp4721
g57
(g4277
g59
NtRp4722
(dp4723
g62
(dp4724
g4283
S'http://www.web2py.com/book/default/chapter/00'
p4725
ssg71
g4718
sg64
(lp4726
g4353
(S's\x07\x00\x00\x00Preface'
tRp4727
asbasbag57
(g4432
g59
NtRp4728
(dp4729
g62
(dp4730
sg71
g4714
sg64
(lp4731
g57
(g4277
g59
NtRp4732
(dp4733
g62
(dp4734
g4283
S'http://www.web2py.com/book/default/chapter/01'
p4735
ssg71
g4728
sg64
(lp4736
g4353
(S's\x0c\x00\x00\x00Introduction'
tRp4737
asbasbag57
(g4432
g59
NtRp4738
(dp4739
g62
(dp4740
sg71
g4714
sg64
(lp4741
g57
(g4277
g59
NtRp4742
(dp4743
g62
(dp4744
g4283
S'http://www.web2py.com/book/default/chapter/02'
p4745
ssg71
g4738
sg64
(lp4746
g4353
(S's\x06\x00\x00\x00Python'
tRp4747
asbasbag57
(g4432
g59
NtRp4748
(dp4749
g62
(dp4750
sg71
g4714
sg64
(lp4751
g57
(g4277
g59
NtRp4752
(dp4753
g62
(dp4754
g4283
S'http://www.web2py.com/book/default/chapter/03'
p4755
ssg71
g4748
sg64
(lp4756
g4353
(S's\x08\x00\x00\x00Overview'
tRp4757
asbasbag57
(g4432
g59
NtRp4758
(dp4759
g62
(dp4760
sg71
g4714
sg64
(lp4761
g57
(g4277
g59
NtRp4762
(dp4763
g62
(dp4764
g4283
S'http://www.web2py.com/book/default/chapter/04'
p4765
ssg71
g4758
sg64
(lp4766
g4353
(S's\x08\x00\x00\x00The Core'
tRp4767
asbasbag57
(g4432
g59
NtRp4768
(dp4769
g62
(dp4770
sg71
g4714
sg64
(lp4771
g57
(g4277
g59
NtRp4772
(dp4773
g62
(dp4774
g4283
S'http://www.web2py.com/book/default/chapter/05'
p4775
ssg71
g4768
sg64
(lp4776
g4353
(S's\t\x00\x00\x00The Views'
tRp4777
asbasbag57
(g4432
g59
NtRp4778
(dp4779
g62
(dp4780
sg71
g4714
sg64
(lp4781
g57
(g4277
g59
NtRp4782
(dp4783
g62
(dp4784
g4283
S'http://www.web2py.com/book/default/chapter/06'
p4785
ssg71
g4778
sg64
(lp4786
g4353
(S's\x08\x00\x00\x00Database'
tRp4787
asbasbag57
(g4432
g59
NtRp4788
(dp4789
g62
(dp4790
sg71
g4714
sg64
(lp4791
g57
(g4277
g59
NtRp4792
(dp4793
g62
(dp4794
g4283
S'http://www.web2py.com/book/default/chapter/07'
p4795
ssg71
g4788
sg64
(lp4796
g4353
(S's\x14\x00\x00\x00Forms and Validators'
tRp4797
asbasbag57
(g4432
g59
NtRp4798
(dp4799
g62
(dp4800
sg71
g4714
sg64
(lp4801
g57
(g4277
g59
NtRp4802
(dp4803
g62
(dp4804
g4283
S'http://www.web2py.com/book/default/chapter/08'
p4805
ssg71
g4798
sg64
(lp4806
g4353
(S's\r\x00\x00\x00Email and SMS'
tRp4807
asbasbag57
(g4432
g59
NtRp4808
(dp4809
g62
(dp4810
sg71
g4714
sg64
(lp4811
g57
(g4277
g59
NtRp4812
(dp4813
g62
(dp4814
g4283
S'http://www.web2py.com/book/default/chapter/09'
p4815
ssg71
g4808
sg64
(lp4816
g4353
(S's\x0e\x00\x00\x00Access Control'
tRp4817
asbasbag57
(g4432
g59
NtRp4818
(dp4819
g62
(dp4820
sg71
g4714
sg64
(lp4821
g57
(g4277
g59
NtRp4822
(dp4823
g62
(dp4824
g4283
S'http://www.web2py.com/book/default/chapter/10'
p4825
ssg71
g4818
sg64
(lp4826
g4353
(S's\x08\x00\x00\x00Services'
tRp4827
asbasbag57
(g4432
g59
NtRp4828
(dp4829
g62
(dp4830
sg71
g4714
sg64
(lp4831
g57
(g4277
g59
NtRp4832
(dp4833
g62
(dp4834
g4283
S'http://www.web2py.com/book/default/chapter/11'
p4835
ssg71
g4828
sg64
(lp4836
g4353
(S's\x0c\x00\x00\x00Ajax Recipes'
tRp4837
asbasbag57
(g4432
g59
NtRp4838
(dp4839
g62
(dp4840
sg71
g4714
sg64
(lp4841
g57
(g4277
g59
NtRp4842
(dp4843
g62
(dp4844
g4283
S'http://www.web2py.com/book/default/chapter/12'
p4845
ssg71
g4838
sg64
(lp4846
g4353
(S's\x16\x00\x00\x00Components and Plugins'
tRp4847
asbasbag57
(g4432
g59
NtRp4848
(dp4849
g62
(dp4850
sg71
g4714
sg64
(lp4851
g57
(g4277
g59
NtRp4852
(dp4853
g62
(dp4854
g4283
S'http://www.web2py.com/book/default/chapter/13'
p4855
ssg71
g4848
sg64
(lp4856
g4353
(S's\x12\x00\x00\x00Deployment Recipes'
tRp4857
asbasbag57
(g4432
g59
NtRp4858
(dp4859
g62
(dp4860
sg71
g4714
sg64
(lp4861
g57
(g4277
g59
NtRp4862
(dp4863
g62
(dp4864
g4283
S'http://www.web2py.com/book/default/chapter/14'
p4865
ssg71
g4858
sg64
(lp4866
g4353
(S's\r\x00\x00\x00Other Recipes'
tRp4867
asbasbag57
(g4432
g59
NtRp4868
(dp4869
g62
(dp4870
sg71
g4714
sg64
(lp4871
g57
(g4277
g59
NtRp4872
(dp4873
g62
(dp4874
g4283
S'http://stores.lulu.com/web2py'
p4875
ssg71
g4868
sg64
(lp4876
g4353
(S's\r\x00\x00\x00Buy this book'
tRp4877
asbasbasbasbag57
(g4432
g59
NtRp4878
(dp4879
g62
(dp4880
g4281
g4436
ssg71
g4462
sg64
(lp4881
g57
(g4277
g59
NtRp4882
(dp4883
g62
(dp4884
S'_onclick'
p4885
S'javascript:void(0);return false;'
p4886
sg4283
S'#'
ssg71
g4878
sg64
(lp4887
g4353
(S's\t\x00\x00\x00Community'
tRp4888
asbag57
(g4437
g59
NtRp4889
(dp4890
g62
(dp4891
g4281
g4443
ssg71
g4878
sg64
(lp4892
g57
(g4432
g59
NtRp4893
(dp4894
g62
(dp4895
sg71
g4889
sg64
(lp4896
g57
(g4277
g59
NtRp4897
(dp4898
g62
(dp4899
g4283
S'http://www.web2py.com/examples/default/usergroups'
p4900
ssg71
g4893
sg64
(lp4901
g4353
(S's\x06\x00\x00\x00Groups'
tRp4902
asbasbag57
(g4432
g59
NtRp4903
(dp4904
g62
(dp4905
sg71
g4889
sg64
(lp4906
g57
(g4277
g59
NtRp4907
(dp4908
g62
(dp4909
g4283
S'http://twitter.com/web2py'
p4910
ssg71
g4903
sg64
(lp4911
g4353
(S's\x07\x00\x00\x00Twitter'
tRp4912
asbasbag57
(g4432
g59
NtRp4913
(dp4914
g62
(dp4915
sg71
g4889
sg64
(lp4916
g57
(g4277
g59
NtRp4917
(dp4918
g62
(dp4919
g4283
S'http://webchat.freenode.net/?channels=web2py'
p4920
ssg71
g4913
sg64
(lp4921
g4353
(S's\t\x00\x00\x00Live Chat'
tRp4922
asbasbasbasbag57
(g4432
g59
NtRp4923
(dp4924
g62
(dp4925
g4281
g4436
ssg71
g4462
sg64
(lp4926
g57
(g4277
g59
NtRp4927
(dp4928
g62
(dp4929
g4885
g4886
sg4283
S'#'
ssg71
g4923
sg64
(lp4930
g4353
(S's\x07\x00\x00\x00Plugins'
tRp4931
asbag57
(g4437
g59
NtRp4932
(dp4933
g62
(dp4934
g4281
g4443
ssg71
g4923
sg64
(lp4935
g57
(g4432
g59
NtRp4936
(dp4937
g62
(dp4938
sg71
g4932
sg64
(lp4939
g57
(g4277
g59
NtRp4940
(dp4941
g62
(dp4942
g4283
S'http://web2py.com/examples/default/download'
p4943
ssg71
g4936
sg64
(lp4944
S'plugin_wiki'
p4945
asbasbag57
(g4432
g59
NtRp4946
(dp4947
g62
(dp4948
sg71
g4932
sg64
(lp4949
g57
(g4277
g59
NtRp4950
(dp4951
g62
(dp4952
g4283
g4671
ssg71
g4946
sg64
(lp4953
g4353
(S's\r\x00\x00\x00Other Plugins'
tRp4954
asbasbag57
(g4432
g59
NtRp4955
(dp4956
g62
(dp4957
sg71
g4932
sg64
(lp4958
g57
(g4277
g59
NtRp4959
(dp4960
g62
(dp4961
g4283
g4681
ssg71
g4955
sg64
(lp4962
g4353
(S's\x0e\x00\x00\x00Layout Plugins'
tRp4963
asbasbasbasbasbasbsg64
(lp4964
g4424
asbsg64
(lp4965
g4255
asbasbasbasbag57
(g73
g59
NtRp4966
(dp4967
g62
(dp4968
sg71
g4408
sg64
(lp4969
g57
(g78
g59
NtRp4970
(dp4971
g62
(dp4972
sg71
g4966
sg64
(lp4973
g57
(g58
g59
NtRp4974
(dp4975
g62
(dp4976
g70
I3
ssg71
g4970
sg64
(lp4977
g100
asbasbasbag57
(g73
g59
NtRp4978
(dp4979
g62
(dp4980
sg71
g4408
sg64
(lp4981
g57
(g78
g59
NtRp4982
(dp4983
g62
(dp4984
sg71
g4978
sg64
(lp4985
g57
(g58
g59
NtRp4986
(dp4987
g62
(dp4988
g70
I3
ssg71
g4982
sg64
(lp4989
g4431
asbasbasbag57
(g73
g59
NtRp4990
(dp4991
g62
(dp4992
sg71
g4408
sg64
(lp4993
g57
(g78
g59
NtRp4994
(dp4995
g62
(dp4996
sg71
g4990
sg64
(lp4997
g57
(g58
g59
NtRp4998
(dp4999
g62
(dp5000
g70
I3
ssg71
g4994
sg64
(lp5001
g57
(g66
g59
NtRp5002
(dp5003
g62
(dp5004
g70
I2
ssg71
Nsg64
(lp5005
g57
(g73
g59
NtRp5006
(dp5007
g62
(dp5008
sg71
g5002
sg64
(lp5009
g57
(g78
g59
NtRp5010
(dp5011
g62
(dp5012
sg71
g5006
sg64
(lp5013
g57
(g58
g59
NtRp5014
(dp5015
g62
(dp5016
g70
I2
ssg71
g5010
sg64
(lp5017
g57
(g66
g59
NtRp5018
(dp5019
g62
(dp5020
g70
I1
ssg71
Nsg64
(lp5021
g57
(g73
g59
NtRp5022
(dp5023
g62
(dp5024
sg71
g5018
sg64
(lp5025
g57
(g78
g59
NtRp5026
(dp5027
g62
(dp5028
sg71
g5022
sg64
(lp5029
g57
(g58
g59
NtRp5030
(dp5031
g62
(dp5032
g70
I1
ssg71
g5026
sg64
(lp5033
g4475
asbasbasbag57
(g73
g59
NtRp5034
(dp5035
g62
(dp5036
sg71
g5018
sg64
(lp5037
g57
(g78
g59
NtRp5038
(dp5039
g62
(dp5040
sg71
g5034
sg64
(lp5041
g57
(g58
g59
NtRp5042
(dp5043
g62
(dp5044
g70
I1
ssg71
g5038
sg64
(lp5045
I00
asbasbasbag57
(g73
g59
NtRp5046
(dp5047
g62
(dp5048
sg71
g5018
sg64
(lp5049
g57
(g78
g59
NtRp5050
(dp5051
g62
(dp5052
sg71
g5046
sg64
(lp5053
g57
(g58
g59
NtRp5054
(dp5055
g62
(dp5056
g70
I1
ssg71
g5050
sg64
(lp5057
g4473
asbasbasbasbasbasbasbag57
(g73
g59
NtRp5058
(dp5059
g62
(dp5060
sg71
g5002
sg64
(lp5061
g57
(g78
g59
NtRp5062
(dp5063
g62
(dp5064
sg71
g5058
sg64
(lp5065
g57
(g58
g59
NtRp5066
(dp5067
g62
(dp5068
g70
I2
ssg71
g5062
sg64
(lp5069
g57
(g66
g59
NtRp5070
(dp5071
g62
(dp5072
g70
I1
ssg71
Nsg64
(lp5073
g57
(g73
g59
NtRp5074
(dp5075
g62
(dp5076
sg71
g5070
sg64
(lp5077
g57
(g78
g59
NtRp5078
(dp5079
g62
(dp5080
sg71
g5074
sg64
(lp5081
g57
(g58
g59
NtRp5082
(dp5083
g62
(dp5084
g70
I1
ssg71
g5078
sg64
(lp5085
g4485
asbasbasbag57
(g73
g59
NtRp5086
(dp5087
g62
(dp5088
sg71
g5070
sg64
(lp5089
g57
(g78
g59
NtRp5090
(dp5091
g62
(dp5092
sg71
g5086
sg64
(lp5093
g57
(g58
g59
NtRp5094
(dp5095
g62
(dp5096
g70
I1
ssg71
g5090
sg64
(lp5097
I00
asbasbasbag57
(g73
g59
NtRp5098
(dp5099
g62
(dp5100
sg71
g5070
sg64
(lp5101
g57
(g78
g59
NtRp5102
(dp5103
g62
(dp5104
sg71
g5098
sg64
(lp5105
g57
(g58
g59
NtRp5106
(dp5107
g62
(dp5108
g70
I1
ssg71
g5102
sg64
(lp5109
g4483
asbasbasbag57
(g73
g59
NtRp5110
(dp5111
g62
(dp5112
sg71
g5070
sg64
(lp5113
g57
(g78
g59
NtRp5114
(dp5115
g62
(dp5116
sg71
g5110
sg64
(lp5117
g57
(g58
g59
NtRp5118
(dp5119
g62
(dp5120
g70
I1
ssg71
g5114
sg64
(lp5121
(lp5122
(g4499
I00
g4497
tp5123
a(g4509
I00
g4507
tp5124
a(g4519
I00
g4517
tp5125
a(g4529
I00
g4527
tp5126
a(g4539
I00
g4537
tp5127
a(g4549
I00
g4547
tp5128
a(g4559
I00
g4557
tp5129
a(g4569
I00
g4567
tp5130
a(g4579
I00
g4577
tp5131
aasbasbasbasbasbasbasbag57
(g73
g59
NtRp5132
(dp5133
g62
(dp5134
sg71
g5002
sg64
(lp5135
g57
(g78
g59
NtRp5136
(dp5137
g62
(dp5138
sg71
g5132
sg64
(lp5139
g57
(g58
g59
NtRp5140
(dp5141
g62
(dp5142
g70
I2
ssg71
g5136
sg64
(lp5143
g57
(g66
g59
NtRp5144
(dp5145
g62
(dp5146
g70
I1
ssg71
Nsg64
(lp5147
g57
(g73
g59
NtRp5148
(dp5149
g62
(dp5150
sg71
g5144
sg64
(lp5151
g57
(g78
g59
NtRp5152
(dp5153
g62
(dp5154
sg71
g5148
sg64
(lp5155
g57
(g58
g59
NtRp5156
(dp5157
g62
(dp5158
g70
I1
ssg71
g5152
sg64
(lp5159
g4589
asbasbasbag57
(g73
g59
NtRp5160
(dp5161
g62
(dp5162
sg71
g5144
sg64
(lp5163
g57
(g78
g59
NtRp5164
(dp5165
g62
(dp5166
sg71
g5160
sg64
(lp5167
g57
(g58
g59
NtRp5168
(dp5169
g62
(dp5170
g70
I1
ssg71
g5164
sg64
(lp5171
I00
asbasbasbag57
(g73
g59
NtRp5172
(dp5173
g62
(dp5174
sg71
g5144
sg64
(lp5175
g57
(g78
g59
NtRp5176
(dp5177
g62
(dp5178
sg71
g5172
sg64
(lp5179
g57
(g58
g59
NtRp5180
(dp5181
g62
(dp5182
g70
I1
ssg71
g5176
sg64
(lp5183
g4587
asbasbasbag57
(g73
g59
NtRp5184
(dp5185
g62
(dp5186
sg71
g5144
sg64
(lp5187
g57
(g78
g59
NtRp5188
(dp5189
g62
(dp5190
sg71
g5184
sg64
(lp5191
g57
(g58
g59
NtRp5192
(dp5193
g62
(dp5194
g70
I1
ssg71
g5188
sg64
(lp5195
(lp5196
(g4603
I00
g4601
tp5197
a(g4613
I00
g4611
tp5198
a(g4623
I00
g4621
tp5199
a(g4633
I00
g4631
tp5200
a(g4643
I00
g4641
tp5201
a(g4653
I00
g4651
tp5202
a(g4663
I00
g4661
tp5203
a(g4673
I00
g4671
tp5204
a(g4683
I00
g4681
tp5205
a(g4693
I00
g4691
tp5206
a(g4703
I00
g4701
tp5207
aasbasbasbasbasbasbasbag57
(g73
g59
NtRp5208
(dp5209
g62
(dp5210
sg71
g5002
sg64
(lp5211
g57
(g78
g59
NtRp5212
(dp5213
g62
(dp5214
sg71
g5208
sg64
(lp5215
g57
(g58
g59
NtRp5216
(dp5217
g62
(dp5218
g70
I2
ssg71
g5212
sg64
(lp5219
g57
(g66
g59
NtRp5220
(dp5221
g62
(dp5222
g70
I1
ssg71
Nsg64
(lp5223
g57
(g73
g59
NtRp5224
(dp5225
g62
(dp5226
sg71
g5220
sg64
(lp5227
g57
(g78
g59
NtRp5228
(dp5229
g62
(dp5230
sg71
g5224
sg64
(lp5231
g57
(g58
g59
NtRp5232
(dp5233
g62
(dp5234
g70
I1
ssg71
g5228
sg64
(lp5235
g4713
asbasbasbag57
(g73
g59
NtRp5236
(dp5237
g62
(dp5238
sg71
g5220
sg64
(lp5239
g57
(g78
g59
NtRp5240
(dp5241
g62
(dp5242
sg71
g5236
sg64
(lp5243
g57
(g58
g59
NtRp5244
(dp5245
g62
(dp5246
g70
I1
ssg71
g5240
sg64
(lp5247
I00
asbasbasbag57
(g73
g59
NtRp5248
(dp5249
g62
(dp5250
sg71
g5220
sg64
(lp5251
g57
(g78
g59
NtRp5252
(dp5253
g62
(dp5254
sg71
g5248
sg64
(lp5255
g57
(g58
g59
NtRp5256
(dp5257
g62
(dp5258
g70
I1
ssg71
g5252
sg64
(lp5259
g4711
asbasbasbag57
(g73
g59
NtRp5260
(dp5261
g62
(dp5262
sg71
g5220
sg64
(lp5263
g57
(g78
g59
NtRp5264
(dp5265
g62
(dp5266
sg71
g5260
sg64
(lp5267
g57
(g58
g59
NtRp5268
(dp5269
g62
(dp5270
g70
I1
ssg71
g5264
sg64
(lp5271
(lp5272
(g4727
I00
g4725
tp5273
a(g4737
I00
g4735
tp5274
a(g4747
I00
g4745
tp5275
a(g4757
I00
g4755
tp5276
a(g4767
I00
g4765
tp5277
a(g4777
I00
g4775
tp5278
a(g4787
I00
g4785
tp5279
a(g4797
I00
g4795
tp5280
a(g4807
I00
g4805
tp5281
a(g4817
I00
g4815
tp5282
a(g4827
I00
g4825
tp5283
a(g4837
I00
g4835
tp5284
a(g4847
I00
g4845
tp5285
a(g4857
I00
g4855
tp5286
a(g4867
I00
g4865
tp5287
a(g4877
I00
g4875
tp5288
aasbasbasbasbasbasbasbag57
(g73
g59
NtRp5289
(dp5290
g62
(dp5291
sg71
g5002
sg64
(lp5292
g57
(g78
g59
NtRp5293
(dp5294
g62
(dp5295
sg71
g5289
sg64
(lp5296
g57
(g58
g59
NtRp5297
(dp5298
g62
(dp5299
g70
I2
ssg71
g5293
sg64
(lp5300
g57
(g66
g59
NtRp5301
(dp5302
g62
(dp5303
g70
I1
ssg71
Nsg64
(lp5304
g57
(g73
g59
NtRp5305
(dp5306
g62
(dp5307
sg71
g5301
sg64
(lp5308
g57
(g78
g59
NtRp5309
(dp5310
g62
(dp5311
sg71
g5305
sg64
(lp5312
g57
(g58
g59
NtRp5313
(dp5314
g62
(dp5315
g70
I1
ssg71
g5309
sg64
(lp5316
g4888
asbasbasbag57
(g73
g59
NtRp5317
(dp5318
g62
(dp5319
sg71
g5301
sg64
(lp5320
g57
(g78
g59
NtRp5321
(dp5322
g62
(dp5323
sg71
g5317
sg64
(lp5324
g57
(g58
g59
NtRp5325
(dp5326
g62
(dp5327
g70
I1
ssg71
g5321
sg64
(lp5328
I00
asbasbasbag57
(g73
g59
NtRp5329
(dp5330
g62
(dp5331
sg71
g5301
sg64
(lp5332
g57
(g78
g59
NtRp5333
(dp5334
g62
(dp5335
sg71
g5329
sg64
(lp5336
g57
(g58
g59
NtRp5337
(dp5338
g62
(dp5339
g70
I1
ssg71
g5333
sg64
(lp5340
Nasbasbasbag57
(g73
g59
NtRp5341
(dp5342
g62
(dp5343
sg71
g5301
sg64
(lp5344
g57
(g78
g59
NtRp5345
(dp5346
g62
(dp5347
sg71
g5341
sg64
(lp5348
g57
(g58
g59
NtRp5349
(dp5350
g62
(dp5351
g70
I1
ssg71
g5345
sg64
(lp5352
(lp5353
(g4902
I00
g4900
tp5354
a(g4912
I00
g4910
tp5355
a(g4922
I00
g4920
tp5356
aasbasbasbasbasbasbasbag57
(g73
g59
NtRp5357
(dp5358
g62
(dp5359
sg71
g5002
sg64
(lp5360
g57
(g78
g59
NtRp5361
(dp5362
g62
(dp5363
sg71
g5357
sg64
(lp5364
g57
(g58
g59
NtRp5365
(dp5366
g62
(dp5367
g70
I2
ssg71
g5361
sg64
(lp5368
g57
(g66
g59
NtRp5369
(dp5370
g62
(dp5371
g70
I1
ssg71
Nsg64
(lp5372
g57
(g73
g59
NtRp5373
(dp5374
g62
(dp5375
sg71
g5369
sg64
(lp5376
g57
(g78
g59
NtRp5377
(dp5378
g62
(dp5379
sg71
g5373
sg64
(lp5380
g57
(g58
g59
NtRp5381
(dp5382
g62
(dp5383
g70
I1
ssg71
g5377
sg64
(lp5384
g4931
asbasbasbag57
(g73
g59
NtRp5385
(dp5386
g62
(dp5387
sg71
g5369
sg64
(lp5388
g57
(g78
g59
NtRp5389
(dp5390
g62
(dp5391
sg71
g5385
sg64
(lp5392
g57
(g58
g59
NtRp5393
(dp5394
g62
(dp5395
g70
I1
ssg71
g5389
sg64
(lp5396
I00
asbasbasbag57
(g73
g59
NtRp5397
(dp5398
g62
(dp5399
sg71
g5369
sg64
(lp5400
g57
(g78
g59
NtRp5401
(dp5402
g62
(dp5403
sg71
g5397
sg64
(lp5404
g57
(g58
g59
NtRp5405
(dp5406
g62
(dp5407
g70
I1
ssg71
g5401
sg64
(lp5408
Nasbasbasbag57
(g73
g59
NtRp5409
(dp5410
g62
(dp5411
sg71
g5369
sg64
(lp5412
g57
(g78
g59
NtRp5413
(dp5414
g62
(dp5415
sg71
g5409
sg64
(lp5416
g57
(g58
g59
NtRp5417
(dp5418
g62
(dp5419
g70
I1
ssg71
g5413
sg64
(lp5420
(lp5421
(g4945
I00
g4943
tp5422
a(g4954
I00
g4671
tp5423
a(g4963
I00
g4681
tp5424
aasbasbasbasbasbasbasbasbasbasbasbasbasbasbasbasbasbasbasbag57
(g73
g59
NtRp5425
(dp5426
g62
(dp5427
sg71
g3715
sg64
(lp5428
g57
(g78
g59
NtRp5429
(dp5430
g62
(dp5431
g82
g83
ssg71
g5425
sg64
(lp5432
S'meta'
p5433
asbag57
(g78
g59
NtRp5434
(dp5435
g62
(dp5436
g89
g90
ssg71
g5425
sg64
(lp5437
S':'
asbag57
(g78
g59
NtRp5438
(dp5439
g62
(dp5440
sg71
g5425
sg64
(lp5441
g57
(g58
g59
NtRp5442
(dp5443
g62
(dp5444
g70
I5
ssg71
g5438
sg64
(lp5445
g57
(g66
g59
NtRp5446
(dp5447
g62
(dp5448
g70
I4
ssg71
Nsg64
(lp5449
g57
(g73
g59
NtRp5450
(dp5451
g62
(dp5452
sg71
g5446
sg64
(lp5453
g57
(g78
g59
NtRp5454
(dp5455
g62
(dp5456
g82
g83
ssg71
g5450
sg64
(lp5457
S'author'
p5458
asbag57
(g78
g59
NtRp5459
(dp5460
g62
(dp5461
g89
g90
ssg71
g5450
sg64
(lp5462
S':'
asbag57
(g78
g59
NtRp5463
(dp5464
g62
(dp5465
sg71
g5450
sg64
(lp5466
g57
(g58
g59
NtRp5467
(dp5468
g62
(dp5469
g70
I4
ssg71
g5463
sg64
(lp5470
S'Your Name <you@example.com>'
p5471
asbasbasbag57
(g73
g59
NtRp5472
(dp5473
g62
(dp5474
sg71
g5446
sg64
(lp5475
g57
(g78
g59
NtRp5476
(dp5477
g62
(dp5478
g82
g83
ssg71
g5472
sg64
(lp5479
S'description'
p5480
asbag57
(g78
g59
NtRp5481
(dp5482
g62
(dp5483
g89
g90
ssg71
g5472
sg64
(lp5484
S':'
asbag57
(g78
g59
NtRp5485
(dp5486
g62
(dp5487
sg71
g5472
sg64
(lp5488
g57
(g58
g59
NtRp5489
(dp5490
g62
(dp5491
g70
I4
ssg71
g5485
sg64
(lp5492
S'a cool new app'
p5493
asbasbasbag57
(g73
g59
NtRp5494
(dp5495
g62
(dp5496
sg71
g5446
sg64
(lp5497
g57
(g78
g59
NtRp5498
(dp5499
g62
(dp5500
g82
g83
ssg71
g5494
sg64
(lp5501
S'generator'
p5502
asbag57
(g78
g59
NtRp5503
(dp5504
g62
(dp5505
g89
g90
ssg71
g5494
sg64
(lp5506
S':'
asbag57
(g78
g59
NtRp5507
(dp5508
g62
(dp5509
sg71
g5494
sg64
(lp5510
g57
(g58
g59
NtRp5511
(dp5512
g62
(dp5513
g70
I4
ssg71
g5507
sg64
(lp5514
S'Web2py Web Framework'
p5515
asbasbasbag57
(g73
g59
NtRp5516
(dp5517
g62
(dp5518
sg71
g5446
sg64
(lp5519
g57
(g78
g59
NtRp5520
(dp5521
g62
(dp5522
g82
g83
ssg71
g5516
sg64
(lp5523
S'keywords'
p5524
asbag57
(g78
g59
NtRp5525
(dp5526
g62
(dp5527
g89
g90
ssg71
g5516
sg64
(lp5528
S':'
asbag57
(g78
g59
NtRp5529
(dp5530
g62
(dp5531
sg71
g5516
sg64
(lp5532
g57
(g58
g59
NtRp5533
(dp5534
g62
(dp5535
g70
I4
ssg71
g5529
sg64
(lp5536
S'web2py, python, framework'
p5537
asbasbasbasbasbasbasbag57
(g73
g59
NtRp5538
(dp5539
g62
(dp5540
sg71
g3715
sg64
(lp5541
g57
(g78
g59
NtRp5542
(dp5543
g62
(dp5544
g82
g83
ssg71
g5538
sg64
(lp5545
S'models_to_run'
p5546
asbag57
(g78
g59
NtRp5547
(dp5548
g62
(dp5549
g89
g90
ssg71
g5538
sg64
(lp5550
S':'
asbag57
(g78
g59
NtRp5551
(dp5552
g62
(dp5553
sg71
g5538
sg64
(lp5554
g57
(g58
g59
NtRp5555
(dp5556
g62
(dp5557
g70
I5
ssg71
g5551
sg64
(lp5558
g57
(g66
g59
NtRp5559
(dp5560
g62
(dp5561
g70
I4
ssg71
Nsg64
(lp5562
g57
(g73
g59
NtRp5563
(dp5564
g62
(dp5565
sg71
g5559
sg64
(lp5566
g57
(g78
g59
NtRp5567
(dp5568
g62
(dp5569
sg71
g5563
sg64
(lp5570
g57
(g58
g59
NtRp5571
(dp5572
g62
(dp5573
g70
I4
ssg71
g5567
sg64
(lp5574
S'^\\w+\\.py$'
p5575
asbasbasbag57
(g73
g59
NtRp5576
(dp5577
g62
(dp5578
sg71
g5559
sg64
(lp5579
g57
(g78
g59
NtRp5580
(dp5581
g62
(dp5582
sg71
g5576
sg64
(lp5583
g57
(g58
g59
NtRp5584
(dp5585
g62
(dp5586
g70
I4
ssg71
g5580
sg64
(lp5587
S'^default/\\w+\\.py$'
p5588
asbasbasbag57
(g73
g59
NtRp5589
(dp5590
g62
(dp5591
sg71
g5559
sg64
(lp5592
g57
(g78
g59
NtRp5593
(dp5594
g62
(dp5595
sg71
g5589
sg64
(lp5596
g57
(g58
g59
NtRp5597
(dp5598
g62
(dp5599
g70
I4
ssg71
g5593
sg64
(lp5600
S'^default/F2/\\w+\\.py$'
p5601
asbasbasbasbasbasbasbag57
(g73
g59
NtRp5602
(dp5603
g62
(dp5604
sg71
g3715
sg64
(lp5605
g57
(g78
g59
NtRp5606
(dp5607
g62
(dp5608
g82
g83
ssg71
g5602
sg64
(lp5609
S'postprocessing'
p5610
asbag57
(g78
g59
NtRp5611
(dp5612
g62
(dp5613
g89
g90
ssg71
g5602
sg64
(lp5614
S':'
asbag57
(g78
g59
NtRp5615
(dp5616
g62
(dp5617
sg71
g5602
sg64
(lp5618
g57
(g58
g59
NtRp5619
(dp5620
g62
(dp5621
g70
I5
ssg71
g5615
sg64
(lp5622
g57
(g66
g59
NtRp5623
(dp5624
g62
(dp5625
g70
I4
ssg71
Nsg64
(lp5626
sbasbasbasbag57
(g73
g59
NtRp5627
(dp5628
g62
(dp5629
sg71
g3715
sg64
(lp5630
g57
(g78
g59
NtRp5631
(dp5632
g62
(dp5633
g82
g83
ssg71
g5627
sg64
(lp5634
S'session_cookie_expires'
p5635
asbag57
(g78
g59
NtRp5636
(dp5637
g62
(dp5638
g89
g90
ssg71
g5627
sg64
(lp5639
S':'
asbag57
(g78
g59
NtRp5640
(dp5641
g62
(dp5642
sg71
g5627
sg64
(lp5643
g57
(g58
g59
NtRp5644
(dp5645
g62
(dp5646
g70
I5
ssg71
g5640
sg64
(lp5647
S'None'
p5648
asbasbasbag57
(g73
g59
NtRp5649
(dp5650
g62
(dp5651
sg71
g3715
sg64
(lp5652
g57
(g78
g59
NtRp5653
(dp5654
g62
(dp5655
g82
g83
ssg71
g5649
sg64
(lp5656
S'session_data_name'
p5657
asbag57
(g78
g59
NtRp5658
(dp5659
g62
(dp5660
g89
g90
ssg71
g5649
sg64
(lp5661
S':'
asbag57
(g78
g59
NtRp5662
(dp5663
g62
(dp5664
sg71
g5649
sg64
(lp5665
g57
(g58
g59
NtRp5666
(dp5667
g62
(dp5668
g70
I5
ssg71
g5662
sg64
(lp5669
S'session_data_onlineexamination'
p5670
asbasbasbag57
(g73
g59
NtRp5671
(dp5672
g62
(dp5673
sg71
g3715
sg64
(lp5674
g57
(g78
g59
NtRp5675
(dp5676
g62
(dp5677
g82
g83
ssg71
g5671
sg64
(lp5678
S'session_file'
p5679
asbag57
(g78
g59
NtRp5680
(dp5681
g62
(dp5682
g89
g90
ssg71
g5671
sg64
(lp5683
S':'
asbag57
(g78
g59
NtRp5684
(dp5685
g62
(dp5686
sg71
g5671
sg64
(lp5687
g57
(g58
g59
NtRp5688
(dp5689
g62
(dp5690
g70
I5
ssg71
g5684
sg64
(lp5691
S"<open file '/home/saurabh/web2py/applications/OnlineExamination/sessions/127.0.0.1-b87cd992-95f3-4d75-a378-541b7c7540a9', mode 'rb+' at 0x7f55981c2150>"
p5692
asbasbasbag57
(g73
g59
NtRp5693
(dp5694
g62
(dp5695
sg71
g3715
sg64
(lp5696
g57
(g78
g59
NtRp5697
(dp5698
g62
(dp5699
g82
g83
ssg71
g5693
sg64
(lp5700
S'session_filename'
p5701
asbag57
(g78
g59
NtRp5702
(dp5703
g62
(dp5704
g89
g90
ssg71
g5693
sg64
(lp5705
S':'
asbag57
(g78
g59
NtRp5706
(dp5707
g62
(dp5708
sg71
g5693
sg64
(lp5709
g57
(g58
g59
NtRp5710
(dp5711
g62
(dp5712
g70
I5
ssg71
g5706
sg64
(lp5713
S'/home/saurabh/web2py/applications/OnlineExamination/sessions/127.0.0.1-b87cd992-95f3-4d75-a378-541b7c7540a9'
p5714
asbasbasbag57
(g73
g59
NtRp5715
(dp5716
g62
(dp5717
sg71
g3715
sg64
(lp5718
g57
(g78
g59
NtRp5719
(dp5720
g62
(dp5721
g82
g83
ssg71
g5715
sg64
(lp5722
S'session_id'
p5723
asbag57
(g78
g59
NtRp5724
(dp5725
g62
(dp5726
g89
g90
ssg71
g5715
sg64
(lp5727
S':'
asbag57
(g78
g59
NtRp5728
(dp5729
g62
(dp5730
sg71
g5715
sg64
(lp5731
g57
(g58
g59
NtRp5732
(dp5733
g62
(dp5734
g70
I5
ssg71
g5728
sg64
(lp5735
g475
asbasbasbag57
(g73
g59
NtRp5736
(dp5737
g62
(dp5738
sg71
g3715
sg64
(lp5739
g57
(g78
g59
NtRp5740
(dp5741
g62
(dp5742
g82
g83
ssg71
g5736
sg64
(lp5743
S'session_id_name'
p5744
asbag57
(g78
g59
NtRp5745
(dp5746
g62
(dp5747
g89
g90
ssg71
g5736
sg64
(lp5748
S':'
asbag57
(g78
g59
NtRp5749
(dp5750
g62
(dp5751
sg71
g5736
sg64
(lp5752
g57
(g58
g59
NtRp5753
(dp5754
g62
(dp5755
g70
I5
ssg71
g5749
sg64
(lp5756
g3772
asbasbasbag57
(g73
g59
NtRp5757
(dp5758
g62
(dp5759
sg71
g3715
sg64
(lp5760
g57
(g78
g59
NtRp5761
(dp5762
g62
(dp5763
g82
g83
ssg71
g5757
sg64
(lp5764
S'session_locked'
p5765
asbag57
(g78
g59
NtRp5766
(dp5767
g62
(dp5768
g89
g90
ssg71
g5757
sg64
(lp5769
S':'
asbag57
(g78
g59
NtRp5770
(dp5771
g62
(dp5772
sg71
g5757
sg64
(lp5773
g57
(g58
g59
NtRp5774
(dp5775
g62
(dp5776
g70
I5
ssg71
g5770
sg64
(lp5777
g1668
asbasbasbag57
(g73
g59
NtRp5778
(dp5779
g62
(dp5780
sg71
g3715
sg64
(lp5781
g57
(g78
g59
NtRp5782
(dp5783
g62
(dp5784
g82
g83
ssg71
g5778
sg64
(lp5785
S'session_new'
p5786
asbag57
(g78
g59
NtRp5787
(dp5788
g62
(dp5789
g89
g90
ssg71
g5778
sg64
(lp5790
S':'
asbag57
(g78
g59
NtRp5791
(dp5792
g62
(dp5793
sg71
g5778
sg64
(lp5794
g57
(g58
g59
NtRp5795
(dp5796
g62
(dp5797
g70
I5
ssg71
g5791
sg64
(lp5798
g100
asbasbasbag57
(g73
g59
NtRp5799
(dp5800
g62
(dp5801
sg71
g3715
sg64
(lp5802
g57
(g78
g59
NtRp5803
(dp5804
g62
(dp5805
g82
g83
ssg71
g5799
sg64
(lp5806
S'session_storage_type'
p5807
asbag57
(g78
g59
NtRp5808
(dp5809
g62
(dp5810
g89
g90
ssg71
g5799
sg64
(lp5811
S':'
asbag57
(g78
g59
NtRp5812
(dp5813
g62
(dp5814
sg71
g5799
sg64
(lp5815
g57
(g58
g59
NtRp5816
(dp5817
g62
(dp5818
g70
I5
ssg71
g5812
sg64
(lp5819
g3224
asbasbasbag57
(g73
g59
NtRp5820
(dp5821
g62
(dp5822
sg71
g3715
sg64
(lp5823
g57
(g78
g59
NtRp5824
(dp5825
g62
(dp5826
g82
g83
ssg71
g5820
sg64
(lp5827
S'status'
p5828
asbag57
(g78
g59
NtRp5829
(dp5830
g62
(dp5831
g89
g90
ssg71
g5820
sg64
(lp5832
S':'
asbag57
(g78
g59
NtRp5833
(dp5834
g62
(dp5835
sg71
g5820
sg64
(lp5836
g57
(g58
g59
NtRp5837
(dp5838
g62
(dp5839
g70
I5
ssg71
g5833
sg64
(lp5840
S'200'
p5841
asbasbasbag57
(g73
g59
NtRp5842
(dp5843
g62
(dp5844
sg71
g3715
sg64
(lp5845
g57
(g78
g59
NtRp5846
(dp5847
g62
(dp5848
g82
g83
ssg71
g5842
sg64
(lp5849
S'subtitle'
p5850
asbag57
(g78
g59
NtRp5851
(dp5852
g62
(dp5853
g89
g90
ssg71
g5842
sg64
(lp5854
S':'
asbag57
(g78
g59
NtRp5855
(dp5856
g62
(dp5857
sg71
g5842
sg64
(lp5858
g57
(g58
g59
NtRp5859
(dp5860
g62
(dp5861
g70
I5
ssg71
g5855
sg64
(lp5862
g4353
(S's\x13\x00\x00\x00Online Exam Portal!'
tRp5863
asbasbasbag57
(g73
g59
NtRp5864
(dp5865
g62
(dp5866
sg71
g3715
sg64
(lp5867
g57
(g78
g59
NtRp5868
(dp5869
g62
(dp5870
g82
g83
ssg71
g5864
sg64
(lp5871
S'title'
p5872
asbag57
(g78
g59
NtRp5873
(dp5874
g62
(dp5875
g89
g90
ssg71
g5864
sg64
(lp5876
S':'
asbag57
(g78
g59
NtRp5877
(dp5878
g62
(dp5879
sg71
g5864
sg64
(lp5880
g57
(g58
g59
NtRp5881
(dp5882
g62
(dp5883
g70
I5
ssg71
g5877
sg64
(lp5884
S'Onlineexamination'
p5885
asbasbasbag57
(g73
g59
NtRp5886
(dp5887
g62
(dp5888
sg71
g3715
sg64
(lp5889
g57
(g78
g59
NtRp5890
(dp5891
g62
(dp5892
g82
g83
ssg71
g5886
sg64
(lp5893
S'view'
p5894
asbag57
(g78
g59
NtRp5895
(dp5896
g62
(dp5897
g89
g90
ssg71
g5886
sg64
(lp5898
S':'
asbag57
(g78
g59
NtRp5899
(dp5900
g62
(dp5901
sg71
g5886
sg64
(lp5902
g57
(g58
g59
NtRp5903
(dp5904
g62
(dp5905
g70
I5
ssg71
g5899
sg64
(lp5906
S'default/F2.html'
p5907
asbasbasbasbasbsS'locals'
p5908
(dp5909
S'i'
S'1'
sS'self'
p5910
S'<Rows (1)>'
p5911
sssS'traceback'
p5912
S'Traceback (most recent call last):\n  File "/home/saurabh/web2py/gluon/restricted.py", line 212, in restricted\n    exec ccode in environment\n  File "/home/saurabh/web2py/applications/OnlineExamination/views/default/F2.html", line 97, in <module>\n  File "/home/saurabh/web2py/gluon/dal.py", line 9170, in __getitem__\n    row = self.records[i]\nIndexError: list index out of range\n'
p5913
s.