(dp1
S'output'
p2
S"<type 'exceptions.TypeError'> can't compare datetime.time to int"
p3
sS'layer'
p4
S'/home/gaurav/classwork/WEB_PROGRAMMING/web2py/applications/OnlineExamination/controllers/default.py'
p5
sS'code'
p6
S'# -*- coding: utf-8 -*-\n# this file is released under public domain and you can use without limitations\n\n#########################################################################\n## This is a samples controller\n## - index is the default action of any application\n## - user is required for authentication and authorization\n## - download is for downloading files uploaded in the db (does streaming)\n## - call exposes all registered services (none by default)\n#########################################################################\n\n\ndef index():\n    """\n    example action using the internationalization operator T and flash\n    rendered by views/default/index.html or views/generic.html\n\n    if you need a simple wiki simple replace the two lines below with:\n    return auth.wiki()\n    """\n    response.flash = T("Welcome To Online Examination")\n    if(auth.user):\n\t print \'count is updated\'\n\t db(auth.user.email==db.student.email).update(coun=1)\n    return dict(message=T(\'Hello World\'))\n\n@auth.requires_login()\n@auth.requires_membership(\'IIIT_FACULTY_DEPARTMENT\')\ndef teacher_index():\n    if(auth.user):\n\t print \'count is updated 1\'\n\t db(auth.user.email==db.student.email).update(coun=1)\n    return locals()\n\n\n@auth.requires_login()\ndef student_index(): \n    db(auth.user.email==db.student.email).update(coun=1)\n    return locals()\n\n@auth.requires_login()\ndef performance():\n     redirect(URL(\'show_paper\'))\n\ndef user():\n    """\n    exposes:\n    http://..../[app]/default/user/login\n    http://..../[app]/default/user/logout\n    http://..../[app]/default/user/register\n    http://..../[app]/default/user/profile\n    http://..../[app]/default/user/retrieve_password\n    http://..../[app]/default/user/change_password\n    use @auth.requires_login()\n        @auth.requires_membership(\'group name\')\n        @auth.requires_permission(\'read\',\'table name\',record_id)\n\n    to decorate functions that need access control\n    """\n    return dict(form=auth())\n\n\ndef download():\n    """\n    allows downloading of uploaded files\n    http://..../[app]/default/download/[filename]\n    """\n    return response.download(request, db)\n\n\ndef call():\n    """\n    exposes services. for example:\n    http://..../[app]/default/call/jsonrpc\n    decorate with @services.jsonrpc the functions to expose\n    supports xml, json, xmlrpc, jsonrpc, amfrpc, rss, csv\n    """\n    return service()\n\n\n@auth.requires_signature()\ndef data():\n    """\n    http://..../[app]/default/data/tables\n    http://..../[app]/default/data/create/[table]\n    http://..../[app]/default/data/read/[table]/[id]\n    http://..../[app]/default/data/update/[table]/[id]\n    http://..../[app]/default/data/delete/[table]/[id]\n    http://..../[app]/default/data/select/[table]\n    http://..../[app]/default/data/search/[table]\n    but URLs must be signed, i.e. linked with\n      A(\'table\',_href=URL(\'data/tables\',user_signature=True))\n    or with the signed load operator\n      LOAD(\'default\',\'data.load\',args=\'tables\',ajax=True,user_signature=True)\n    """\n    return dict(form=crud())\n\n\n\n\n\n#---------------------------------------------------Project Starts---------------------------------------------------------------#\n\n@auth.requires_login()\ndef student_info():\n     db(auth.user.email==db.student.email).update(coun=1)\n     a=auth.user.email\n     b=auth.user.first_name\n     c=auth.user.last_name\n     response.flash=\'Logged in as \'+b+\' \'+c\n     form=SQLFORM(db.student)\n     form.vars.email=a\n     if (form.accepts(request,session)):\n\t  session.flash="Personal Information Successfully Added"\n          db(auth.user.email==db.student.email).update(coun=1)\n\t  #redirect(\'index\')\n     return dict(form=form)\n\n@auth.requires_login()\n@auth.requires_membership(\'IIIT_FACULTY_DEPARTMENT\')\ndef set_paper():\n     form=SQLFORM(db.questions)\n     form.vars.faculty_id=auth.user.email\n     if form.accepts(request,session):\n\t  response.flash="Question Inserted"\n     return dict(form=form)\n\n\n@auth.requires_login()\ndef exam():\n     import datetime\n     now=datetime.datetime.now()\n     x=datetime.time(now.hour, now.minute, now.second)\n     \n     p={}\n     CHECK_TEACHER=db((auth.user.id==db.auth_membership.user_id)&(db.auth_membership.group_id==17)).select(db.auth_user.ALL)\n     x=db(db.see.id==8).select(db.see.course)\n     x=x[0][\'course\']\n     \n     end_times=db(db.times.course==x).select(db.times.end_time)\n     end_times=end_times[0][\'end_time\']\n     if(x>=end_times):\n\tprint \'gaurav\'\n     \n     k=db(auth.user.email==db.student.email).select(db.student.email)\n     if k:\n\t  t=db((auth.user.email==db.answer.stid) & (x==db.answer.course)).select(db.answer.given)\n\t  print t\n\t  if t:\n\t       if t[0][\'given\']==1:\n\t\t    response.flash=\'You have already given the Examination\'\n\t\t    redirect(\'index\')\n\t  start_time=db(db.times.course==x).select(db.times.start_time)\n          end_time=db(db.times.course==x).select(db.times.end_time)\n          exam_date=db(db.times.course==x).select(db.times.date_of_exam)\n          p=db(auth.user.email==db.student.email).select(db.student.coun)\n\t  print \'p\'\n\t  print p\n          n=p[0][\'coun\']\n\t  print \'it is count\'\n\t  print n\n          que={}\n          que=db((db.questions.course==x)&(db.questions.que_number==n)).select(db.questions.que_number,\n\t       \t\t\t\t            db.questions.question,\n\t\t\t\t\t            db.questions.option_a,\n\t                                            db.questions.option_b,\n\t                                            db.questions.option_c,\n\t                                            db.questions.option_d,\n\t  \t\t\t\t            )\n          if (db((auth.user.id==db.auth_membership.user_id)&(db.auth_membership.group_id==17)).select(db.auth_user.ALL)):\n\t       form=SQLFORM.factory(\n\t\t\t Field(\'ans\',requires=IS_IN_SET([\'A\',\'B\',\'C\',\'D\'],multiple=True),widget=SQLFORM.widgets.checkboxes.widget),\n\t\t\t Field(\'com\',\'text\'))\n\t\t\t      \n\t\t\t \n\t       \n\t  else:\n\t       form=SQLFORM.factory(\n\t\t\t Field(\'ans\',requires=IS_IN_SET([\'A\',\'B\',\'C\',\'D\'],multiple=True),widget=SQLFORM.widgets.checkboxes.widget\n\t\t\t      )\n\t\t\t )\n\t  check=db((auth.user.email==db.answer.stid)&(n==db.answer.que_num)&(db.see.course==db.answer.course)).select(db.answer.ALL)\n\t  if(form.accepts(request,session)):\n\t       response.flash="Answer Submitted"\n\t       if check:\n\t\t    db((auth.user.email==db.answer.stid)&(n==db.answer.que_num)&(x==db.answer.course)).update(op= form.vars.ans,course=x)\n\t       else:\n\t\t    db.answer.insert(que_num=n,stid=auth.user.email,op=form.vars.ans,course=x)\n\t       response.flash=str(form.vars.ans)+"asdasd"\n\t       if CHECK_TEACHER:\n\t\t    if(form.vars.com):\n\t\t\t db.comments.insert(faculty_id=auth.user.email,que=n,course=x,comment_given=form.vars.com)\n\t     \n\t       redirect(\'next\')\n\n     if k:\n\t  if que:\n\t       if CHECK_TEACHER:\n\t\t    com=db((db.comments.que==n)&(db.comments.course==x)).select(db.comments.comment_given)\n\t\t    return dict(que=que,form=form,com=com,start_time=start_time,end_time=end_time,exam_date=exam_date)\n\t       else:\n\t\t    com={}\n\t\t    return dict(que=que,form=form,com=com,start_time=start_time,end_time=end_time,exam_date=exam_date)\n\n\t  else:\n\t       print \'amit has given exam\'\n\t       redirect(URL(\'default\',\'show\'))\n     else:\n\t  redirect(URL(\'default\',\'student_info\'))\n\t  \n\n\n@auth.requires_login()\ndef next():\n     p=db(auth.user.email==db.student.email).select(db.student.coun)\n     x=db(db.see.id==8).select(db.see.course)\n     x=x[0][\'course\']\n     n=p[0][\'coun\']\n     correct=db((db.questions.que_number==n)&(db.questions.course==x)).select(db.questions.ans)\n     given=db((db.answer.stid==auth.user.email)&(db.answer.que_num==n)&(db.answer.course==x)).select(db.answer.op)\n     print given[0][\'op\']\n     if given and given[0][\'op\']!=\'||\':\n\t  print \'aaaaa\'\n\t  if(given!=None and correct[0][\'ans\']==given[0][\'op\']):\n\t       db(db.questions.que_number==n).update(stid=auth.user.email)\n\t       db((db.questions.stid==auth.user.email)&(db.questions.que_number==n)).update(obtained_marks=4)\n\t  elif(correct!=given and given!=None):\n\t       db(db.questions.que_number==n).update(stid=auth.user.email)\n\t       db((db.questions.stid==auth.user.email)&(db.questions.que_number==n)).update(obtained_marks=-1)\n     \n     db(auth.user.email==db.student.email).update(coun=n+1)\n     que=db(db.questions.que_number>0).select(db.questions.que_number)\n     redirect(URL(\'default\',\'exam\'))\n\n\ndef prev():\n     p=db(auth.user.email==db.student.email).select(db.student.coun)\n     n=p[0][\'coun\']\n     if(n-1>0):\n\t  db(auth.user.email==db.student.email).update(coun=n-1)\n     if(n-1>0):\n\t  redirect(URL(\'default\',\'exam\'))\n     else:\n\t  redirect(URL(\'default\',\'exam\'))\ndef courses():\n     return locals()\ndef noq():\n     return locals()\n\ndef list():\n     k=db((db.auth_membership.user_id==db.auth_user.id)&(db.auth_membership.group_id!=17)).select(db.auth_user.first_name,db.auth_user.last_name)\n     return dict(k=k)\n\n\ndef faculty():\n     f=db((db.auth_membership.user_id==db.auth_user.id)&(db.auth_membership.group_id==17)).select(db.auth_user.first_name,db.auth_user.last_name)\n     return dict(f=f)\n\ndef show():\n     x=db(db.see.id==8).select(db.see.course)\n     x=x[0][\'course\']\n     a=auth.user.email\n     k=db((db.questions.stid==a)&(db.questions.course==x)).select(db.questions.obtained_marks)\n     marks=0\n     db((auth.user.email==db.answer.stid)&(x==db.answer.course)).update(given=1)\n     for i in range(len(k)):\n\t  marks=marks+k[i][\'obtained_marks\']\n     db(auth.user.email==db.student.email).update(final_marks=marks)\n     return dict(marks=marks)\n     if (db((auth.user.id==db.auth_membership.user_id)&(db.auth_membership.group_id==17)).select(db.auth_user.ALL)):\n\t  print\'wallah\'\n\ndef give_exam():\n     return locals()\n\ndef which_one():\n     p=request.post_vars[\'id\']\n     db(db.see.id==8).update(course=p)\n     redirect(URL(\'exam\'))\n\n@auth.requires_login()\ndef show_paper():\n     if (db((auth.user.id==db.auth_membership.user_id)&(db.auth_membership.group_id==17)).select(db.auth_user.ALL)):\n\t  query=db.questions.faculty_id==auth.user.email\n\t  grid=SQLFORM.grid(query)\n\t  return locals()\n     else:\n\t  redirect(URL(\'F1\'))\n\t  return locals()\n\n\n@auth.requires_login()\ndef F1():\n     return locals()\n\n\n@auth.requires_login()\ndef F2():\n     x=request.post_vars[\'id\']\n     t=db((auth.user.email==db.answer.stid) & (x==db.answer.course)).select(db.answer.given)\n     if t:\n\t  ans=db((auth.user.email==db.answer.stid) & (db.answer.course==x)).select(db.answer.que_num,db.answer.op)\n\t  ques=db(x==db.questions.course).select(db.questions.ALL)\n\t  return dict(ans=ans,ques=ques)\n     else:\n\t  session.flash="You have not given exam of this course"\n\t  redirect(URL(\'student_index\'))\n     return locals()\n\n\n@auth.requires_login()\n@auth.requires_membership(\'IIIT_FACULTY_DEPARTMENT\')\ndef set_time():\n     form=SQLFORM(db.times)\n     if (form.accepts(request,session)):\n\t  response.flash="Time Setted"\n     return dict(form=form)\n\nresponse._vars=response._caller(exam)\n'
p7
sS'snapshot'
p8
(dp9
S'exception'
p10
(dp11
S'__hash__'
p12
S"<method-wrapper '__hash__' of exceptions.TypeError object>"
p13
sS'__setattr__'
p14
S"<method-wrapper '__setattr__' of exceptions.TypeError object>"
p15
sS'__reduce_ex__'
p16
S'<built-in method __reduce_ex__ of exceptions.TypeError object>'
p17
sS'__getslice__'
p18
S"<method-wrapper '__getslice__' of exceptions.TypeError object>"
p19
sS'__getitem__'
p20
S"<method-wrapper '__getitem__' of exceptions.TypeError object>"
p21
sS'__setstate__'
p22
S'<built-in method __setstate__ of exceptions.TypeError object>'
p23
sS'__reduce__'
p24
S'<built-in method __reduce__ of exceptions.TypeError object>'
p25
sS'__str__'
p26
S"<method-wrapper '__str__' of exceptions.TypeError object>"
p27
sS'__format__'
p28
S'<built-in method __format__ of exceptions.TypeError object>'
p29
sS'__getattribute__'
p30
S"<method-wrapper '__getattribute__' of exceptions.TypeError object>"
p31
sS'__class__'
p32
S"<type 'exceptions.TypeError'>"
p33
sS'__unicode__'
p34
S'<built-in method __unicode__ of exceptions.TypeError object>'
p35
sS'__delattr__'
p36
S"<method-wrapper '__delattr__' of exceptions.TypeError object>"
p37
sS'__subclasshook__'
p38
S'<built-in method __subclasshook__ of type object>'
p39
sS'__repr__'
p40
S"<method-wrapper '__repr__' of exceptions.TypeError object>"
p41
sS'args'
p42
S'("can\'t compare datetime.time to int",)'
p43
sS'__dict__'
p44
S'{}'
p45
sS'__sizeof__'
p46
S'<built-in method __sizeof__ of exceptions.TypeError object>'
p47
sS'__doc__'
p48
S"'Inappropriate argument type.'"
p49
sS'__init__'
p50
S"<method-wrapper '__init__' of exceptions.TypeError object>"
p51
sS'__new__'
p52
S'<built-in method __new__ of type object>'
p53
ssS'evalue'
p54
S"can't compare datetime.time to int"
p55
sS'request'
p56
ccopy_reg
_reconstructor
p57
(cgluon.html
BEAUTIFY
p58
c__builtin__
object
p59
NtRp60
(dp61
S'attributes'
p62
(dp63
sS'components'
p64
(lp65
g57
(cgluon.html
TABLE
p66
g59
NtRp67
(dp68
g62
(dp69
S'level'
p70
I5
ssS'parent'
p71
Nsg64
(lp72
g57
(cgluon.html
TR
p73
g59
NtRp74
(dp75
g62
(dp76
sg71
g67
sg64
(lp77
g57
(cgluon.html
TD
p78
g59
NtRp79
(dp80
g62
(dp81
S'_style'
p82
S'font-weight:bold;vertical-align:top'
p83
ssg71
g74
sg64
(lp84
S'ajax'
p85
asbag57
(g78
g59
NtRp86
(dp87
g62
(dp88
S'_valign'
p89
S'top'
p90
ssg71
g74
sg64
(lp91
S':'
asbag57
(g78
g59
NtRp92
(dp93
g62
(dp94
sg71
g74
sg64
(lp95
g57
(g58
g59
NtRp96
(dp97
g62
(dp98
g70
I5
ssg71
g92
sg64
(lp99
S'False'
p100
asbasbasbag57
(g73
g59
NtRp101
(dp102
g62
(dp103
sg71
g67
sg64
(lp104
g57
(g78
g59
NtRp105
(dp106
g62
(dp107
g82
g83
ssg71
g101
sg64
(lp108
S'application'
p109
asbag57
(g78
g59
NtRp110
(dp111
g62
(dp112
g89
g90
ssg71
g101
sg64
(lp113
S':'
asbag57
(g78
g59
NtRp114
(dp115
g62
(dp116
sg71
g101
sg64
(lp117
g57
(g58
g59
NtRp118
(dp119
g62
(dp120
g70
I5
ssg71
g114
sg64
(lp121
S'OnlineExamination'
p122
asbasbasbag57
(g73
g59
NtRp123
(dp124
g62
(dp125
sg71
g67
sg64
(lp126
g57
(g78
g59
NtRp127
(dp128
g62
(dp129
g82
g83
ssg71
g123
sg64
(lp130
g42
asbag57
(g78
g59
NtRp131
(dp132
g62
(dp133
g89
g90
ssg71
g123
sg64
(lp134
S':'
asbag57
(g78
g59
NtRp135
(dp136
g62
(dp137
sg71
g123
sg64
(lp138
g57
(g58
g59
NtRp139
(dp140
g62
(dp141
g70
I5
ssg71
g135
sg64
(lp142
g57
(g66
g59
NtRp143
(dp144
g62
(dp145
g70
I4
ssg71
Nsg64
(lp146
sbasbasbasbag57
(g73
g59
NtRp147
(dp148
g62
(dp149
sg71
g67
sg64
(lp150
g57
(g78
g59
NtRp151
(dp152
g62
(dp153
g82
g83
ssg71
g147
sg64
(lp154
S'body'
p155
asbag57
(g78
g59
NtRp156
(dp157
g62
(dp158
g89
g90
ssg71
g147
sg64
(lp159
S':'
asbag57
(g78
g59
NtRp160
(dp161
g62
(dp162
sg71
g147
sg64
(lp163
g57
(g58
g59
NtRp164
(dp165
g62
(dp166
g70
I5
ssg71
g160
sg64
(lp167
S'<cStringIO.StringO object at 0xadc53ce0>'
p168
asbasbasbag57
(g73
g59
NtRp169
(dp170
g62
(dp171
sg71
g67
sg64
(lp172
g57
(g78
g59
NtRp173
(dp174
g62
(dp175
g82
g83
ssg71
g169
sg64
(lp176
S'cid'
p177
asbag57
(g78
g59
NtRp178
(dp179
g62
(dp180
g89
g90
ssg71
g169
sg64
(lp181
S':'
asbag57
(g78
g59
NtRp182
(dp183
g62
(dp184
sg71
g169
sg64
(lp185
g57
(g58
g59
NtRp186
(dp187
g62
(dp188
g70
I5
ssg71
g182
sg64
(lp189
S'None'
p190
asbasbasbag57
(g73
g59
NtRp191
(dp192
g62
(dp193
sg71
g67
sg64
(lp194
g57
(g78
g59
NtRp195
(dp196
g62
(dp197
g82
g83
ssg71
g191
sg64
(lp198
S'client'
p199
asbag57
(g78
g59
NtRp200
(dp201
g62
(dp202
g89
g90
ssg71
g191
sg64
(lp203
S':'
asbag57
(g78
g59
NtRp204
(dp205
g62
(dp206
sg71
g191
sg64
(lp207
g57
(g58
g59
NtRp208
(dp209
g62
(dp210
g70
I5
ssg71
g204
sg64
(lp211
S'127.0.0.1'
p212
asbasbasbag57
(g73
g59
NtRp213
(dp214
g62
(dp215
sg71
g67
sg64
(lp216
g57
(g78
g59
NtRp217
(dp218
g62
(dp219
g82
g83
ssg71
g213
sg64
(lp220
S'controller'
p221
asbag57
(g78
g59
NtRp222
(dp223
g62
(dp224
g89
g90
ssg71
g213
sg64
(lp225
S':'
asbag57
(g78
g59
NtRp226
(dp227
g62
(dp228
sg71
g213
sg64
(lp229
g57
(g58
g59
NtRp230
(dp231
g62
(dp232
g70
I5
ssg71
g226
sg64
(lp233
S'default'
p234
asbasbasbag57
(g73
g59
NtRp235
(dp236
g62
(dp237
sg71
g67
sg64
(lp238
g57
(g78
g59
NtRp239
(dp240
g62
(dp241
g82
g83
ssg71
g235
sg64
(lp242
S'cookies'
p243
asbag57
(g78
g59
NtRp244
(dp245
g62
(dp246
g89
g90
ssg71
g235
sg64
(lp247
S':'
asbag57
(g78
g59
NtRp248
(dp249
g62
(dp250
sg71
g235
sg64
(lp251
g57
(g58
g59
NtRp252
(dp253
g62
(dp254
g70
I5
ssg71
g248
sg64
(lp255
g57
(g66
g59
NtRp256
(dp257
g62
(dp258
g70
I4
ssg71
Nsg64
(lp259
g57
(g73
g59
NtRp260
(dp261
g62
(dp262
sg71
g256
sg64
(lp263
g57
(g78
g59
NtRp264
(dp265
g62
(dp266
g82
g83
ssg71
g260
sg64
(lp267
S'session_id_admin'
p268
asbag57
(g78
g59
NtRp269
(dp270
g62
(dp271
g89
g90
ssg71
g260
sg64
(lp272
S':'
asbag57
(g78
g59
NtRp273
(dp274
g62
(dp275
sg71
g260
sg64
(lp276
g57
(g58
g59
NtRp277
(dp278
g62
(dp279
g70
I4
ssg71
g273
sg64
(lp280
S'127.0.0.1-b90b89cf-3183-446b-a00b-faa54ea32acb'
p281
ag57
(g66
g59
NtRp282
(dp283
g62
(dp284
g70
I3
ssg71
Nsg64
(lp285
g57
(g73
g59
NtRp286
(dp287
g62
(dp288
sg71
g282
sg64
(lp289
g57
(g78
g59
NtRp290
(dp291
g62
(dp292
g82
g83
ssg71
g286
sg64
(lp293
S'comment'
p294
asbag57
(g78
g59
NtRp295
(dp296
g62
(dp297
g89
g90
ssg71
g286
sg64
(lp298
S':'
asbag57
(g78
g59
NtRp299
(dp300
g62
(dp301
sg71
g286
sg64
(lp302
g57
(g58
g59
NtRp303
(dp304
g62
(dp305
g70
I3
ssg71
g299
sg64
(lp306
S''
asbasbasbag57
(g73
g59
NtRp307
(dp308
g62
(dp309
sg71
g282
sg64
(lp310
g57
(g78
g59
NtRp311
(dp312
g62
(dp313
g82
g83
ssg71
g307
sg64
(lp314
S'domain'
p315
asbag57
(g78
g59
NtRp316
(dp317
g62
(dp318
g89
g90
ssg71
g307
sg64
(lp319
S':'
asbag57
(g78
g59
NtRp320
(dp321
g62
(dp322
sg71
g307
sg64
(lp323
g57
(g58
g59
NtRp324
(dp325
g62
(dp326
g70
I3
ssg71
g320
sg64
(lp327
S''
asbasbasbag57
(g73
g59
NtRp328
(dp329
g62
(dp330
sg71
g282
sg64
(lp331
g57
(g78
g59
NtRp332
(dp333
g62
(dp334
g82
g83
ssg71
g328
sg64
(lp335
S'expires'
p336
asbag57
(g78
g59
NtRp337
(dp338
g62
(dp339
g89
g90
ssg71
g328
sg64
(lp340
S':'
asbag57
(g78
g59
NtRp341
(dp342
g62
(dp343
sg71
g328
sg64
(lp344
g57
(g58
g59
NtRp345
(dp346
g62
(dp347
g70
I3
ssg71
g341
sg64
(lp348
S''
asbasbasbag57
(g73
g59
NtRp349
(dp350
g62
(dp351
sg71
g282
sg64
(lp352
g57
(g78
g59
NtRp353
(dp354
g62
(dp355
g82
g83
ssg71
g349
sg64
(lp356
S'httponly'
p357
asbag57
(g78
g59
NtRp358
(dp359
g62
(dp360
g89
g90
ssg71
g349
sg64
(lp361
S':'
asbag57
(g78
g59
NtRp362
(dp363
g62
(dp364
sg71
g349
sg64
(lp365
g57
(g58
g59
NtRp366
(dp367
g62
(dp368
g70
I3
ssg71
g362
sg64
(lp369
S''
asbasbasbag57
(g73
g59
NtRp370
(dp371
g62
(dp372
sg71
g282
sg64
(lp373
g57
(g78
g59
NtRp374
(dp375
g62
(dp376
g82
g83
ssg71
g370
sg64
(lp377
S'max-age'
p378
asbag57
(g78
g59
NtRp379
(dp380
g62
(dp381
g89
g90
ssg71
g370
sg64
(lp382
S':'
asbag57
(g78
g59
NtRp383
(dp384
g62
(dp385
sg71
g370
sg64
(lp386
g57
(g58
g59
NtRp387
(dp388
g62
(dp389
g70
I3
ssg71
g383
sg64
(lp390
S''
asbasbasbag57
(g73
g59
NtRp391
(dp392
g62
(dp393
sg71
g282
sg64
(lp394
g57
(g78
g59
NtRp395
(dp396
g62
(dp397
g82
g83
ssg71
g391
sg64
(lp398
S'path'
p399
asbag57
(g78
g59
NtRp400
(dp401
g62
(dp402
g89
g90
ssg71
g391
sg64
(lp403
S':'
asbag57
(g78
g59
NtRp404
(dp405
g62
(dp406
sg71
g391
sg64
(lp407
g57
(g58
g59
NtRp408
(dp409
g62
(dp410
g70
I3
ssg71
g404
sg64
(lp411
S''
asbasbasbag57
(g73
g59
NtRp412
(dp413
g62
(dp414
sg71
g282
sg64
(lp415
g57
(g78
g59
NtRp416
(dp417
g62
(dp418
g82
g83
ssg71
g412
sg64
(lp419
S'secure'
p420
asbag57
(g78
g59
NtRp421
(dp422
g62
(dp423
g89
g90
ssg71
g412
sg64
(lp424
S':'
asbag57
(g78
g59
NtRp425
(dp426
g62
(dp427
sg71
g412
sg64
(lp428
g57
(g58
g59
NtRp429
(dp430
g62
(dp431
g70
I3
ssg71
g425
sg64
(lp432
S''
asbasbasbag57
(g73
g59
NtRp433
(dp434
g62
(dp435
sg71
g282
sg64
(lp436
g57
(g78
g59
NtRp437
(dp438
g62
(dp439
g82
g83
ssg71
g433
sg64
(lp440
S'version'
p441
asbag57
(g78
g59
NtRp442
(dp443
g62
(dp444
g89
g90
ssg71
g433
sg64
(lp445
S':'
asbag57
(g78
g59
NtRp446
(dp447
g62
(dp448
sg71
g433
sg64
(lp449
g57
(g58
g59
NtRp450
(dp451
g62
(dp452
g70
I3
ssg71
g446
sg64
(lp453
S''
asbasbasbasbasbasbasbag57
(g73
g59
NtRp454
(dp455
g62
(dp456
sg71
g256
sg64
(lp457
g57
(g78
g59
NtRp458
(dp459
g62
(dp460
g82
g83
ssg71
g454
sg64
(lp461
S'session_id_onlineexamination'
p462
asbag57
(g78
g59
NtRp463
(dp464
g62
(dp465
g89
g90
ssg71
g454
sg64
(lp466
S':'
asbag57
(g78
g59
NtRp467
(dp468
g62
(dp469
sg71
g454
sg64
(lp470
g57
(g58
g59
NtRp471
(dp472
g62
(dp473
g70
I4
ssg71
g467
sg64
(lp474
S'127.0.0.1-c946dbc5-3ee7-4ce1-86c5-f16bb3a3c13c'
p475
ag57
(g66
g59
NtRp476
(dp477
g62
(dp478
g70
I3
ssg71
Nsg64
(lp479
g57
(g73
g59
NtRp480
(dp481
g62
(dp482
sg71
g476
sg64
(lp483
g57
(g78
g59
NtRp484
(dp485
g62
(dp486
g82
g83
ssg71
g480
sg64
(lp487
g294
asbag57
(g78
g59
NtRp488
(dp489
g62
(dp490
g89
g90
ssg71
g480
sg64
(lp491
S':'
asbag57
(g78
g59
NtRp492
(dp493
g62
(dp494
sg71
g480
sg64
(lp495
g57
(g58
g59
NtRp496
(dp497
g62
(dp498
g70
I3
ssg71
g492
sg64
(lp499
S''
asbasbasbag57
(g73
g59
NtRp500
(dp501
g62
(dp502
sg71
g476
sg64
(lp503
g57
(g78
g59
NtRp504
(dp505
g62
(dp506
g82
g83
ssg71
g500
sg64
(lp507
g315
asbag57
(g78
g59
NtRp508
(dp509
g62
(dp510
g89
g90
ssg71
g500
sg64
(lp511
S':'
asbag57
(g78
g59
NtRp512
(dp513
g62
(dp514
sg71
g500
sg64
(lp515
g57
(g58
g59
NtRp516
(dp517
g62
(dp518
g70
I3
ssg71
g512
sg64
(lp519
S''
asbasbasbag57
(g73
g59
NtRp520
(dp521
g62
(dp522
sg71
g476
sg64
(lp523
g57
(g78
g59
NtRp524
(dp525
g62
(dp526
g82
g83
ssg71
g520
sg64
(lp527
g336
asbag57
(g78
g59
NtRp528
(dp529
g62
(dp530
g89
g90
ssg71
g520
sg64
(lp531
S':'
asbag57
(g78
g59
NtRp532
(dp533
g62
(dp534
sg71
g520
sg64
(lp535
g57
(g58
g59
NtRp536
(dp537
g62
(dp538
g70
I3
ssg71
g532
sg64
(lp539
S''
asbasbasbag57
(g73
g59
NtRp540
(dp541
g62
(dp542
sg71
g476
sg64
(lp543
g57
(g78
g59
NtRp544
(dp545
g62
(dp546
g82
g83
ssg71
g540
sg64
(lp547
g357
asbag57
(g78
g59
NtRp548
(dp549
g62
(dp550
g89
g90
ssg71
g540
sg64
(lp551
S':'
asbag57
(g78
g59
NtRp552
(dp553
g62
(dp554
sg71
g540
sg64
(lp555
g57
(g58
g59
NtRp556
(dp557
g62
(dp558
g70
I3
ssg71
g552
sg64
(lp559
S''
asbasbasbag57
(g73
g59
NtRp560
(dp561
g62
(dp562
sg71
g476
sg64
(lp563
g57
(g78
g59
NtRp564
(dp565
g62
(dp566
g82
g83
ssg71
g560
sg64
(lp567
g378
asbag57
(g78
g59
NtRp568
(dp569
g62
(dp570
g89
g90
ssg71
g560
sg64
(lp571
S':'
asbag57
(g78
g59
NtRp572
(dp573
g62
(dp574
sg71
g560
sg64
(lp575
g57
(g58
g59
NtRp576
(dp577
g62
(dp578
g70
I3
ssg71
g572
sg64
(lp579
S''
asbasbasbag57
(g73
g59
NtRp580
(dp581
g62
(dp582
sg71
g476
sg64
(lp583
g57
(g78
g59
NtRp584
(dp585
g62
(dp586
g82
g83
ssg71
g580
sg64
(lp587
g399
asbag57
(g78
g59
NtRp588
(dp589
g62
(dp590
g89
g90
ssg71
g580
sg64
(lp591
S':'
asbag57
(g78
g59
NtRp592
(dp593
g62
(dp594
sg71
g580
sg64
(lp595
g57
(g58
g59
NtRp596
(dp597
g62
(dp598
g70
I3
ssg71
g592
sg64
(lp599
S''
asbasbasbag57
(g73
g59
NtRp600
(dp601
g62
(dp602
sg71
g476
sg64
(lp603
g57
(g78
g59
NtRp604
(dp605
g62
(dp606
g82
g83
ssg71
g600
sg64
(lp607
g420
asbag57
(g78
g59
NtRp608
(dp609
g62
(dp610
g89
g90
ssg71
g600
sg64
(lp611
S':'
asbag57
(g78
g59
NtRp612
(dp613
g62
(dp614
sg71
g600
sg64
(lp615
g57
(g58
g59
NtRp616
(dp617
g62
(dp618
g70
I3
ssg71
g612
sg64
(lp619
S''
asbasbasbag57
(g73
g59
NtRp620
(dp621
g62
(dp622
sg71
g476
sg64
(lp623
g57
(g78
g59
NtRp624
(dp625
g62
(dp626
g82
g83
ssg71
g620
sg64
(lp627
g441
asbag57
(g78
g59
NtRp628
(dp629
g62
(dp630
g89
g90
ssg71
g620
sg64
(lp631
S':'
asbag57
(g78
g59
NtRp632
(dp633
g62
(dp634
sg71
g620
sg64
(lp635
g57
(g58
g59
NtRp636
(dp637
g62
(dp638
g70
I3
ssg71
g632
sg64
(lp639
S''
asbasbasbasbasbasbasbag57
(g73
g59
NtRp640
(dp641
g62
(dp642
sg71
g256
sg64
(lp643
g57
(g78
g59
NtRp644
(dp645
g62
(dp646
g82
g83
ssg71
g640
sg64
(lp647
S'session_id_welcome'
p648
asbag57
(g78
g59
NtRp649
(dp650
g62
(dp651
g89
g90
ssg71
g640
sg64
(lp652
S':'
asbag57
(g78
g59
NtRp653
(dp654
g62
(dp655
sg71
g640
sg64
(lp656
g57
(g58
g59
NtRp657
(dp658
g62
(dp659
g70
I4
ssg71
g653
sg64
(lp660
S'127.0.0.1-60af83f5-082a-48eb-ae91-6ebdb2dfc268'
p661
ag57
(g66
g59
NtRp662
(dp663
g62
(dp664
g70
I3
ssg71
Nsg64
(lp665
g57
(g73
g59
NtRp666
(dp667
g62
(dp668
sg71
g662
sg64
(lp669
g57
(g78
g59
NtRp670
(dp671
g62
(dp672
g82
g83
ssg71
g666
sg64
(lp673
g294
asbag57
(g78
g59
NtRp674
(dp675
g62
(dp676
g89
g90
ssg71
g666
sg64
(lp677
S':'
asbag57
(g78
g59
NtRp678
(dp679
g62
(dp680
sg71
g666
sg64
(lp681
g57
(g58
g59
NtRp682
(dp683
g62
(dp684
g70
I3
ssg71
g678
sg64
(lp685
S''
asbasbasbag57
(g73
g59
NtRp686
(dp687
g62
(dp688
sg71
g662
sg64
(lp689
g57
(g78
g59
NtRp690
(dp691
g62
(dp692
g82
g83
ssg71
g686
sg64
(lp693
g315
asbag57
(g78
g59
NtRp694
(dp695
g62
(dp696
g89
g90
ssg71
g686
sg64
(lp697
S':'
asbag57
(g78
g59
NtRp698
(dp699
g62
(dp700
sg71
g686
sg64
(lp701
g57
(g58
g59
NtRp702
(dp703
g62
(dp704
g70
I3
ssg71
g698
sg64
(lp705
S''
asbasbasbag57
(g73
g59
NtRp706
(dp707
g62
(dp708
sg71
g662
sg64
(lp709
g57
(g78
g59
NtRp710
(dp711
g62
(dp712
g82
g83
ssg71
g706
sg64
(lp713
g336
asbag57
(g78
g59
NtRp714
(dp715
g62
(dp716
g89
g90
ssg71
g706
sg64
(lp717
S':'
asbag57
(g78
g59
NtRp718
(dp719
g62
(dp720
sg71
g706
sg64
(lp721
g57
(g58
g59
NtRp722
(dp723
g62
(dp724
g70
I3
ssg71
g718
sg64
(lp725
S''
asbasbasbag57
(g73
g59
NtRp726
(dp727
g62
(dp728
sg71
g662
sg64
(lp729
g57
(g78
g59
NtRp730
(dp731
g62
(dp732
g82
g83
ssg71
g726
sg64
(lp733
g357
asbag57
(g78
g59
NtRp734
(dp735
g62
(dp736
g89
g90
ssg71
g726
sg64
(lp737
S':'
asbag57
(g78
g59
NtRp738
(dp739
g62
(dp740
sg71
g726
sg64
(lp741
g57
(g58
g59
NtRp742
(dp743
g62
(dp744
g70
I3
ssg71
g738
sg64
(lp745
S''
asbasbasbag57
(g73
g59
NtRp746
(dp747
g62
(dp748
sg71
g662
sg64
(lp749
g57
(g78
g59
NtRp750
(dp751
g62
(dp752
g82
g83
ssg71
g746
sg64
(lp753
g378
asbag57
(g78
g59
NtRp754
(dp755
g62
(dp756
g89
g90
ssg71
g746
sg64
(lp757
S':'
asbag57
(g78
g59
NtRp758
(dp759
g62
(dp760
sg71
g746
sg64
(lp761
g57
(g58
g59
NtRp762
(dp763
g62
(dp764
g70
I3
ssg71
g758
sg64
(lp765
S''
asbasbasbag57
(g73
g59
NtRp766
(dp767
g62
(dp768
sg71
g662
sg64
(lp769
g57
(g78
g59
NtRp770
(dp771
g62
(dp772
g82
g83
ssg71
g766
sg64
(lp773
g399
asbag57
(g78
g59
NtRp774
(dp775
g62
(dp776
g89
g90
ssg71
g766
sg64
(lp777
S':'
asbag57
(g78
g59
NtRp778
(dp779
g62
(dp780
sg71
g766
sg64
(lp781
g57
(g58
g59
NtRp782
(dp783
g62
(dp784
g70
I3
ssg71
g778
sg64
(lp785
S''
asbasbasbag57
(g73
g59
NtRp786
(dp787
g62
(dp788
sg71
g662
sg64
(lp789
g57
(g78
g59
NtRp790
(dp791
g62
(dp792
g82
g83
ssg71
g786
sg64
(lp793
g420
asbag57
(g78
g59
NtRp794
(dp795
g62
(dp796
g89
g90
ssg71
g786
sg64
(lp797
S':'
asbag57
(g78
g59
NtRp798
(dp799
g62
(dp800
sg71
g786
sg64
(lp801
g57
(g58
g59
NtRp802
(dp803
g62
(dp804
g70
I3
ssg71
g798
sg64
(lp805
S''
asbasbasbag57
(g73
g59
NtRp806
(dp807
g62
(dp808
sg71
g662
sg64
(lp809
g57
(g78
g59
NtRp810
(dp811
g62
(dp812
g82
g83
ssg71
g806
sg64
(lp813
g441
asbag57
(g78
g59
NtRp814
(dp815
g62
(dp816
g89
g90
ssg71
g806
sg64
(lp817
S':'
asbag57
(g78
g59
NtRp818
(dp819
g62
(dp820
sg71
g806
sg64
(lp821
g57
(g58
g59
NtRp822
(dp823
g62
(dp824
g70
I3
ssg71
g818
sg64
(lp825
S''
asbasbasbasbasbasbasbasbasbasbasbag57
(g73
g59
NtRp826
(dp827
g62
(dp828
sg71
g67
sg64
(lp829
g57
(g78
g59
NtRp830
(dp831
g62
(dp832
g82
g83
ssg71
g826
sg64
(lp833
S'env'
p834
asbag57
(g78
g59
NtRp835
(dp836
g62
(dp837
g89
g90
ssg71
g826
sg64
(lp838
S':'
asbag57
(g78
g59
NtRp839
(dp840
g62
(dp841
sg71
g826
sg64
(lp842
g57
(g58
g59
NtRp843
(dp844
g62
(dp845
g70
I5
ssg71
g839
sg64
(lp846
g57
(g66
g59
NtRp847
(dp848
g62
(dp849
g70
I4
ssg71
Nsg64
(lp850
g57
(g73
g59
NtRp851
(dp852
g62
(dp853
sg71
g847
sg64
(lp854
g57
(g78
g59
NtRp855
(dp856
g62
(dp857
g82
g83
ssg71
g851
sg64
(lp858
S'app_folders'
p859
asbag57
(g78
g59
NtRp860
(dp861
g62
(dp862
g89
g90
ssg71
g851
sg64
(lp863
S':'
asbag57
(g78
g59
NtRp864
(dp865
g62
(dp866
sg71
g851
sg64
(lp867
g57
(g58
g59
NtRp868
(dp869
g62
(dp870
g70
I4
ssg71
g864
sg64
(lp871
S"set(['/home/gaurav/classwork/WEB_PROGRAMMING/web2py/applications/OnlineExamination/', '/home/gaurav/classwork/WEB_PROGRAMMING/web2py/applications/admin/', '/home/gaurav/classwork/WEB_PROGRAMMING/web2py/applications/welcome/'])"
p872
asbasbasbag57
(g73
g59
NtRp873
(dp874
g62
(dp875
sg71
g847
sg64
(lp876
g57
(g78
g59
NtRp877
(dp878
g62
(dp879
g82
g83
ssg71
g873
sg64
(lp880
S'applications_parent'
p881
asbag57
(g78
g59
NtRp882
(dp883
g62
(dp884
g89
g90
ssg71
g873
sg64
(lp885
S':'
asbag57
(g78
g59
NtRp886
(dp887
g62
(dp888
sg71
g873
sg64
(lp889
g57
(g58
g59
NtRp890
(dp891
g62
(dp892
g70
I4
ssg71
g886
sg64
(lp893
S'/home/gaurav/classwork/WEB_PROGRAMMING/web2py'
p894
asbasbasbag57
(g73
g59
NtRp895
(dp896
g62
(dp897
sg71
g847
sg64
(lp898
g57
(g78
g59
NtRp899
(dp900
g62
(dp901
g82
g83
ssg71
g895
sg64
(lp902
S'cmd_args'
p903
asbag57
(g78
g59
NtRp904
(dp905
g62
(dp906
g89
g90
ssg71
g895
sg64
(lp907
S':'
asbag57
(g78
g59
NtRp908
(dp909
g62
(dp910
sg71
g895
sg64
(lp911
g57
(g58
g59
NtRp912
(dp913
g62
(dp914
g70
I4
ssg71
g908
sg64
(lp915
g57
(g66
g59
NtRp916
(dp917
g62
(dp918
g70
I3
ssg71
Nsg64
(lp919
sbasbasbasbag57
(g73
g59
NtRp920
(dp921
g62
(dp922
sg71
g847
sg64
(lp923
g57
(g78
g59
NtRp924
(dp925
g62
(dp926
g82
g83
ssg71
g920
sg64
(lp927
S'cmd_options'
p928
asbag57
(g78
g59
NtRp929
(dp930
g62
(dp931
g89
g90
ssg71
g920
sg64
(lp932
S':'
asbag57
(g78
g59
NtRp933
(dp934
g62
(dp935
sg71
g920
sg64
(lp936
g57
(g58
g59
NtRp937
(dp938
g62
(dp939
g70
I4
ssg71
g933
sg64
(lp940
S"<Values at 0x9faf6ac: {'verbose': False, 'ip': '127.0.0.1', 'with_scheduler': False, 'ips': [], 'shutdown_timeout': 5, 'taskbar': False, 'port': 8000, 'maxthreads': None, 'softcron': False, 'server_name': 'gaurav-Compaq-Presario-C700-Notebook-PC', 'bpython': False, 'nogui': False, 'pid_filename': 'httpserver.pid', 'extcron': False, 'runcron': False, 'run_system_tests': False, 'test': None, 'folder': '/home/gaurav/classwork/WEB_PROGRAMMING/web2py', 'config': '', 'import_models': False, 'winservice': '', 'shell': None, 'run': '', 'log_filename': 'httpserver.log', 'debuglevel': 30, 'args': [''], 'socket_timeout': 5, 'ssl_ca_certificate': None, 'scheduler': None, 'profiler_filename': None, 'ssl_private_key': '', 'scheduler_groups': None, 'password': '<ask>', 'request_queue_size': 5, 'ssl_certificate': '', 'cronjob': False, 'numthreads': None, 'quiet': False, 'interfaces': None, 'minthreads': None, 'timeout': 10, 'plain': False, 'nobanner': False}>"
p941
asbasbasbag57
(g73
g59
NtRp942
(dp943
g62
(dp944
sg71
g847
sg64
(lp945
g57
(g78
g59
NtRp946
(dp947
g62
(dp948
g82
g83
ssg71
g942
sg64
(lp949
S'db_sessions'
p950
asbag57
(g78
g59
NtRp951
(dp952
g62
(dp953
g89
g90
ssg71
g942
sg64
(lp954
S':'
asbag57
(g78
g59
NtRp955
(dp956
g62
(dp957
sg71
g942
sg64
(lp958
g57
(g58
g59
NtRp959
(dp960
g62
(dp961
g70
I4
ssg71
g955
sg64
(lp962
S'set([])'
p963
asbasbasbag57
(g73
g59
NtRp964
(dp965
g62
(dp966
sg71
g847
sg64
(lp967
g57
(g78
g59
NtRp968
(dp969
g62
(dp970
g82
g83
ssg71
g964
sg64
(lp971
S'debugging'
p972
asbag57
(g78
g59
NtRp973
(dp974
g62
(dp975
g89
g90
ssg71
g964
sg64
(lp976
S':'
asbag57
(g78
g59
NtRp977
(dp978
g62
(dp979
sg71
g964
sg64
(lp980
g57
(g58
g59
NtRp981
(dp982
g62
(dp983
g70
I4
ssg71
g977
sg64
(lp984
g100
asbasbasbag57
(g73
g59
NtRp985
(dp986
g62
(dp987
sg71
g847
sg64
(lp988
g57
(g78
g59
NtRp989
(dp990
g62
(dp991
g82
g83
ssg71
g985
sg64
(lp992
S'gluon_parent'
p993
asbag57
(g78
g59
NtRp994
(dp995
g62
(dp996
g89
g90
ssg71
g985
sg64
(lp997
S':'
asbag57
(g78
g59
NtRp998
(dp999
g62
(dp1000
sg71
g985
sg64
(lp1001
g57
(g58
g59
NtRp1002
(dp1003
g62
(dp1004
g70
I4
ssg71
g998
sg64
(lp1005
S'/home/gaurav/classwork/WEB_PROGRAMMING/web2py'
p1006
asbasbasbag57
(g73
g59
NtRp1007
(dp1008
g62
(dp1009
sg71
g847
sg64
(lp1010
g57
(g78
g59
NtRp1011
(dp1012
g62
(dp1013
g82
g83
ssg71
g1007
sg64
(lp1014
S'http_accept'
p1015
asbag57
(g78
g59
NtRp1016
(dp1017
g62
(dp1018
g89
g90
ssg71
g1007
sg64
(lp1019
S':'
asbag57
(g78
g59
NtRp1020
(dp1021
g62
(dp1022
sg71
g1007
sg64
(lp1023
g57
(g58
g59
NtRp1024
(dp1025
g62
(dp1026
g70
I4
ssg71
g1020
sg64
(lp1027
S'text/html,application/xhtml+xml,application/xml;q=0.9,*/*;q=0.8'
p1028
asbasbasbag57
(g73
g59
NtRp1029
(dp1030
g62
(dp1031
sg71
g847
sg64
(lp1032
g57
(g78
g59
NtRp1033
(dp1034
g62
(dp1035
g82
g83
ssg71
g1029
sg64
(lp1036
S'http_accept_encoding'
p1037
asbag57
(g78
g59
NtRp1038
(dp1039
g62
(dp1040
g89
g90
ssg71
g1029
sg64
(lp1041
S':'
asbag57
(g78
g59
NtRp1042
(dp1043
g62
(dp1044
sg71
g1029
sg64
(lp1045
g57
(g58
g59
NtRp1046
(dp1047
g62
(dp1048
g70
I4
ssg71
g1042
sg64
(lp1049
S'gzip, deflate'
p1050
asbasbasbag57
(g73
g59
NtRp1051
(dp1052
g62
(dp1053
sg71
g847
sg64
(lp1054
g57
(g78
g59
NtRp1055
(dp1056
g62
(dp1057
g82
g83
ssg71
g1051
sg64
(lp1058
S'http_accept_language'
p1059
asbag57
(g78
g59
NtRp1060
(dp1061
g62
(dp1062
g89
g90
ssg71
g1051
sg64
(lp1063
S':'
asbag57
(g78
g59
NtRp1064
(dp1065
g62
(dp1066
sg71
g1051
sg64
(lp1067
g57
(g58
g59
NtRp1068
(dp1069
g62
(dp1070
g70
I4
ssg71
g1064
sg64
(lp1071
S'en-US,en;q=0.5'
p1072
asbasbasbag57
(g73
g59
NtRp1073
(dp1074
g62
(dp1075
sg71
g847
sg64
(lp1076
g57
(g78
g59
NtRp1077
(dp1078
g62
(dp1079
g82
g83
ssg71
g1073
sg64
(lp1080
S'http_cache_control'
p1081
asbag57
(g78
g59
NtRp1082
(dp1083
g62
(dp1084
g89
g90
ssg71
g1073
sg64
(lp1085
S':'
asbag57
(g78
g59
NtRp1086
(dp1087
g62
(dp1088
sg71
g1073
sg64
(lp1089
g57
(g58
g59
NtRp1090
(dp1091
g62
(dp1092
g70
I4
ssg71
g1086
sg64
(lp1093
S'max-age=0'
p1094
asbasbasbag57
(g73
g59
NtRp1095
(dp1096
g62
(dp1097
sg71
g847
sg64
(lp1098
g57
(g78
g59
NtRp1099
(dp1100
g62
(dp1101
g82
g83
ssg71
g1095
sg64
(lp1102
S'http_connection'
p1103
asbag57
(g78
g59
NtRp1104
(dp1105
g62
(dp1106
g89
g90
ssg71
g1095
sg64
(lp1107
S':'
asbag57
(g78
g59
NtRp1108
(dp1109
g62
(dp1110
sg71
g1095
sg64
(lp1111
g57
(g58
g59
NtRp1112
(dp1113
g62
(dp1114
g70
I4
ssg71
g1108
sg64
(lp1115
S'keep-alive'
p1116
asbasbasbag57
(g73
g59
NtRp1117
(dp1118
g62
(dp1119
sg71
g847
sg64
(lp1120
g57
(g78
g59
NtRp1121
(dp1122
g62
(dp1123
g82
g83
ssg71
g1117
sg64
(lp1124
S'http_cookie'
p1125
asbag57
(g78
g59
NtRp1126
(dp1127
g62
(dp1128
g89
g90
ssg71
g1117
sg64
(lp1129
S':'
asbag57
(g78
g59
NtRp1130
(dp1131
g62
(dp1132
sg71
g1117
sg64
(lp1133
g57
(g58
g59
NtRp1134
(dp1135
g62
(dp1136
g70
I4
ssg71
g1130
sg64
(lp1137
S'session_id_welcome=127.0.0.1-60af83f5-082a-48eb-ae91-6ebdb2dfc268; session_id_admin=127.0.0.1-b90b89cf-3183-446b-a00b-faa54ea32acb; session_id_onlineexamination=127.0.0.1-c946dbc5-3ee7-4ce1-86c5-f16bb3a3c13c'
p1138
asbasbasbag57
(g73
g59
NtRp1139
(dp1140
g62
(dp1141
sg71
g847
sg64
(lp1142
g57
(g78
g59
NtRp1143
(dp1144
g62
(dp1145
g82
g83
ssg71
g1139
sg64
(lp1146
S'http_host'
p1147
asbag57
(g78
g59
NtRp1148
(dp1149
g62
(dp1150
g89
g90
ssg71
g1139
sg64
(lp1151
S':'
asbag57
(g78
g59
NtRp1152
(dp1153
g62
(dp1154
sg71
g1139
sg64
(lp1155
g57
(g58
g59
NtRp1156
(dp1157
g62
(dp1158
g70
I4
ssg71
g1152
sg64
(lp1159
S'127.0.0.1:8000'
p1160
asbasbasbag57
(g73
g59
NtRp1161
(dp1162
g62
(dp1163
sg71
g847
sg64
(lp1164
g57
(g78
g59
NtRp1165
(dp1166
g62
(dp1167
g82
g83
ssg71
g1161
sg64
(lp1168
S'http_referer'
p1169
asbag57
(g78
g59
NtRp1170
(dp1171
g62
(dp1172
g89
g90
ssg71
g1161
sg64
(lp1173
S':'
asbag57
(g78
g59
NtRp1174
(dp1175
g62
(dp1176
sg71
g1161
sg64
(lp1177
g57
(g58
g59
NtRp1178
(dp1179
g62
(dp1180
g70
I4
ssg71
g1174
sg64
(lp1181
S'http://127.0.0.1:8000/OnlineExamination/default/give_exam.html'
p1182
asbasbasbag57
(g73
g59
NtRp1183
(dp1184
g62
(dp1185
sg71
g847
sg64
(lp1186
g57
(g78
g59
NtRp1187
(dp1188
g62
(dp1189
g82
g83
ssg71
g1183
sg64
(lp1190
S'http_user_agent'
p1191
asbag57
(g78
g59
NtRp1192
(dp1193
g62
(dp1194
g89
g90
ssg71
g1183
sg64
(lp1195
S':'
asbag57
(g78
g59
NtRp1196
(dp1197
g62
(dp1198
sg71
g1183
sg64
(lp1199
g57
(g58
g59
NtRp1200
(dp1201
g62
(dp1202
g70
I4
ssg71
g1196
sg64
(lp1203
S'Mozilla/5.0 (X11; Ubuntu; Linux i686; rv:16.0) Gecko/20100101 Firefox/16.0'
p1204
asbasbasbag57
(g73
g59
NtRp1205
(dp1206
g62
(dp1207
sg71
g847
sg64
(lp1208
g57
(g78
g59
NtRp1209
(dp1210
g62
(dp1211
g82
g83
ssg71
g1205
sg64
(lp1212
S'is_jython'
p1213
asbag57
(g78
g59
NtRp1214
(dp1215
g62
(dp1216
g89
g90
ssg71
g1205
sg64
(lp1217
S':'
asbag57
(g78
g59
NtRp1218
(dp1219
g62
(dp1220
sg71
g1205
sg64
(lp1221
g57
(g58
g59
NtRp1222
(dp1223
g62
(dp1224
g70
I4
ssg71
g1218
sg64
(lp1225
g100
asbasbasbag57
(g73
g59
NtRp1226
(dp1227
g62
(dp1228
sg71
g847
sg64
(lp1229
g57
(g78
g59
NtRp1230
(dp1231
g62
(dp1232
g82
g83
ssg71
g1226
sg64
(lp1233
S'is_pypy'
p1234
asbag57
(g78
g59
NtRp1235
(dp1236
g62
(dp1237
g89
g90
ssg71
g1226
sg64
(lp1238
S':'
asbag57
(g78
g59
NtRp1239
(dp1240
g62
(dp1241
sg71
g1226
sg64
(lp1242
g57
(g58
g59
NtRp1243
(dp1244
g62
(dp1245
g70
I4
ssg71
g1239
sg64
(lp1246
g100
asbasbasbag57
(g73
g59
NtRp1247
(dp1248
g62
(dp1249
sg71
g847
sg64
(lp1250
g57
(g78
g59
NtRp1251
(dp1252
g62
(dp1253
g82
g83
ssg71
g1247
sg64
(lp1254
S'local_hosts'
p1255
asbag57
(g78
g59
NtRp1256
(dp1257
g62
(dp1258
g89
g90
ssg71
g1247
sg64
(lp1259
S':'
asbag57
(g78
g59
NtRp1260
(dp1261
g62
(dp1262
sg71
g1247
sg64
(lp1263
g57
(g58
g59
NtRp1264
(dp1265
g62
(dp1266
g70
I4
ssg71
g1260
sg64
(lp1267
g57
(g66
g59
NtRp1268
(dp1269
g62
(dp1270
g70
I3
ssg71
Nsg64
(lp1271
g57
(g73
g59
NtRp1272
(dp1273
g62
(dp1274
sg71
g1268
sg64
(lp1275
g57
(g78
g59
NtRp1276
(dp1277
g62
(dp1278
sg71
g1272
sg64
(lp1279
g57
(g58
g59
NtRp1280
(dp1281
g62
(dp1282
g70
I3
ssg71
g1276
sg64
(lp1283
S'gaurav-Compaq-Presario-C700-Notebook-PC'
p1284
asbasbasbag57
(g73
g59
NtRp1285
(dp1286
g62
(dp1287
sg71
g1268
sg64
(lp1288
g57
(g78
g59
NtRp1289
(dp1290
g62
(dp1291
sg71
g1285
sg64
(lp1292
g57
(g58
g59
NtRp1293
(dp1294
g62
(dp1295
g70
I3
ssg71
g1289
sg64
(lp1296
S'::1'
p1297
asbasbasbag57
(g73
g59
NtRp1298
(dp1299
g62
(dp1300
sg71
g1268
sg64
(lp1301
g57
(g78
g59
NtRp1302
(dp1303
g62
(dp1304
sg71
g1298
sg64
(lp1305
g57
(g58
g59
NtRp1306
(dp1307
g62
(dp1308
g70
I3
ssg71
g1302
sg64
(lp1309
S'127.0.1.1'
p1310
asbasbasbag57
(g73
g59
NtRp1311
(dp1312
g62
(dp1313
sg71
g1268
sg64
(lp1314
g57
(g78
g59
NtRp1315
(dp1316
g62
(dp1317
sg71
g1311
sg64
(lp1318
g57
(g58
g59
NtRp1319
(dp1320
g62
(dp1321
g70
I3
ssg71
g1315
sg64
(lp1322
S'::ffff:127.0.0.1'
p1323
asbasbasbag57
(g73
g59
NtRp1324
(dp1325
g62
(dp1326
sg71
g1268
sg64
(lp1327
g57
(g78
g59
NtRp1328
(dp1329
g62
(dp1330
sg71
g1324
sg64
(lp1331
g57
(g58
g59
NtRp1332
(dp1333
g62
(dp1334
g70
I3
ssg71
g1328
sg64
(lp1335
S'127.0.0.1'
p1336
asbasbasbasbasbasbasbag57
(g73
g59
NtRp1337
(dp1338
g62
(dp1339
sg71
g847
sg64
(lp1340
g57
(g78
g59
NtRp1341
(dp1342
g62
(dp1343
g82
g83
ssg71
g1337
sg64
(lp1344
S'path_info'
p1345
asbag57
(g78
g59
NtRp1346
(dp1347
g62
(dp1348
g89
g90
ssg71
g1337
sg64
(lp1349
S':'
asbag57
(g78
g59
NtRp1350
(dp1351
g62
(dp1352
sg71
g1337
sg64
(lp1353
g57
(g58
g59
NtRp1354
(dp1355
g62
(dp1356
g70
I4
ssg71
g1350
sg64
(lp1357
S'/OnlineExamination/default/exam'
p1358
asbasbasbag57
(g73
g59
NtRp1359
(dp1360
g62
(dp1361
sg71
g847
sg64
(lp1362
g57
(g78
g59
NtRp1363
(dp1364
g62
(dp1365
g82
g83
ssg71
g1359
sg64
(lp1366
S'query_string'
p1367
asbag57
(g78
g59
NtRp1368
(dp1369
g62
(dp1370
g89
g90
ssg71
g1359
sg64
(lp1371
S':'
asbag57
(g78
g59
NtRp1372
(dp1373
g62
(dp1374
sg71
g1359
sg64
(lp1375
g57
(g58
g59
NtRp1376
(dp1377
g62
(dp1378
g70
I4
ssg71
g1372
sg64
(lp1379
S''
asbasbasbag57
(g73
g59
NtRp1380
(dp1381
g62
(dp1382
sg71
g847
sg64
(lp1383
g57
(g78
g59
NtRp1384
(dp1385
g62
(dp1386
g82
g83
ssg71
g1380
sg64
(lp1387
S'remote_addr'
p1388
asbag57
(g78
g59
NtRp1389
(dp1390
g62
(dp1391
g89
g90
ssg71
g1380
sg64
(lp1392
S':'
asbag57
(g78
g59
NtRp1393
(dp1394
g62
(dp1395
sg71
g1380
sg64
(lp1396
g57
(g58
g59
NtRp1397
(dp1398
g62
(dp1399
g70
I4
ssg71
g1393
sg64
(lp1400
g212
asbasbasbag57
(g73
g59
NtRp1401
(dp1402
g62
(dp1403
sg71
g847
sg64
(lp1404
g57
(g78
g59
NtRp1405
(dp1406
g62
(dp1407
g82
g83
ssg71
g1401
sg64
(lp1408
S'remote_port'
p1409
asbag57
(g78
g59
NtRp1410
(dp1411
g62
(dp1412
g89
g90
ssg71
g1401
sg64
(lp1413
S':'
asbag57
(g78
g59
NtRp1414
(dp1415
g62
(dp1416
sg71
g1401
sg64
(lp1417
g57
(g58
g59
NtRp1418
(dp1419
g62
(dp1420
g70
I4
ssg71
g1414
sg64
(lp1421
S'39087'
p1422
asbasbasbag57
(g73
g59
NtRp1423
(dp1424
g62
(dp1425
sg71
g847
sg64
(lp1426
g57
(g78
g59
NtRp1427
(dp1428
g62
(dp1429
g82
g83
ssg71
g1423
sg64
(lp1430
S'request_method'
p1431
asbag57
(g78
g59
NtRp1432
(dp1433
g62
(dp1434
g89
g90
ssg71
g1423
sg64
(lp1435
S':'
asbag57
(g78
g59
NtRp1436
(dp1437
g62
(dp1438
sg71
g1423
sg64
(lp1439
g57
(g58
g59
NtRp1440
(dp1441
g62
(dp1442
g70
I4
ssg71
g1436
sg64
(lp1443
S'GET'
p1444
asbasbasbag57
(g73
g59
NtRp1445
(dp1446
g62
(dp1447
sg71
g847
sg64
(lp1448
g57
(g78
g59
NtRp1449
(dp1450
g62
(dp1451
g82
g83
ssg71
g1445
sg64
(lp1452
S'request_uri'
p1453
asbag57
(g78
g59
NtRp1454
(dp1455
g62
(dp1456
g89
g90
ssg71
g1445
sg64
(lp1457
S':'
asbag57
(g78
g59
NtRp1458
(dp1459
g62
(dp1460
sg71
g1445
sg64
(lp1461
g57
(g58
g59
NtRp1462
(dp1463
g62
(dp1464
g70
I4
ssg71
g1458
sg64
(lp1465
g1358
asbasbasbag57
(g73
g59
NtRp1466
(dp1467
g62
(dp1468
sg71
g847
sg64
(lp1469
g57
(g78
g59
NtRp1470
(dp1471
g62
(dp1472
g82
g83
ssg71
g1466
sg64
(lp1473
S'script_name'
p1474
asbag57
(g78
g59
NtRp1475
(dp1476
g62
(dp1477
g89
g90
ssg71
g1466
sg64
(lp1478
S':'
asbag57
(g78
g59
NtRp1479
(dp1480
g62
(dp1481
sg71
g1466
sg64
(lp1482
g57
(g58
g59
NtRp1483
(dp1484
g62
(dp1485
g70
I4
ssg71
g1479
sg64
(lp1486
S''
asbasbasbag57
(g73
g59
NtRp1487
(dp1488
g62
(dp1489
sg71
g847
sg64
(lp1490
g57
(g78
g59
NtRp1491
(dp1492
g62
(dp1493
g82
g83
ssg71
g1487
sg64
(lp1494
S'server_name'
p1495
asbag57
(g78
g59
NtRp1496
(dp1497
g62
(dp1498
g89
g90
ssg71
g1487
sg64
(lp1499
S':'
asbag57
(g78
g59
NtRp1500
(dp1501
g62
(dp1502
sg71
g1487
sg64
(lp1503
g57
(g58
g59
NtRp1504
(dp1505
g62
(dp1506
g70
I4
ssg71
g1500
sg64
(lp1507
S'gaurav-Compaq-Presario-C700-Notebook-PC'
p1508
asbasbasbag57
(g73
g59
NtRp1509
(dp1510
g62
(dp1511
sg71
g847
sg64
(lp1512
g57
(g78
g59
NtRp1513
(dp1514
g62
(dp1515
g82
g83
ssg71
g1509
sg64
(lp1516
S'server_port'
p1517
asbag57
(g78
g59
NtRp1518
(dp1519
g62
(dp1520
g89
g90
ssg71
g1509
sg64
(lp1521
S':'
asbag57
(g78
g59
NtRp1522
(dp1523
g62
(dp1524
sg71
g1509
sg64
(lp1525
g57
(g58
g59
NtRp1526
(dp1527
g62
(dp1528
g70
I4
ssg71
g1522
sg64
(lp1529
S'8000'
p1530
asbasbasbag57
(g73
g59
NtRp1531
(dp1532
g62
(dp1533
sg71
g847
sg64
(lp1534
g57
(g78
g59
NtRp1535
(dp1536
g62
(dp1537
g82
g83
ssg71
g1531
sg64
(lp1538
S'server_protocol'
p1539
asbag57
(g78
g59
NtRp1540
(dp1541
g62
(dp1542
g89
g90
ssg71
g1531
sg64
(lp1543
S':'
asbag57
(g78
g59
NtRp1544
(dp1545
g62
(dp1546
sg71
g1531
sg64
(lp1547
g57
(g58
g59
NtRp1548
(dp1549
g62
(dp1550
g70
I4
ssg71
g1544
sg64
(lp1551
S'HTTP/1.1'
p1552
asbasbasbag57
(g73
g59
NtRp1553
(dp1554
g62
(dp1555
sg71
g847
sg64
(lp1556
g57
(g78
g59
NtRp1557
(dp1558
g62
(dp1559
g82
g83
ssg71
g1553
sg64
(lp1560
S'server_software'
p1561
asbag57
(g78
g59
NtRp1562
(dp1563
g62
(dp1564
g89
g90
ssg71
g1553
sg64
(lp1565
S':'
asbag57
(g78
g59
NtRp1566
(dp1567
g62
(dp1568
sg71
g1553
sg64
(lp1569
g57
(g58
g59
NtRp1570
(dp1571
g62
(dp1572
g70
I4
ssg71
g1566
sg64
(lp1573
S'Rocket 1.2.6'
p1574
asbasbasbag57
(g73
g59
NtRp1575
(dp1576
g62
(dp1577
sg71
g847
sg64
(lp1578
g57
(g78
g59
NtRp1579
(dp1580
g62
(dp1581
g82
g83
ssg71
g1575
sg64
(lp1582
S'web2py_path'
p1583
asbag57
(g78
g59
NtRp1584
(dp1585
g62
(dp1586
g89
g90
ssg71
g1575
sg64
(lp1587
S':'
asbag57
(g78
g59
NtRp1588
(dp1589
g62
(dp1590
sg71
g1575
sg64
(lp1591
g57
(g58
g59
NtRp1592
(dp1593
g62
(dp1594
g70
I4
ssg71
g1588
sg64
(lp1595
g894
asbasbasbag57
(g73
g59
NtRp1596
(dp1597
g62
(dp1598
sg71
g847
sg64
(lp1599
g57
(g78
g59
NtRp1600
(dp1601
g62
(dp1602
g82
g83
ssg71
g1596
sg64
(lp1603
S'web2py_version'
p1604
asbag57
(g78
g59
NtRp1605
(dp1606
g62
(dp1607
g89
g90
ssg71
g1596
sg64
(lp1608
S':'
asbag57
(g78
g59
NtRp1609
(dp1610
g62
(dp1611
sg71
g1596
sg64
(lp1612
g57
(g58
g59
NtRp1613
(dp1614
g62
(dp1615
g70
I4
ssg71
g1609
sg64
(lp1616
g57
(g66
g59
NtRp1617
(dp1618
g62
(dp1619
g70
I3
ssg71
Nsg64
(lp1620
g57
(g73
g59
NtRp1621
(dp1622
g62
(dp1623
sg71
g1617
sg64
(lp1624
g57
(g78
g59
NtRp1625
(dp1626
g62
(dp1627
sg71
g1621
sg64
(lp1628
g57
(g58
g59
NtRp1629
(dp1630
g62
(dp1631
g70
I3
ssg71
g1625
sg64
(lp1632
S'2'
asbasbasbag57
(g73
g59
NtRp1633
(dp1634
g62
(dp1635
sg71
g1617
sg64
(lp1636
g57
(g78
g59
NtRp1637
(dp1638
g62
(dp1639
sg71
g1633
sg64
(lp1640
g57
(g58
g59
NtRp1641
(dp1642
g62
(dp1643
g70
I3
ssg71
g1637
sg64
(lp1644
S'3'
asbasbasbag57
(g73
g59
NtRp1645
(dp1646
g62
(dp1647
sg71
g1617
sg64
(lp1648
g57
(g78
g59
NtRp1649
(dp1650
g62
(dp1651
sg71
g1645
sg64
(lp1652
g57
(g58
g59
NtRp1653
(dp1654
g62
(dp1655
g70
I3
ssg71
g1649
sg64
(lp1656
S'2'
asbasbasbag57
(g73
g59
NtRp1657
(dp1658
g62
(dp1659
sg71
g1617
sg64
(lp1660
g57
(g78
g59
NtRp1661
(dp1662
g62
(dp1663
sg71
g1657
sg64
(lp1664
g57
(g58
g59
NtRp1665
(dp1666
g62
(dp1667
g70
I3
ssg71
g1661
sg64
(lp1668
S'datetime.datetime(2012, 12, 17, 15, 3, 30)'
p1669
asbasbasbag57
(g73
g59
NtRp1670
(dp1671
g62
(dp1672
sg71
g1617
sg64
(lp1673
g57
(g78
g59
NtRp1674
(dp1675
g62
(dp1676
sg71
g1670
sg64
(lp1677
g57
(g58
g59
NtRp1678
(dp1679
g62
(dp1680
g70
I3
ssg71
g1674
sg64
(lp1681
S'stable'
p1682
asbasbasbasbasbasbasbag57
(g73
g59
NtRp1683
(dp1684
g62
(dp1685
sg71
g847
sg64
(lp1686
g57
(g78
g59
NtRp1687
(dp1688
g62
(dp1689
g82
g83
ssg71
g1683
sg64
(lp1690
S'wsgi_errors'
p1691
asbag57
(g78
g59
NtRp1692
(dp1693
g62
(dp1694
g89
g90
ssg71
g1683
sg64
(lp1695
S':'
asbag57
(g78
g59
NtRp1696
(dp1697
g62
(dp1698
sg71
g1683
sg64
(lp1699
g57
(g58
g59
NtRp1700
(dp1701
g62
(dp1702
g70
I4
ssg71
g1696
sg64
(lp1703
S"<open file '<stderr>', mode 'w' at 0xb749a0d0>"
p1704
asbasbasbag57
(g73
g59
NtRp1705
(dp1706
g62
(dp1707
sg71
g847
sg64
(lp1708
g57
(g78
g59
NtRp1709
(dp1710
g62
(dp1711
g82
g83
ssg71
g1705
sg64
(lp1712
S'wsgi_file_wrapper'
p1713
asbag57
(g78
g59
NtRp1714
(dp1715
g62
(dp1716
g89
g90
ssg71
g1705
sg64
(lp1717
S':'
asbag57
(g78
g59
NtRp1718
(dp1719
g62
(dp1720
sg71
g1705
sg64
(lp1721
g57
(g58
g59
NtRp1722
(dp1723
g62
(dp1724
g70
I4
ssg71
g1718
sg64
(lp1725
S'<class wsgiref.util.FileWrapper at 0x9f61ecc>'
p1726
asbasbasbag57
(g73
g59
NtRp1727
(dp1728
g62
(dp1729
sg71
g847
sg64
(lp1730
g57
(g78
g59
NtRp1731
(dp1732
g62
(dp1733
g82
g83
ssg71
g1727
sg64
(lp1734
S'wsgi_input'
p1735
asbag57
(g78
g59
NtRp1736
(dp1737
g62
(dp1738
g89
g90
ssg71
g1727
sg64
(lp1739
S':'
asbag57
(g78
g59
NtRp1740
(dp1741
g62
(dp1742
sg71
g1727
sg64
(lp1743
g57
(g58
g59
NtRp1744
(dp1745
g62
(dp1746
g70
I4
ssg71
g1740
sg64
(lp1747
S'<socket._fileobject object at 0xadf69a6c>'
p1748
asbasbasbag57
(g73
g59
NtRp1749
(dp1750
g62
(dp1751
sg71
g847
sg64
(lp1752
g57
(g78
g59
NtRp1753
(dp1754
g62
(dp1755
g82
g83
ssg71
g1749
sg64
(lp1756
S'wsgi_multiprocess'
p1757
asbag57
(g78
g59
NtRp1758
(dp1759
g62
(dp1760
g89
g90
ssg71
g1749
sg64
(lp1761
S':'
asbag57
(g78
g59
NtRp1762
(dp1763
g62
(dp1764
sg71
g1749
sg64
(lp1765
g57
(g58
g59
NtRp1766
(dp1767
g62
(dp1768
g70
I4
ssg71
g1762
sg64
(lp1769
g100
asbasbasbag57
(g73
g59
NtRp1770
(dp1771
g62
(dp1772
sg71
g847
sg64
(lp1773
g57
(g78
g59
NtRp1774
(dp1775
g62
(dp1776
g82
g83
ssg71
g1770
sg64
(lp1777
S'wsgi_multithread'
p1778
asbag57
(g78
g59
NtRp1779
(dp1780
g62
(dp1781
g89
g90
ssg71
g1770
sg64
(lp1782
S':'
asbag57
(g78
g59
NtRp1783
(dp1784
g62
(dp1785
sg71
g1770
sg64
(lp1786
g57
(g58
g59
NtRp1787
(dp1788
g62
(dp1789
g70
I4
ssg71
g1783
sg64
(lp1790
S'True'
p1791
asbasbasbag57
(g73
g59
NtRp1792
(dp1793
g62
(dp1794
sg71
g847
sg64
(lp1795
g57
(g78
g59
NtRp1796
(dp1797
g62
(dp1798
g82
g83
ssg71
g1792
sg64
(lp1799
S'wsgi_run_once'
p1800
asbag57
(g78
g59
NtRp1801
(dp1802
g62
(dp1803
g89
g90
ssg71
g1792
sg64
(lp1804
S':'
asbag57
(g78
g59
NtRp1805
(dp1806
g62
(dp1807
sg71
g1792
sg64
(lp1808
g57
(g58
g59
NtRp1809
(dp1810
g62
(dp1811
g70
I4
ssg71
g1805
sg64
(lp1812
g100
asbasbasbag57
(g73
g59
NtRp1813
(dp1814
g62
(dp1815
sg71
g847
sg64
(lp1816
g57
(g78
g59
NtRp1817
(dp1818
g62
(dp1819
g82
g83
ssg71
g1813
sg64
(lp1820
S'wsgi_url_scheme'
p1821
asbag57
(g78
g59
NtRp1822
(dp1823
g62
(dp1824
g89
g90
ssg71
g1813
sg64
(lp1825
S':'
asbag57
(g78
g59
NtRp1826
(dp1827
g62
(dp1828
sg71
g1813
sg64
(lp1829
g57
(g58
g59
NtRp1830
(dp1831
g62
(dp1832
g70
I4
ssg71
g1826
sg64
(lp1833
S'http'
p1834
asbasbasbag57
(g73
g59
NtRp1835
(dp1836
g62
(dp1837
sg71
g847
sg64
(lp1838
g57
(g78
g59
NtRp1839
(dp1840
g62
(dp1841
g82
g83
ssg71
g1835
sg64
(lp1842
S'wsgi_version'
p1843
asbag57
(g78
g59
NtRp1844
(dp1845
g62
(dp1846
g89
g90
ssg71
g1835
sg64
(lp1847
S':'
asbag57
(g78
g59
NtRp1848
(dp1849
g62
(dp1850
sg71
g1835
sg64
(lp1851
g57
(g58
g59
NtRp1852
(dp1853
g62
(dp1854
g70
I4
ssg71
g1848
sg64
(lp1855
g57
(g66
g59
NtRp1856
(dp1857
g62
(dp1858
g70
I3
ssg71
Nsg64
(lp1859
g57
(g73
g59
NtRp1860
(dp1861
g62
(dp1862
sg71
g1856
sg64
(lp1863
g57
(g78
g59
NtRp1864
(dp1865
g62
(dp1866
sg71
g1860
sg64
(lp1867
g57
(g58
g59
NtRp1868
(dp1869
g62
(dp1870
g70
I3
ssg71
g1864
sg64
(lp1871
S'1'
asbasbasbag57
(g73
g59
NtRp1872
(dp1873
g62
(dp1874
sg71
g1856
sg64
(lp1875
g57
(g78
g59
NtRp1876
(dp1877
g62
(dp1878
sg71
g1872
sg64
(lp1879
g57
(g58
g59
NtRp1880
(dp1881
g62
(dp1882
g70
I3
ssg71
g1876
sg64
(lp1883
S'0'
asbasbasbasbasbasbasbasbasbasbasbag57
(g73
g59
NtRp1884
(dp1885
g62
(dp1886
sg71
g67
sg64
(lp1887
g57
(g78
g59
NtRp1888
(dp1889
g62
(dp1890
g82
g83
ssg71
g1884
sg64
(lp1891
S'extension'
p1892
asbag57
(g78
g59
NtRp1893
(dp1894
g62
(dp1895
g89
g90
ssg71
g1884
sg64
(lp1896
S':'
asbag57
(g78
g59
NtRp1897
(dp1898
g62
(dp1899
sg71
g1884
sg64
(lp1900
g57
(g58
g59
NtRp1901
(dp1902
g62
(dp1903
g70
I5
ssg71
g1897
sg64
(lp1904
S'html'
p1905
asbasbasbag57
(g73
g59
NtRp1906
(dp1907
g62
(dp1908
sg71
g67
sg64
(lp1909
g57
(g78
g59
NtRp1910
(dp1911
g62
(dp1912
g82
g83
ssg71
g1906
sg64
(lp1913
S'folder'
p1914
asbag57
(g78
g59
NtRp1915
(dp1916
g62
(dp1917
g89
g90
ssg71
g1906
sg64
(lp1918
S':'
asbag57
(g78
g59
NtRp1919
(dp1920
g62
(dp1921
sg71
g1906
sg64
(lp1922
g57
(g58
g59
NtRp1923
(dp1924
g62
(dp1925
g70
I5
ssg71
g1919
sg64
(lp1926
S'/home/gaurav/classwork/WEB_PROGRAMMING/web2py/applications/OnlineExamination/'
p1927
asbasbasbag57
(g73
g59
NtRp1928
(dp1929
g62
(dp1930
sg71
g67
sg64
(lp1931
g57
(g78
g59
NtRp1932
(dp1933
g62
(dp1934
g82
g83
ssg71
g1928
sg64
(lp1935
S'function'
p1936
asbag57
(g78
g59
NtRp1937
(dp1938
g62
(dp1939
g89
g90
ssg71
g1928
sg64
(lp1940
S':'
asbag57
(g78
g59
NtRp1941
(dp1942
g62
(dp1943
sg71
g1928
sg64
(lp1944
g57
(g58
g59
NtRp1945
(dp1946
g62
(dp1947
g70
I5
ssg71
g1941
sg64
(lp1948
S'exam'
p1949
asbasbasbag57
(g73
g59
NtRp1950
(dp1951
g62
(dp1952
sg71
g67
sg64
(lp1953
g57
(g78
g59
NtRp1954
(dp1955
g62
(dp1956
g82
g83
ssg71
g1950
sg64
(lp1957
S'get_vars'
p1958
asbag57
(g78
g59
NtRp1959
(dp1960
g62
(dp1961
g89
g90
ssg71
g1950
sg64
(lp1962
S':'
asbag57
(g78
g59
NtRp1963
(dp1964
g62
(dp1965
sg71
g1950
sg64
(lp1966
g57
(g58
g59
NtRp1967
(dp1968
g62
(dp1969
g70
I5
ssg71
g1963
sg64
(lp1970
g57
(g66
g59
NtRp1971
(dp1972
g62
(dp1973
g70
I4
ssg71
Nsg64
(lp1974
sbasbasbasbag57
(g73
g59
NtRp1975
(dp1976
g62
(dp1977
sg71
g67
sg64
(lp1978
g57
(g78
g59
NtRp1979
(dp1980
g62
(dp1981
g82
g83
ssg71
g1975
sg64
(lp1982
S'global_settings'
p1983
asbag57
(g78
g59
NtRp1984
(dp1985
g62
(dp1986
g89
g90
ssg71
g1975
sg64
(lp1987
S':'
asbag57
(g78
g59
NtRp1988
(dp1989
g62
(dp1990
sg71
g1975
sg64
(lp1991
g57
(g58
g59
NtRp1992
(dp1993
g62
(dp1994
g70
I5
ssg71
g1988
sg64
(lp1995
g57
(g66
g59
NtRp1996
(dp1997
g62
(dp1998
g70
I4
ssg71
Nsg64
(lp1999
g57
(g73
g59
NtRp2000
(dp2001
g62
(dp2002
sg71
g1996
sg64
(lp2003
g57
(g78
g59
NtRp2004
(dp2005
g62
(dp2006
g82
g83
ssg71
g2000
sg64
(lp2007
g859
asbag57
(g78
g59
NtRp2008
(dp2009
g62
(dp2010
g89
g90
ssg71
g2000
sg64
(lp2011
S':'
asbag57
(g78
g59
NtRp2012
(dp2013
g62
(dp2014
sg71
g2000
sg64
(lp2015
g57
(g58
g59
NtRp2016
(dp2017
g62
(dp2018
g70
I4
ssg71
g2012
sg64
(lp2019
S"set(['/home/gaurav/classwork/WEB_PROGRAMMING/web2py/applications/OnlineExamination/', '/home/gaurav/classwork/WEB_PROGRAMMING/web2py/applications/admin/', '/home/gaurav/classwork/WEB_PROGRAMMING/web2py/applications/welcome/'])"
p2020
asbasbasbag57
(g73
g59
NtRp2021
(dp2022
g62
(dp2023
sg71
g1996
sg64
(lp2024
g57
(g78
g59
NtRp2025
(dp2026
g62
(dp2027
g82
g83
ssg71
g2021
sg64
(lp2028
g881
asbag57
(g78
g59
NtRp2029
(dp2030
g62
(dp2031
g89
g90
ssg71
g2021
sg64
(lp2032
S':'
asbag57
(g78
g59
NtRp2033
(dp2034
g62
(dp2035
sg71
g2021
sg64
(lp2036
g57
(g58
g59
NtRp2037
(dp2038
g62
(dp2039
g70
I4
ssg71
g2033
sg64
(lp2040
g894
asbasbasbag57
(g73
g59
NtRp2041
(dp2042
g62
(dp2043
sg71
g1996
sg64
(lp2044
g57
(g78
g59
NtRp2045
(dp2046
g62
(dp2047
g82
g83
ssg71
g2041
sg64
(lp2048
g903
asbag57
(g78
g59
NtRp2049
(dp2050
g62
(dp2051
g89
g90
ssg71
g2041
sg64
(lp2052
S':'
asbag57
(g78
g59
NtRp2053
(dp2054
g62
(dp2055
sg71
g2041
sg64
(lp2056
g57
(g58
g59
NtRp2057
(dp2058
g62
(dp2059
g70
I4
ssg71
g2053
sg64
(lp2060
g57
(g66
g59
NtRp2061
(dp2062
g62
(dp2063
g70
I3
ssg71
Nsg64
(lp2064
sbasbasbasbag57
(g73
g59
NtRp2065
(dp2066
g62
(dp2067
sg71
g1996
sg64
(lp2068
g57
(g78
g59
NtRp2069
(dp2070
g62
(dp2071
g82
g83
ssg71
g2065
sg64
(lp2072
g928
asbag57
(g78
g59
NtRp2073
(dp2074
g62
(dp2075
g89
g90
ssg71
g2065
sg64
(lp2076
S':'
asbag57
(g78
g59
NtRp2077
(dp2078
g62
(dp2079
sg71
g2065
sg64
(lp2080
g57
(g58
g59
NtRp2081
(dp2082
g62
(dp2083
g70
I4
ssg71
g2077
sg64
(lp2084
S"<Values at 0x9faf6ac: {'verbose': False, 'ip': '127.0.0.1', 'with_scheduler': False, 'ips': [], 'shutdown_timeout': 5, 'taskbar': False, 'port': 8000, 'maxthreads': None, 'softcron': False, 'server_name': 'gaurav-Compaq-Presario-C700-Notebook-PC', 'bpython': False, 'nogui': False, 'pid_filename': 'httpserver.pid', 'extcron': False, 'runcron': False, 'run_system_tests': False, 'test': None, 'folder': '/home/gaurav/classwork/WEB_PROGRAMMING/web2py', 'config': '', 'import_models': False, 'winservice': '', 'shell': None, 'run': '', 'log_filename': 'httpserver.log', 'debuglevel': 30, 'args': [''], 'socket_timeout': 5, 'ssl_ca_certificate': None, 'scheduler': None, 'profiler_filename': None, 'ssl_private_key': '', 'scheduler_groups': None, 'password': '<ask>', 'request_queue_size': 5, 'ssl_certificate': '', 'cronjob': False, 'numthreads': None, 'quiet': False, 'interfaces': None, 'minthreads': None, 'timeout': 10, 'plain': False, 'nobanner': False}>"
p2085
asbasbasbag57
(g73
g59
NtRp2086
(dp2087
g62
(dp2088
sg71
g1996
sg64
(lp2089
g57
(g78
g59
NtRp2090
(dp2091
g62
(dp2092
g82
g83
ssg71
g2086
sg64
(lp2093
g950
asbag57
(g78
g59
NtRp2094
(dp2095
g62
(dp2096
g89
g90
ssg71
g2086
sg64
(lp2097
S':'
asbag57
(g78
g59
NtRp2098
(dp2099
g62
(dp2100
sg71
g2086
sg64
(lp2101
g57
(g58
g59
NtRp2102
(dp2103
g62
(dp2104
g70
I4
ssg71
g2098
sg64
(lp2105
S'set([])'
p2106
asbasbasbag57
(g73
g59
NtRp2107
(dp2108
g62
(dp2109
sg71
g1996
sg64
(lp2110
g57
(g78
g59
NtRp2111
(dp2112
g62
(dp2113
g82
g83
ssg71
g2107
sg64
(lp2114
g972
asbag57
(g78
g59
NtRp2115
(dp2116
g62
(dp2117
g89
g90
ssg71
g2107
sg64
(lp2118
S':'
asbag57
(g78
g59
NtRp2119
(dp2120
g62
(dp2121
sg71
g2107
sg64
(lp2122
g57
(g58
g59
NtRp2123
(dp2124
g62
(dp2125
g70
I4
ssg71
g2119
sg64
(lp2126
g100
asbasbasbag57
(g73
g59
NtRp2127
(dp2128
g62
(dp2129
sg71
g1996
sg64
(lp2130
g57
(g78
g59
NtRp2131
(dp2132
g62
(dp2133
g82
g83
ssg71
g2127
sg64
(lp2134
g993
asbag57
(g78
g59
NtRp2135
(dp2136
g62
(dp2137
g89
g90
ssg71
g2127
sg64
(lp2138
S':'
asbag57
(g78
g59
NtRp2139
(dp2140
g62
(dp2141
sg71
g2127
sg64
(lp2142
g57
(g58
g59
NtRp2143
(dp2144
g62
(dp2145
g70
I4
ssg71
g2139
sg64
(lp2146
g1006
asbasbasbag57
(g73
g59
NtRp2147
(dp2148
g62
(dp2149
sg71
g1996
sg64
(lp2150
g57
(g78
g59
NtRp2151
(dp2152
g62
(dp2153
g82
g83
ssg71
g2147
sg64
(lp2154
g1213
asbag57
(g78
g59
NtRp2155
(dp2156
g62
(dp2157
g89
g90
ssg71
g2147
sg64
(lp2158
S':'
asbag57
(g78
g59
NtRp2159
(dp2160
g62
(dp2161
sg71
g2147
sg64
(lp2162
g57
(g58
g59
NtRp2163
(dp2164
g62
(dp2165
g70
I4
ssg71
g2159
sg64
(lp2166
g100
asbasbasbag57
(g73
g59
NtRp2167
(dp2168
g62
(dp2169
sg71
g1996
sg64
(lp2170
g57
(g78
g59
NtRp2171
(dp2172
g62
(dp2173
g82
g83
ssg71
g2167
sg64
(lp2174
g1234
asbag57
(g78
g59
NtRp2175
(dp2176
g62
(dp2177
g89
g90
ssg71
g2167
sg64
(lp2178
S':'
asbag57
(g78
g59
NtRp2179
(dp2180
g62
(dp2181
sg71
g2167
sg64
(lp2182
g57
(g58
g59
NtRp2183
(dp2184
g62
(dp2185
g70
I4
ssg71
g2179
sg64
(lp2186
g100
asbasbasbag57
(g73
g59
NtRp2187
(dp2188
g62
(dp2189
sg71
g1996
sg64
(lp2190
g57
(g78
g59
NtRp2191
(dp2192
g62
(dp2193
g82
g83
ssg71
g2187
sg64
(lp2194
g1255
asbag57
(g78
g59
NtRp2195
(dp2196
g62
(dp2197
g89
g90
ssg71
g2187
sg64
(lp2198
S':'
asbag57
(g78
g59
NtRp2199
(dp2200
g62
(dp2201
sg71
g2187
sg64
(lp2202
g57
(g58
g59
NtRp2203
(dp2204
g62
(dp2205
g70
I4
ssg71
g2199
sg64
(lp2206
g57
(g66
g59
NtRp2207
(dp2208
g62
(dp2209
g70
I3
ssg71
Nsg64
(lp2210
g57
(g73
g59
NtRp2211
(dp2212
g62
(dp2213
sg71
g2207
sg64
(lp2214
g57
(g78
g59
NtRp2215
(dp2216
g62
(dp2217
sg71
g2211
sg64
(lp2218
g57
(g58
g59
NtRp2219
(dp2220
g62
(dp2221
g70
I3
ssg71
g2215
sg64
(lp2222
g1284
asbasbasbag57
(g73
g59
NtRp2223
(dp2224
g62
(dp2225
sg71
g2207
sg64
(lp2226
g57
(g78
g59
NtRp2227
(dp2228
g62
(dp2229
sg71
g2223
sg64
(lp2230
g57
(g58
g59
NtRp2231
(dp2232
g62
(dp2233
g70
I3
ssg71
g2227
sg64
(lp2234
g1297
asbasbasbag57
(g73
g59
NtRp2235
(dp2236
g62
(dp2237
sg71
g2207
sg64
(lp2238
g57
(g78
g59
NtRp2239
(dp2240
g62
(dp2241
sg71
g2235
sg64
(lp2242
g57
(g58
g59
NtRp2243
(dp2244
g62
(dp2245
g70
I3
ssg71
g2239
sg64
(lp2246
g1310
asbasbasbag57
(g73
g59
NtRp2247
(dp2248
g62
(dp2249
sg71
g2207
sg64
(lp2250
g57
(g78
g59
NtRp2251
(dp2252
g62
(dp2253
sg71
g2247
sg64
(lp2254
g57
(g58
g59
NtRp2255
(dp2256
g62
(dp2257
g70
I3
ssg71
g2251
sg64
(lp2258
g1323
asbasbasbag57
(g73
g59
NtRp2259
(dp2260
g62
(dp2261
sg71
g2207
sg64
(lp2262
g57
(g78
g59
NtRp2263
(dp2264
g62
(dp2265
sg71
g2259
sg64
(lp2266
g57
(g58
g59
NtRp2267
(dp2268
g62
(dp2269
g70
I3
ssg71
g2263
sg64
(lp2270
g1336
asbasbasbasbasbasbasbag57
(g73
g59
NtRp2271
(dp2272
g62
(dp2273
sg71
g1996
sg64
(lp2274
g57
(g78
g59
NtRp2275
(dp2276
g62
(dp2277
g82
g83
ssg71
g2271
sg64
(lp2278
g1604
asbag57
(g78
g59
NtRp2279
(dp2280
g62
(dp2281
g89
g90
ssg71
g2271
sg64
(lp2282
S':'
asbag57
(g78
g59
NtRp2283
(dp2284
g62
(dp2285
sg71
g2271
sg64
(lp2286
g57
(g58
g59
NtRp2287
(dp2288
g62
(dp2289
g70
I4
ssg71
g2283
sg64
(lp2290
g57
(g66
g59
NtRp2291
(dp2292
g62
(dp2293
g70
I3
ssg71
Nsg64
(lp2294
g57
(g73
g59
NtRp2295
(dp2296
g62
(dp2297
sg71
g2291
sg64
(lp2298
g57
(g78
g59
NtRp2299
(dp2300
g62
(dp2301
sg71
g2295
sg64
(lp2302
g57
(g58
g59
NtRp2303
(dp2304
g62
(dp2305
g70
I3
ssg71
g2299
sg64
(lp2306
S'2'
asbasbasbag57
(g73
g59
NtRp2307
(dp2308
g62
(dp2309
sg71
g2291
sg64
(lp2310
g57
(g78
g59
NtRp2311
(dp2312
g62
(dp2313
sg71
g2307
sg64
(lp2314
g57
(g58
g59
NtRp2315
(dp2316
g62
(dp2317
g70
I3
ssg71
g2311
sg64
(lp2318
S'3'
asbasbasbag57
(g73
g59
NtRp2319
(dp2320
g62
(dp2321
sg71
g2291
sg64
(lp2322
g57
(g78
g59
NtRp2323
(dp2324
g62
(dp2325
sg71
g2319
sg64
(lp2326
g57
(g58
g59
NtRp2327
(dp2328
g62
(dp2329
g70
I3
ssg71
g2323
sg64
(lp2330
S'2'
asbasbasbag57
(g73
g59
NtRp2331
(dp2332
g62
(dp2333
sg71
g2291
sg64
(lp2334
g57
(g78
g59
NtRp2335
(dp2336
g62
(dp2337
sg71
g2331
sg64
(lp2338
g57
(g58
g59
NtRp2339
(dp2340
g62
(dp2341
g70
I3
ssg71
g2335
sg64
(lp2342
S'datetime.datetime(2012, 12, 17, 15, 3, 30)'
p2343
asbasbasbag57
(g73
g59
NtRp2344
(dp2345
g62
(dp2346
sg71
g2291
sg64
(lp2347
g57
(g78
g59
NtRp2348
(dp2349
g62
(dp2350
sg71
g2344
sg64
(lp2351
g57
(g58
g59
NtRp2352
(dp2353
g62
(dp2354
g70
I3
ssg71
g2348
sg64
(lp2355
g1682
asbasbasbasbasbasbasbasbasbasbasbag57
(g73
g59
NtRp2356
(dp2357
g62
(dp2358
sg71
g67
sg64
(lp2359
g57
(g78
g59
NtRp2360
(dp2361
g62
(dp2362
g82
g83
ssg71
g2356
sg64
(lp2363
S'is_https'
p2364
asbag57
(g78
g59
NtRp2365
(dp2366
g62
(dp2367
g89
g90
ssg71
g2356
sg64
(lp2368
S':'
asbag57
(g78
g59
NtRp2369
(dp2370
g62
(dp2371
sg71
g2356
sg64
(lp2372
g57
(g58
g59
NtRp2373
(dp2374
g62
(dp2375
g70
I5
ssg71
g2369
sg64
(lp2376
g100
asbasbasbag57
(g73
g59
NtRp2377
(dp2378
g62
(dp2379
sg71
g67
sg64
(lp2380
g57
(g78
g59
NtRp2381
(dp2382
g62
(dp2383
g82
g83
ssg71
g2377
sg64
(lp2384
S'is_local'
p2385
asbag57
(g78
g59
NtRp2386
(dp2387
g62
(dp2388
g89
g90
ssg71
g2377
sg64
(lp2389
S':'
asbag57
(g78
g59
NtRp2390
(dp2391
g62
(dp2392
sg71
g2377
sg64
(lp2393
g57
(g58
g59
NtRp2394
(dp2395
g62
(dp2396
g70
I5
ssg71
g2390
sg64
(lp2397
g1791
asbasbasbag57
(g73
g59
NtRp2398
(dp2399
g62
(dp2400
sg71
g67
sg64
(lp2401
g57
(g78
g59
NtRp2402
(dp2403
g62
(dp2404
g82
g83
ssg71
g2398
sg64
(lp2405
S'is_restful'
p2406
asbag57
(g78
g59
NtRp2407
(dp2408
g62
(dp2409
g89
g90
ssg71
g2398
sg64
(lp2410
S':'
asbag57
(g78
g59
NtRp2411
(dp2412
g62
(dp2413
sg71
g2398
sg64
(lp2414
g57
(g58
g59
NtRp2415
(dp2416
g62
(dp2417
g70
I5
ssg71
g2411
sg64
(lp2418
g100
asbasbasbag57
(g73
g59
NtRp2419
(dp2420
g62
(dp2421
sg71
g67
sg64
(lp2422
g57
(g78
g59
NtRp2423
(dp2424
g62
(dp2425
g82
g83
ssg71
g2419
sg64
(lp2426
S'now'
p2427
asbag57
(g78
g59
NtRp2428
(dp2429
g62
(dp2430
g89
g90
ssg71
g2419
sg64
(lp2431
S':'
asbag57
(g78
g59
NtRp2432
(dp2433
g62
(dp2434
sg71
g2419
sg64
(lp2435
g57
(g58
g59
NtRp2436
(dp2437
g62
(dp2438
g70
I5
ssg71
g2432
sg64
(lp2439
S'datetime.datetime(2013, 4, 14, 19, 25, 25, 948894)'
p2440
asbasbasbag57
(g73
g59
NtRp2441
(dp2442
g62
(dp2443
sg71
g67
sg64
(lp2444
g57
(g78
g59
NtRp2445
(dp2446
g62
(dp2447
g82
g83
ssg71
g2441
sg64
(lp2448
S'post_vars'
p2449
asbag57
(g78
g59
NtRp2450
(dp2451
g62
(dp2452
g89
g90
ssg71
g2441
sg64
(lp2453
S':'
asbag57
(g78
g59
NtRp2454
(dp2455
g62
(dp2456
sg71
g2441
sg64
(lp2457
g57
(g58
g59
NtRp2458
(dp2459
g62
(dp2460
g70
I5
ssg71
g2454
sg64
(lp2461
g57
(g66
g59
NtRp2462
(dp2463
g62
(dp2464
g70
I4
ssg71
Nsg64
(lp2465
sbasbasbasbag57
(g73
g59
NtRp2466
(dp2467
g62
(dp2468
sg71
g67
sg64
(lp2469
g57
(g78
g59
NtRp2470
(dp2471
g62
(dp2472
g82
g83
ssg71
g2466
sg64
(lp2473
S'raw_args'
p2474
asbag57
(g78
g59
NtRp2475
(dp2476
g62
(dp2477
g89
g90
ssg71
g2466
sg64
(lp2478
S':'
asbag57
(g78
g59
NtRp2479
(dp2480
g62
(dp2481
sg71
g2466
sg64
(lp2482
g57
(g58
g59
NtRp2483
(dp2484
g62
(dp2485
g70
I5
ssg71
g2479
sg64
(lp2486
S''
asbasbasbag57
(g73
g59
NtRp2487
(dp2488
g62
(dp2489
sg71
g67
sg64
(lp2490
g57
(g78
g59
NtRp2491
(dp2492
g62
(dp2493
g82
g83
ssg71
g2487
sg64
(lp2494
S'raw_extension'
p2495
asbag57
(g78
g59
NtRp2496
(dp2497
g62
(dp2498
g89
g90
ssg71
g2487
sg64
(lp2499
S':'
asbag57
(g78
g59
NtRp2500
(dp2501
g62
(dp2502
sg71
g2487
sg64
(lp2503
g57
(g58
g59
NtRp2504
(dp2505
g62
(dp2506
g70
I5
ssg71
g2500
sg64
(lp2507
S'None'
p2508
asbasbasbag57
(g73
g59
NtRp2509
(dp2510
g62
(dp2511
sg71
g67
sg64
(lp2512
g57
(g78
g59
NtRp2513
(dp2514
g62
(dp2515
g82
g83
ssg71
g2509
sg64
(lp2516
S'url'
p2517
asbag57
(g78
g59
NtRp2518
(dp2519
g62
(dp2520
g89
g90
ssg71
g2509
sg64
(lp2521
S':'
asbag57
(g78
g59
NtRp2522
(dp2523
g62
(dp2524
sg71
g2509
sg64
(lp2525
g57
(g58
g59
NtRp2526
(dp2527
g62
(dp2528
g70
I5
ssg71
g2522
sg64
(lp2529
g1358
asbasbasbag57
(g73
g59
NtRp2530
(dp2531
g62
(dp2532
sg71
g67
sg64
(lp2533
g57
(g78
g59
NtRp2534
(dp2535
g62
(dp2536
g82
g83
ssg71
g2530
sg64
(lp2537
S'utcnow'
p2538
asbag57
(g78
g59
NtRp2539
(dp2540
g62
(dp2541
g89
g90
ssg71
g2530
sg64
(lp2542
S':'
asbag57
(g78
g59
NtRp2543
(dp2544
g62
(dp2545
sg71
g2530
sg64
(lp2546
g57
(g58
g59
NtRp2547
(dp2548
g62
(dp2549
g70
I5
ssg71
g2543
sg64
(lp2550
S'datetime.datetime(2013, 4, 14, 13, 55, 25, 948955)'
p2551
asbasbasbag57
(g73
g59
NtRp2552
(dp2553
g62
(dp2554
sg71
g67
sg64
(lp2555
g57
(g78
g59
NtRp2556
(dp2557
g62
(dp2558
g82
g83
ssg71
g2552
sg64
(lp2559
S'uuid'
p2560
asbag57
(g78
g59
NtRp2561
(dp2562
g62
(dp2563
g89
g90
ssg71
g2552
sg64
(lp2564
S':'
asbag57
(g78
g59
NtRp2565
(dp2566
g62
(dp2567
sg71
g2552
sg64
(lp2568
g57
(g58
g59
NtRp2569
(dp2570
g62
(dp2571
g70
I5
ssg71
g2565
sg64
(lp2572
S'OnlineExamination/127.0.0.1.2013-04-14.19-25-25.b3214833-3319-4a00-aeb1-d32b574d438b'
p2573
asbasbasbag57
(g73
g59
NtRp2574
(dp2575
g62
(dp2576
sg71
g67
sg64
(lp2577
g57
(g78
g59
NtRp2578
(dp2579
g62
(dp2580
g82
g83
ssg71
g2574
sg64
(lp2581
S'vars'
p2582
asbag57
(g78
g59
NtRp2583
(dp2584
g62
(dp2585
g89
g90
ssg71
g2574
sg64
(lp2586
S':'
asbag57
(g78
g59
NtRp2587
(dp2588
g62
(dp2589
sg71
g2574
sg64
(lp2590
g57
(g58
g59
NtRp2591
(dp2592
g62
(dp2593
g70
I5
ssg71
g2587
sg64
(lp2594
g57
(g66
g59
NtRp2595
(dp2596
g62
(dp2597
g70
I4
ssg71
Nsg64
(lp2598
sbasbasbasbag57
(g73
g59
NtRp2599
(dp2600
g62
(dp2601
sg71
g67
sg64
(lp2602
g57
(g78
g59
NtRp2603
(dp2604
g62
(dp2605
g82
g83
ssg71
g2599
sg64
(lp2606
S'wsgi'
p2607
asbag57
(g78
g59
NtRp2608
(dp2609
g62
(dp2610
g89
g90
ssg71
g2599
sg64
(lp2611
S':'
asbag57
(g78
g59
NtRp2612
(dp2613
g62
(dp2614
sg71
g2599
sg64
(lp2615
g57
(g58
g59
NtRp2616
(dp2617
g62
(dp2618
g70
I5
ssg71
g2612
sg64
(lp2619
g57
(g66
g59
NtRp2620
(dp2621
g62
(dp2622
g70
I4
ssg71
Nsg64
(lp2623
g57
(g73
g59
NtRp2624
(dp2625
g62
(dp2626
sg71
g2620
sg64
(lp2627
g57
(g78
g59
NtRp2628
(dp2629
g62
(dp2630
g82
g83
ssg71
g2624
sg64
(lp2631
S'environ'
p2632
asbag57
(g78
g59
NtRp2633
(dp2634
g62
(dp2635
g89
g90
ssg71
g2624
sg64
(lp2636
S':'
asbag57
(g78
g59
NtRp2637
(dp2638
g62
(dp2639
sg71
g2624
sg64
(lp2640
g57
(g58
g59
NtRp2641
(dp2642
g62
(dp2643
g70
I4
ssg71
g2637
sg64
(lp2644
g57
(g66
g59
NtRp2645
(dp2646
g62
(dp2647
g70
I3
ssg71
Nsg64
(lp2648
g57
(g73
g59
NtRp2649
(dp2650
g62
(dp2651
sg71
g2645
sg64
(lp2652
g57
(g78
g59
NtRp2653
(dp2654
g62
(dp2655
g82
g83
ssg71
g2649
sg64
(lp2656
S'HTTP_ACCEPT'
p2657
asbag57
(g78
g59
NtRp2658
(dp2659
g62
(dp2660
g89
g90
ssg71
g2649
sg64
(lp2661
S':'
asbag57
(g78
g59
NtRp2662
(dp2663
g62
(dp2664
sg71
g2649
sg64
(lp2665
g57
(g58
g59
NtRp2666
(dp2667
g62
(dp2668
g70
I3
ssg71
g2662
sg64
(lp2669
g1028
asbasbasbag57
(g73
g59
NtRp2670
(dp2671
g62
(dp2672
sg71
g2645
sg64
(lp2673
g57
(g78
g59
NtRp2674
(dp2675
g62
(dp2676
g82
g83
ssg71
g2670
sg64
(lp2677
S'HTTP_ACCEPT_ENCODING'
p2678
asbag57
(g78
g59
NtRp2679
(dp2680
g62
(dp2681
g89
g90
ssg71
g2670
sg64
(lp2682
S':'
asbag57
(g78
g59
NtRp2683
(dp2684
g62
(dp2685
sg71
g2670
sg64
(lp2686
g57
(g58
g59
NtRp2687
(dp2688
g62
(dp2689
g70
I3
ssg71
g2683
sg64
(lp2690
g1050
asbasbasbag57
(g73
g59
NtRp2691
(dp2692
g62
(dp2693
sg71
g2645
sg64
(lp2694
g57
(g78
g59
NtRp2695
(dp2696
g62
(dp2697
g82
g83
ssg71
g2691
sg64
(lp2698
S'HTTP_ACCEPT_LANGUAGE'
p2699
asbag57
(g78
g59
NtRp2700
(dp2701
g62
(dp2702
g89
g90
ssg71
g2691
sg64
(lp2703
S':'
asbag57
(g78
g59
NtRp2704
(dp2705
g62
(dp2706
sg71
g2691
sg64
(lp2707
g57
(g58
g59
NtRp2708
(dp2709
g62
(dp2710
g70
I3
ssg71
g2704
sg64
(lp2711
g1072
asbasbasbag57
(g73
g59
NtRp2712
(dp2713
g62
(dp2714
sg71
g2645
sg64
(lp2715
g57
(g78
g59
NtRp2716
(dp2717
g62
(dp2718
g82
g83
ssg71
g2712
sg64
(lp2719
S'HTTP_CACHE_CONTROL'
p2720
asbag57
(g78
g59
NtRp2721
(dp2722
g62
(dp2723
g89
g90
ssg71
g2712
sg64
(lp2724
S':'
asbag57
(g78
g59
NtRp2725
(dp2726
g62
(dp2727
sg71
g2712
sg64
(lp2728
g57
(g58
g59
NtRp2729
(dp2730
g62
(dp2731
g70
I3
ssg71
g2725
sg64
(lp2732
g1094
asbasbasbag57
(g73
g59
NtRp2733
(dp2734
g62
(dp2735
sg71
g2645
sg64
(lp2736
g57
(g78
g59
NtRp2737
(dp2738
g62
(dp2739
g82
g83
ssg71
g2733
sg64
(lp2740
S'HTTP_CONNECTION'
p2741
asbag57
(g78
g59
NtRp2742
(dp2743
g62
(dp2744
g89
g90
ssg71
g2733
sg64
(lp2745
S':'
asbag57
(g78
g59
NtRp2746
(dp2747
g62
(dp2748
sg71
g2733
sg64
(lp2749
g57
(g58
g59
NtRp2750
(dp2751
g62
(dp2752
g70
I3
ssg71
g2746
sg64
(lp2753
g1116
asbasbasbag57
(g73
g59
NtRp2754
(dp2755
g62
(dp2756
sg71
g2645
sg64
(lp2757
g57
(g78
g59
NtRp2758
(dp2759
g62
(dp2760
g82
g83
ssg71
g2754
sg64
(lp2761
S'HTTP_COOKIE'
p2762
asbag57
(g78
g59
NtRp2763
(dp2764
g62
(dp2765
g89
g90
ssg71
g2754
sg64
(lp2766
S':'
asbag57
(g78
g59
NtRp2767
(dp2768
g62
(dp2769
sg71
g2754
sg64
(lp2770
g57
(g58
g59
NtRp2771
(dp2772
g62
(dp2773
g70
I3
ssg71
g2767
sg64
(lp2774
g1138
asbasbasbag57
(g73
g59
NtRp2775
(dp2776
g62
(dp2777
sg71
g2645
sg64
(lp2778
g57
(g78
g59
NtRp2779
(dp2780
g62
(dp2781
g82
g83
ssg71
g2775
sg64
(lp2782
S'HTTP_HOST'
p2783
asbag57
(g78
g59
NtRp2784
(dp2785
g62
(dp2786
g89
g90
ssg71
g2775
sg64
(lp2787
S':'
asbag57
(g78
g59
NtRp2788
(dp2789
g62
(dp2790
sg71
g2775
sg64
(lp2791
g57
(g58
g59
NtRp2792
(dp2793
g62
(dp2794
g70
I3
ssg71
g2788
sg64
(lp2795
g1160
asbasbasbag57
(g73
g59
NtRp2796
(dp2797
g62
(dp2798
sg71
g2645
sg64
(lp2799
g57
(g78
g59
NtRp2800
(dp2801
g62
(dp2802
g82
g83
ssg71
g2796
sg64
(lp2803
S'HTTP_REFERER'
p2804
asbag57
(g78
g59
NtRp2805
(dp2806
g62
(dp2807
g89
g90
ssg71
g2796
sg64
(lp2808
S':'
asbag57
(g78
g59
NtRp2809
(dp2810
g62
(dp2811
sg71
g2796
sg64
(lp2812
g57
(g58
g59
NtRp2813
(dp2814
g62
(dp2815
g70
I3
ssg71
g2809
sg64
(lp2816
g1182
asbasbasbag57
(g73
g59
NtRp2817
(dp2818
g62
(dp2819
sg71
g2645
sg64
(lp2820
g57
(g78
g59
NtRp2821
(dp2822
g62
(dp2823
g82
g83
ssg71
g2817
sg64
(lp2824
S'HTTP_USER_AGENT'
p2825
asbag57
(g78
g59
NtRp2826
(dp2827
g62
(dp2828
g89
g90
ssg71
g2817
sg64
(lp2829
S':'
asbag57
(g78
g59
NtRp2830
(dp2831
g62
(dp2832
sg71
g2817
sg64
(lp2833
g57
(g58
g59
NtRp2834
(dp2835
g62
(dp2836
g70
I3
ssg71
g2830
sg64
(lp2837
g1204
asbasbasbag57
(g73
g59
NtRp2838
(dp2839
g62
(dp2840
sg71
g2645
sg64
(lp2841
g57
(g78
g59
NtRp2842
(dp2843
g62
(dp2844
g82
g83
ssg71
g2838
sg64
(lp2845
S'PATH_INFO'
p2846
asbag57
(g78
g59
NtRp2847
(dp2848
g62
(dp2849
g89
g90
ssg71
g2838
sg64
(lp2850
S':'
asbag57
(g78
g59
NtRp2851
(dp2852
g62
(dp2853
sg71
g2838
sg64
(lp2854
g57
(g58
g59
NtRp2855
(dp2856
g62
(dp2857
g70
I3
ssg71
g2851
sg64
(lp2858
g1358
asbasbasbag57
(g73
g59
NtRp2859
(dp2860
g62
(dp2861
sg71
g2645
sg64
(lp2862
g57
(g78
g59
NtRp2863
(dp2864
g62
(dp2865
g82
g83
ssg71
g2859
sg64
(lp2866
S'QUERY_STRING'
p2867
asbag57
(g78
g59
NtRp2868
(dp2869
g62
(dp2870
g89
g90
ssg71
g2859
sg64
(lp2871
S':'
asbag57
(g78
g59
NtRp2872
(dp2873
g62
(dp2874
sg71
g2859
sg64
(lp2875
g57
(g58
g59
NtRp2876
(dp2877
g62
(dp2878
g70
I3
ssg71
g2872
sg64
(lp2879
S''
asbasbasbag57
(g73
g59
NtRp2880
(dp2881
g62
(dp2882
sg71
g2645
sg64
(lp2883
g57
(g78
g59
NtRp2884
(dp2885
g62
(dp2886
g82
g83
ssg71
g2880
sg64
(lp2887
S'REMOTE_ADDR'
p2888
asbag57
(g78
g59
NtRp2889
(dp2890
g62
(dp2891
g89
g90
ssg71
g2880
sg64
(lp2892
S':'
asbag57
(g78
g59
NtRp2893
(dp2894
g62
(dp2895
sg71
g2880
sg64
(lp2896
g57
(g58
g59
NtRp2897
(dp2898
g62
(dp2899
g70
I3
ssg71
g2893
sg64
(lp2900
g212
asbasbasbag57
(g73
g59
NtRp2901
(dp2902
g62
(dp2903
sg71
g2645
sg64
(lp2904
g57
(g78
g59
NtRp2905
(dp2906
g62
(dp2907
g82
g83
ssg71
g2901
sg64
(lp2908
S'REMOTE_PORT'
p2909
asbag57
(g78
g59
NtRp2910
(dp2911
g62
(dp2912
g89
g90
ssg71
g2901
sg64
(lp2913
S':'
asbag57
(g78
g59
NtRp2914
(dp2915
g62
(dp2916
sg71
g2901
sg64
(lp2917
g57
(g58
g59
NtRp2918
(dp2919
g62
(dp2920
g70
I3
ssg71
g2914
sg64
(lp2921
g1422
asbasbasbag57
(g73
g59
NtRp2922
(dp2923
g62
(dp2924
sg71
g2645
sg64
(lp2925
g57
(g78
g59
NtRp2926
(dp2927
g62
(dp2928
g82
g83
ssg71
g2922
sg64
(lp2929
S'REQUEST_METHOD'
p2930
asbag57
(g78
g59
NtRp2931
(dp2932
g62
(dp2933
g89
g90
ssg71
g2922
sg64
(lp2934
S':'
asbag57
(g78
g59
NtRp2935
(dp2936
g62
(dp2937
sg71
g2922
sg64
(lp2938
g57
(g58
g59
NtRp2939
(dp2940
g62
(dp2941
g70
I3
ssg71
g2935
sg64
(lp2942
g1444
asbasbasbag57
(g73
g59
NtRp2943
(dp2944
g62
(dp2945
sg71
g2645
sg64
(lp2946
g57
(g78
g59
NtRp2947
(dp2948
g62
(dp2949
g82
g83
ssg71
g2943
sg64
(lp2950
S'REQUEST_URI'
p2951
asbag57
(g78
g59
NtRp2952
(dp2953
g62
(dp2954
g89
g90
ssg71
g2943
sg64
(lp2955
S':'
asbag57
(g78
g59
NtRp2956
(dp2957
g62
(dp2958
sg71
g2943
sg64
(lp2959
g57
(g58
g59
NtRp2960
(dp2961
g62
(dp2962
g70
I3
ssg71
g2956
sg64
(lp2963
g1358
asbasbasbag57
(g73
g59
NtRp2964
(dp2965
g62
(dp2966
sg71
g2645
sg64
(lp2967
g57
(g78
g59
NtRp2968
(dp2969
g62
(dp2970
g82
g83
ssg71
g2964
sg64
(lp2971
S'SCRIPT_NAME'
p2972
asbag57
(g78
g59
NtRp2973
(dp2974
g62
(dp2975
g89
g90
ssg71
g2964
sg64
(lp2976
S':'
asbag57
(g78
g59
NtRp2977
(dp2978
g62
(dp2979
sg71
g2964
sg64
(lp2980
g57
(g58
g59
NtRp2981
(dp2982
g62
(dp2983
g70
I3
ssg71
g2977
sg64
(lp2984
S''
asbasbasbag57
(g73
g59
NtRp2985
(dp2986
g62
(dp2987
sg71
g2645
sg64
(lp2988
g57
(g78
g59
NtRp2989
(dp2990
g62
(dp2991
g82
g83
ssg71
g2985
sg64
(lp2992
S'SERVER_NAME'
p2993
asbag57
(g78
g59
NtRp2994
(dp2995
g62
(dp2996
g89
g90
ssg71
g2985
sg64
(lp2997
S':'
asbag57
(g78
g59
NtRp2998
(dp2999
g62
(dp3000
sg71
g2985
sg64
(lp3001
g57
(g58
g59
NtRp3002
(dp3003
g62
(dp3004
g70
I3
ssg71
g2998
sg64
(lp3005
g1508
asbasbasbag57
(g73
g59
NtRp3006
(dp3007
g62
(dp3008
sg71
g2645
sg64
(lp3009
g57
(g78
g59
NtRp3010
(dp3011
g62
(dp3012
g82
g83
ssg71
g3006
sg64
(lp3013
S'SERVER_PORT'
p3014
asbag57
(g78
g59
NtRp3015
(dp3016
g62
(dp3017
g89
g90
ssg71
g3006
sg64
(lp3018
S':'
asbag57
(g78
g59
NtRp3019
(dp3020
g62
(dp3021
sg71
g3006
sg64
(lp3022
g57
(g58
g59
NtRp3023
(dp3024
g62
(dp3025
g70
I3
ssg71
g3019
sg64
(lp3026
g1530
asbasbasbag57
(g73
g59
NtRp3027
(dp3028
g62
(dp3029
sg71
g2645
sg64
(lp3030
g57
(g78
g59
NtRp3031
(dp3032
g62
(dp3033
g82
g83
ssg71
g3027
sg64
(lp3034
S'SERVER_PROTOCOL'
p3035
asbag57
(g78
g59
NtRp3036
(dp3037
g62
(dp3038
g89
g90
ssg71
g3027
sg64
(lp3039
S':'
asbag57
(g78
g59
NtRp3040
(dp3041
g62
(dp3042
sg71
g3027
sg64
(lp3043
g57
(g58
g59
NtRp3044
(dp3045
g62
(dp3046
g70
I3
ssg71
g3040
sg64
(lp3047
g1552
asbasbasbag57
(g73
g59
NtRp3048
(dp3049
g62
(dp3050
sg71
g2645
sg64
(lp3051
g57
(g78
g59
NtRp3052
(dp3053
g62
(dp3054
g82
g83
ssg71
g3048
sg64
(lp3055
S'SERVER_SOFTWARE'
p3056
asbag57
(g78
g59
NtRp3057
(dp3058
g62
(dp3059
g89
g90
ssg71
g3048
sg64
(lp3060
S':'
asbag57
(g78
g59
NtRp3061
(dp3062
g62
(dp3063
sg71
g3048
sg64
(lp3064
g57
(g58
g59
NtRp3065
(dp3066
g62
(dp3067
g70
I3
ssg71
g3061
sg64
(lp3068
g1574
asbasbasbag57
(g73
g59
NtRp3069
(dp3070
g62
(dp3071
sg71
g2645
sg64
(lp3072
g57
(g78
g59
NtRp3073
(dp3074
g62
(dp3075
g82
g83
ssg71
g3069
sg64
(lp3076
S'wsgi.errors'
p3077
asbag57
(g78
g59
NtRp3078
(dp3079
g62
(dp3080
g89
g90
ssg71
g3069
sg64
(lp3081
S':'
asbag57
(g78
g59
NtRp3082
(dp3083
g62
(dp3084
sg71
g3069
sg64
(lp3085
g57
(g58
g59
NtRp3086
(dp3087
g62
(dp3088
g70
I3
ssg71
g3082
sg64
(lp3089
S"<open file '<stderr>', mode 'w' at 0xb749a0d0>"
p3090
asbasbasbag57
(g73
g59
NtRp3091
(dp3092
g62
(dp3093
sg71
g2645
sg64
(lp3094
g57
(g78
g59
NtRp3095
(dp3096
g62
(dp3097
g82
g83
ssg71
g3091
sg64
(lp3098
S'wsgi.file_wrapper'
p3099
asbag57
(g78
g59
NtRp3100
(dp3101
g62
(dp3102
g89
g90
ssg71
g3091
sg64
(lp3103
S':'
asbag57
(g78
g59
NtRp3104
(dp3105
g62
(dp3106
sg71
g3091
sg64
(lp3107
g57
(g58
g59
NtRp3108
(dp3109
g62
(dp3110
g70
I3
ssg71
g3104
sg64
(lp3111
S'<class wsgiref.util.FileWrapper at 0x9f61ecc>'
p3112
asbasbasbag57
(g73
g59
NtRp3113
(dp3114
g62
(dp3115
sg71
g2645
sg64
(lp3116
g57
(g78
g59
NtRp3117
(dp3118
g62
(dp3119
g82
g83
ssg71
g3113
sg64
(lp3120
S'wsgi.input'
p3121
asbag57
(g78
g59
NtRp3122
(dp3123
g62
(dp3124
g89
g90
ssg71
g3113
sg64
(lp3125
S':'
asbag57
(g78
g59
NtRp3126
(dp3127
g62
(dp3128
sg71
g3113
sg64
(lp3129
g57
(g58
g59
NtRp3130
(dp3131
g62
(dp3132
g70
I3
ssg71
g3126
sg64
(lp3133
S'<cStringIO.StringO object at 0xadc53ce0>'
p3134
asbasbasbag57
(g73
g59
NtRp3135
(dp3136
g62
(dp3137
sg71
g2645
sg64
(lp3138
g57
(g78
g59
NtRp3139
(dp3140
g62
(dp3141
g82
g83
ssg71
g3135
sg64
(lp3142
S'wsgi.multiprocess'
p3143
asbag57
(g78
g59
NtRp3144
(dp3145
g62
(dp3146
g89
g90
ssg71
g3135
sg64
(lp3147
S':'
asbag57
(g78
g59
NtRp3148
(dp3149
g62
(dp3150
sg71
g3135
sg64
(lp3151
g57
(g58
g59
NtRp3152
(dp3153
g62
(dp3154
g70
I3
ssg71
g3148
sg64
(lp3155
g100
asbasbasbag57
(g73
g59
NtRp3156
(dp3157
g62
(dp3158
sg71
g2645
sg64
(lp3159
g57
(g78
g59
NtRp3160
(dp3161
g62
(dp3162
g82
g83
ssg71
g3156
sg64
(lp3163
S'wsgi.multithread'
p3164
asbag57
(g78
g59
NtRp3165
(dp3166
g62
(dp3167
g89
g90
ssg71
g3156
sg64
(lp3168
S':'
asbag57
(g78
g59
NtRp3169
(dp3170
g62
(dp3171
sg71
g3156
sg64
(lp3172
g57
(g58
g59
NtRp3173
(dp3174
g62
(dp3175
g70
I3
ssg71
g3169
sg64
(lp3176
g1791
asbasbasbag57
(g73
g59
NtRp3177
(dp3178
g62
(dp3179
sg71
g2645
sg64
(lp3180
g57
(g78
g59
NtRp3181
(dp3182
g62
(dp3183
g82
g83
ssg71
g3177
sg64
(lp3184
S'wsgi.run_once'
p3185
asbag57
(g78
g59
NtRp3186
(dp3187
g62
(dp3188
g89
g90
ssg71
g3177
sg64
(lp3189
S':'
asbag57
(g78
g59
NtRp3190
(dp3191
g62
(dp3192
sg71
g3177
sg64
(lp3193
g57
(g58
g59
NtRp3194
(dp3195
g62
(dp3196
g70
I3
ssg71
g3190
sg64
(lp3197
g100
asbasbasbag57
(g73
g59
NtRp3198
(dp3199
g62
(dp3200
sg71
g2645
sg64
(lp3201
g57
(g78
g59
NtRp3202
(dp3203
g62
(dp3204
g82
g83
ssg71
g3198
sg64
(lp3205
S'wsgi.url_scheme'
p3206
asbag57
(g78
g59
NtRp3207
(dp3208
g62
(dp3209
g89
g90
ssg71
g3198
sg64
(lp3210
S':'
asbag57
(g78
g59
NtRp3211
(dp3212
g62
(dp3213
sg71
g3198
sg64
(lp3214
g57
(g58
g59
NtRp3215
(dp3216
g62
(dp3217
g70
I3
ssg71
g3211
sg64
(lp3218
g1834
asbasbasbag57
(g73
g59
NtRp3219
(dp3220
g62
(dp3221
sg71
g2645
sg64
(lp3222
g57
(g78
g59
NtRp3223
(dp3224
g62
(dp3225
g82
g83
ssg71
g3219
sg64
(lp3226
S'wsgi.version'
p3227
asbag57
(g78
g59
NtRp3228
(dp3229
g62
(dp3230
g89
g90
ssg71
g3219
sg64
(lp3231
S':'
asbag57
(g78
g59
NtRp3232
(dp3233
g62
(dp3234
sg71
g3219
sg64
(lp3235
g57
(g58
g59
NtRp3236
(dp3237
g62
(dp3238
g70
I3
ssg71
g3232
sg64
(lp3239
S'1'
asbasbasbasbasbasbasbasbasbasbasbasbasbsS'frames'
p3240
(lp3241
(dp3242
S'file'
p3243
S'/home/gaurav/classwork/WEB_PROGRAMMING/web2py/gluon/restricted.py'
p3244
sS'dump'
p3245
(dp3246
S'environment'
p3247
S"{'A': <class 'gluon.html.A'>, 'Auth': <class 'gluon.tools.Auth'>, 'B': <class 'gluon.html.B'>, 'BEAUTIFY': <class 'gluon.html.BEAUTIFY'>, 'BODY': <class 'gluon.html.BODY'>, 'BR': <class 'gluon.html.BR'>, 'BUTTON': <class 'gluon.html.BUTTON'>, 'CAT': <class 'gluon.html.CAT'>, 'CENTER': <class 'gluon.html.CENTER'>, 'CLEANUP': <class 'gluon.validators.CLEANUP'>, ...}"
p3248
sS'ccode'
p3249
S'<code object <module> at 0xae33b020, file "/home...lineExamination/controllers/default.py", line 13>'
p3250
ssS'lnum'
p3251
I212
sS'lines'
p3252
(dp3253
I207
S'    try:'
p3254
sI208
S'        if isinstance(code, types.CodeType):'
p3255
sI209
S'            ccode = code'
p3256
sI210
S'        else:'
p3257
sI211
S'            ccode = compile2(code, layer)'
p3258
sI212
S'        exec ccode in environment'
p3259
sI213
S'    except HTTP:'
p3260
sI214
S'        raise'
p3261
sI215
S'    except RestrictedError:'
p3262
sI216
S'        # do not encapsulate (obfuscate) the original RestrictedError'
p3263
ssS'call'
p3264
S"(code='# -*- coding: utf-8 -*-\\n# this file is released ...orm=form)\\n\\nresponse._vars=response._caller(exam)\\n', environment={'A': <class 'gluon.html.A'>, 'Auth': <class 'gluon.tools.Auth'>, 'B': <class 'gluon.html.B'>, 'BEAUTIFY': <class 'gluon.html.BEAUTIFY'>, 'BODY': <class 'gluon.html.BODY'>, 'BR': <class 'gluon.html.BR'>, 'BUTTON': <class 'gluon.html.BUTTON'>, 'CAT': <class 'gluon.html.CAT'>, 'CENTER': <class 'gluon.html.CENTER'>, 'CLEANUP': <class 'gluon.validators.CLEANUP'>, ...}, layer='/home/gaurav/classwork/WEB_PROGRAMMING/web2py/applications/OnlineExamination/controllers/default.py')"
p3265
sS'func'
p3266
S'restricted'
p3267
sa(dp3268
g3243
S'/home/gaurav/classwork/WEB_PROGRAMMING/web2py/applications/OnlineExamination/controllers/default.py'
p3269
sg3245
(dp3270
sg3251
I319
sg3252
(dp3271
I308
S'     return locals()'
p3272
sI309
S''
sI310
S''
sI311
S'@auth.requires_login()'
p3273
sI312
S"@auth.requires_membership('IIIT_FACULTY_DEPARTMENT')"
p3274
sI313
S'def set_time():'
p3275
sI314
S'     form=SQLFORM(db.times)'
p3276
sI315
S'     if (form.accepts(request,session)):'
p3277
sI316
S'\t  response.flash="Time Setted"'
p3278
sI317
S'     return dict(form=form)'
p3279
ssg3264
S'()'
p3280
sg3266
S'<module>'
p3281
sa(dp3282
g3243
S'/home/gaurav/classwork/WEB_PROGRAMMING/web2py/gluon/globals.py'
p3283
sg3245
(dp3284
S'self'
p3285
S'undefined'
p3286
sS'f'
S'<function exam>'
p3287
ssg3251
I193
sg3252
(dp3288
I192
S'        self._vars = None'
p3289
sI193
S'        self._caller = lambda f: f()'
p3290
sI194
S'        self._view_environment = None'
p3291
sI195
S'        self._custom_commit = None'
p3292
sI196
S'        self._custom_rollback = None'
p3293
sI197
S''
sI188
S'        self.menu = []             # used by the default view layout'
p3294
sI189
S'        self.files = []            # used by web2py_ajax.html'
p3295
sI190
S'        self.generic_patterns = []  # patterns to allow generic views'
p3296
sI191
S"        self.delimiters = ('{{', '}}')"
p3297
ssg3264
S'(f=<function exam>)'
p3298
sg3266
S'<lambda>'
p3299
sa(dp3300
g3243
S'/home/gaurav/classwork/WEB_PROGRAMMING/web2py/gluon/tools.py'
p3301
sg3245
(dp3302
S'action'
p3303
S'<function exam>'
p3304
sS'a'
S'()'
p3305
sS'b'
g45
ssg3251
I2929
sg3252
(dp3306
I2924
S'                    flag = condition'
p3307
sI2925
S'                if not flag:'
p3308
sI2926
S'                    current.session.flash = self.messages.access_denied'
p3309
sI2927
S'                    return call_or_redirect('
p3310
sI2928
S'                        self.settings.on_failed_authorization)'
p3311
sI2929
S'                return action(*a, **b)'
p3312
sI2930
S'            f.__doc__ = action.__doc__'
p3313
sI2931
S'            f.__name__ = action.__name__'
p3314
sI2932
S'            f.__dict__.update(action.__dict__)'
p3315
sI2933
S'            return f'
p3316
ssg3264
S'(*a=(), **b={})'
p3317
sg3266
S'f'
sa(dp3318
g3243
S'/home/gaurav/classwork/WEB_PROGRAMMING/web2py/applications/OnlineExamination/controllers/default.py'
p3319
sg3245
(dp3320
S'x'
S'1'
sS'end_times'
p3321
S'datetime.time(22, 21, 11)'
p3322
ssg3251
I142
sg3252
(dp3323
I137
S'     x=db(db.see.id==8).select(db.see.course)'
p3324
sI138
S"     x=x[0]['course']"
p3325
sI139
S''
sI140
S'     end_times=db(db.times.course==x).select(db.times.end_time)'
p3326
sI141
S"     end_times=end_times[0]['end_time']"
p3327
sI142
S'     if(x>=end_times):'
p3328
sI143
S"\tprint 'gaurav'"
p3329
sI144
S''
sI145
S'     k=db(auth.user.email==db.student.email).select(db.student.email)'
p3330
sI146
S'     if k:'
p3331
ssg3264
S'()'
p3332
sg3266
S'exam'
p3333
sasS'pyver'
p3334
S'Python 2.7.3: /usr/bin/python'
p3335
sS'session'
p3336
g57
(g58
g59
NtRp3337
(dp3338
g62
(dp3339
sg64
(lp3340
g57
(g66
g59
NtRp3341
(dp3342
g62
(dp3343
g70
I5
ssg71
Nsg64
(lp3344
g57
(g73
g59
NtRp3345
(dp3346
g62
(dp3347
sg71
g3341
sg64
(lp3348
g57
(g78
g59
NtRp3349
(dp3350
g62
(dp3351
g82
g83
ssg71
g3345
sg64
(lp3352
S'auth'
p3353
asbag57
(g78
g59
NtRp3354
(dp3355
g62
(dp3356
g89
g90
ssg71
g3345
sg64
(lp3357
S':'
asbag57
(g78
g59
NtRp3358
(dp3359
g62
(dp3360
sg71
g3345
sg64
(lp3361
g57
(g58
g59
NtRp3362
(dp3363
g62
(dp3364
g70
I5
ssg71
g3358
sg64
(lp3365
g57
(g66
g59
NtRp3366
(dp3367
g62
(dp3368
g70
I4
ssg71
Nsg64
(lp3369
g57
(g73
g59
NtRp3370
(dp3371
g62
(dp3372
sg71
g3366
sg64
(lp3373
g57
(g78
g59
NtRp3374
(dp3375
g62
(dp3376
g82
g83
ssg71
g3370
sg64
(lp3377
S'expiration'
p3378
asbag57
(g78
g59
NtRp3379
(dp3380
g62
(dp3381
g89
g90
ssg71
g3370
sg64
(lp3382
S':'
asbag57
(g78
g59
NtRp3383
(dp3384
g62
(dp3385
sg71
g3370
sg64
(lp3386
g57
(g58
g59
NtRp3387
(dp3388
g62
(dp3389
g70
I4
ssg71
g3383
sg64
(lp3390
S'3600'
p3391
asbasbasbag57
(g73
g59
NtRp3392
(dp3393
g62
(dp3394
sg71
g3366
sg64
(lp3395
g57
(g78
g59
NtRp3396
(dp3397
g62
(dp3398
g82
g83
ssg71
g3392
sg64
(lp3399
S'hmac_key'
p3400
asbag57
(g78
g59
NtRp3401
(dp3402
g62
(dp3403
g89
g90
ssg71
g3392
sg64
(lp3404
S':'
asbag57
(g78
g59
NtRp3405
(dp3406
g62
(dp3407
sg71
g3392
sg64
(lp3408
g57
(g58
g59
NtRp3409
(dp3410
g62
(dp3411
g70
I4
ssg71
g3405
sg64
(lp3412
S'f6644e3c-a697-4986-9094-36d125310bba'
p3413
asbasbasbag57
(g73
g59
NtRp3414
(dp3415
g62
(dp3416
sg71
g3366
sg64
(lp3417
g57
(g78
g59
NtRp3418
(dp3419
g62
(dp3420
g82
g83
ssg71
g3414
sg64
(lp3421
S'last_visit'
p3422
asbag57
(g78
g59
NtRp3423
(dp3424
g62
(dp3425
g89
g90
ssg71
g3414
sg64
(lp3426
S':'
asbag57
(g78
g59
NtRp3427
(dp3428
g62
(dp3429
sg71
g3414
sg64
(lp3430
g57
(g58
g59
NtRp3431
(dp3432
g62
(dp3433
g70
I4
ssg71
g3427
sg64
(lp3434
S'datetime.datetime(2013, 4, 14, 19, 20, 27, 770114)'
p3435
asbasbasbag57
(g73
g59
NtRp3436
(dp3437
g62
(dp3438
sg71
g3366
sg64
(lp3439
g57
(g78
g59
NtRp3440
(dp3441
g62
(dp3442
g82
g83
ssg71
g3436
sg64
(lp3443
S'remember'
p3444
asbag57
(g78
g59
NtRp3445
(dp3446
g62
(dp3447
g89
g90
ssg71
g3436
sg64
(lp3448
S':'
asbag57
(g78
g59
NtRp3449
(dp3450
g62
(dp3451
sg71
g3436
sg64
(lp3452
g57
(g58
g59
NtRp3453
(dp3454
g62
(dp3455
g70
I4
ssg71
g3449
sg64
(lp3456
g100
asbasbasbag57
(g73
g59
NtRp3457
(dp3458
g62
(dp3459
sg71
g3366
sg64
(lp3460
g57
(g78
g59
NtRp3461
(dp3462
g62
(dp3463
g82
g83
ssg71
g3457
sg64
(lp3464
S'user'
p3465
asbag57
(g78
g59
NtRp3466
(dp3467
g62
(dp3468
g89
g90
ssg71
g3457
sg64
(lp3469
S':'
asbag57
(g78
g59
NtRp3470
(dp3471
g62
(dp3472
sg71
g3457
sg64
(lp3473
g57
(g58
g59
NtRp3474
(dp3475
g62
(dp3476
g70
I4
ssg71
g3470
sg64
(lp3477
g57
(g66
g59
NtRp3478
(dp3479
g62
(dp3480
g70
I3
ssg71
Nsg64
(lp3481
g57
(g73
g59
NtRp3482
(dp3483
g62
(dp3484
sg71
g3478
sg64
(lp3485
g57
(g78
g59
NtRp3486
(dp3487
g62
(dp3488
g82
g83
ssg71
g3482
sg64
(lp3489
S'email'
p3490
asbag57
(g78
g59
NtRp3491
(dp3492
g62
(dp3493
g89
g90
ssg71
g3482
sg64
(lp3494
S':'
asbag57
(g78
g59
NtRp3495
(dp3496
g62
(dp3497
sg71
g3482
sg64
(lp3498
g57
(g58
g59
NtRp3499
(dp3500
g62
(dp3501
g70
I3
ssg71
g3495
sg64
(lp3502
S'ggg@ggg.com'
p3503
asbasbasbag57
(g73
g59
NtRp3504
(dp3505
g62
(dp3506
sg71
g3478
sg64
(lp3507
g57
(g78
g59
NtRp3508
(dp3509
g62
(dp3510
g82
g83
ssg71
g3504
sg64
(lp3511
S'first_name'
p3512
asbag57
(g78
g59
NtRp3513
(dp3514
g62
(dp3515
g89
g90
ssg71
g3504
sg64
(lp3516
S':'
asbag57
(g78
g59
NtRp3517
(dp3518
g62
(dp3519
sg71
g3504
sg64
(lp3520
g57
(g58
g59
NtRp3521
(dp3522
g62
(dp3523
g70
I3
ssg71
g3517
sg64
(lp3524
S'gaurav'
p3525
asbasbasbag57
(g73
g59
NtRp3526
(dp3527
g62
(dp3528
sg71
g3478
sg64
(lp3529
g57
(g78
g59
NtRp3530
(dp3531
g62
(dp3532
g82
g83
ssg71
g3526
sg64
(lp3533
S'id'
p3534
asbag57
(g78
g59
NtRp3535
(dp3536
g62
(dp3537
g89
g90
ssg71
g3526
sg64
(lp3538
S':'
asbag57
(g78
g59
NtRp3539
(dp3540
g62
(dp3541
sg71
g3526
sg64
(lp3542
g57
(g58
g59
NtRp3543
(dp3544
g62
(dp3545
g70
I3
ssg71
g3539
sg64
(lp3546
S'33'
p3547
asbasbasbag57
(g73
g59
NtRp3548
(dp3549
g62
(dp3550
sg71
g3478
sg64
(lp3551
g57
(g78
g59
NtRp3552
(dp3553
g62
(dp3554
g82
g83
ssg71
g3548
sg64
(lp3555
S'last_name'
p3556
asbag57
(g78
g59
NtRp3557
(dp3558
g62
(dp3559
g89
g90
ssg71
g3548
sg64
(lp3560
S':'
asbag57
(g78
g59
NtRp3561
(dp3562
g62
(dp3563
sg71
g3548
sg64
(lp3564
g57
(g58
g59
NtRp3565
(dp3566
g62
(dp3567
g70
I3
ssg71
g3561
sg64
(lp3568
S'mishra'
p3569
asbasbasbag57
(g73
g59
NtRp3570
(dp3571
g62
(dp3572
sg71
g3478
sg64
(lp3573
g57
(g78
g59
NtRp3574
(dp3575
g62
(dp3576
g82
g83
ssg71
g3570
sg64
(lp3577
S'registration_id'
p3578
asbag57
(g78
g59
NtRp3579
(dp3580
g62
(dp3581
g89
g90
ssg71
g3570
sg64
(lp3582
S':'
asbag57
(g78
g59
NtRp3583
(dp3584
g62
(dp3585
sg71
g3570
sg64
(lp3586
g57
(g58
g59
NtRp3587
(dp3588
g62
(dp3589
g70
I3
ssg71
g3583
sg64
(lp3590
S''
asbasbasbag57
(g73
g59
NtRp3591
(dp3592
g62
(dp3593
sg71
g3478
sg64
(lp3594
g57
(g78
g59
NtRp3595
(dp3596
g62
(dp3597
g82
g83
ssg71
g3591
sg64
(lp3598
S'registration_key'
p3599
asbag57
(g78
g59
NtRp3600
(dp3601
g62
(dp3602
g89
g90
ssg71
g3591
sg64
(lp3603
S':'
asbag57
(g78
g59
NtRp3604
(dp3605
g62
(dp3606
sg71
g3591
sg64
(lp3607
g57
(g58
g59
NtRp3608
(dp3609
g62
(dp3610
g70
I3
ssg71
g3604
sg64
(lp3611
S''
asbasbasbag57
(g73
g59
NtRp3612
(dp3613
g62
(dp3614
sg71
g3478
sg64
(lp3615
g57
(g78
g59
NtRp3616
(dp3617
g62
(dp3618
g82
g83
ssg71
g3612
sg64
(lp3619
S'reset_password_key'
p3620
asbag57
(g78
g59
NtRp3621
(dp3622
g62
(dp3623
g89
g90
ssg71
g3612
sg64
(lp3624
S':'
asbag57
(g78
g59
NtRp3625
(dp3626
g62
(dp3627
sg71
g3612
sg64
(lp3628
g57
(g58
g59
NtRp3629
(dp3630
g62
(dp3631
g70
I3
ssg71
g3625
sg64
(lp3632
S''
asbasbasbasbasbasbasbag57
(g73
g59
NtRp3633
(dp3634
g62
(dp3635
sg71
g3366
sg64
(lp3636
g57
(g78
g59
NtRp3637
(dp3638
g62
(dp3639
g82
g83
ssg71
g3633
sg64
(lp3640
S'user_groups'
p3641
asbag57
(g78
g59
NtRp3642
(dp3643
g62
(dp3644
g89
g90
ssg71
g3633
sg64
(lp3645
S':'
asbag57
(g78
g59
NtRp3646
(dp3647
g62
(dp3648
sg71
g3633
sg64
(lp3649
g57
(g58
g59
NtRp3650
(dp3651
g62
(dp3652
g70
I4
ssg71
g3646
sg64
(lp3653
g57
(g66
g59
NtRp3654
(dp3655
g62
(dp3656
g70
I3
ssg71
Nsg64
(lp3657
g57
(g73
g59
NtRp3658
(dp3659
g62
(dp3660
sg71
g3654
sg64
(lp3661
g57
(g78
g59
NtRp3662
(dp3663
g62
(dp3664
g82
g83
ssg71
g3658
sg64
(lp3665
S'34'
p3666
asbag57
(g78
g59
NtRp3667
(dp3668
g62
(dp3669
g89
g90
ssg71
g3658
sg64
(lp3670
S':'
asbag57
(g78
g59
NtRp3671
(dp3672
g62
(dp3673
sg71
g3658
sg64
(lp3674
g57
(g58
g59
NtRp3675
(dp3676
g62
(dp3677
g70
I3
ssg71
g3671
sg64
(lp3678
S'user_33'
p3679
asbasbasbasbasbasbasbasbasbasbasbag57
(g73
g59
NtRp3680
(dp3681
g62
(dp3682
sg71
g3341
sg64
(lp3683
g57
(g78
g59
NtRp3684
(dp3685
g62
(dp3686
g82
g83
ssg71
g3680
sg64
(lp3687
S'flash'
p3688
asbag57
(g78
g59
NtRp3689
(dp3690
g62
(dp3691
g89
g90
ssg71
g3680
sg64
(lp3692
S':'
asbag57
(g78
g59
NtRp3693
(dp3694
g62
(dp3695
sg71
g3680
sg64
(lp3696
g57
(g58
g59
NtRp3697
(dp3698
g62
(dp3699
g70
I5
ssg71
g3693
sg64
(lp3700
S'None'
p3701
asbasbasbag57
(g73
g59
NtRp3702
(dp3703
g62
(dp3704
sg71
g3341
sg64
(lp3705
g57
(g78
g59
NtRp3706
(dp3707
g62
(dp3708
g82
g83
ssg71
g3702
sg64
(lp3709
S'last_orderby'
p3710
asbag57
(g78
g59
NtRp3711
(dp3712
g62
(dp3713
g89
g90
ssg71
g3702
sg64
(lp3714
S':'
asbag57
(g78
g59
NtRp3715
(dp3716
g62
(dp3717
sg71
g3702
sg64
(lp3718
g57
(g58
g59
NtRp3719
(dp3720
g62
(dp3721
g70
I5
ssg71
g3715
sg64
(lp3722
S'None'
p3723
asbasbasbag57
(g73
g59
NtRp3724
(dp3725
g62
(dp3726
sg71
g3341
sg64
(lp3727
g57
(g78
g59
NtRp3728
(dp3729
g62
(dp3730
g82
g83
ssg71
g3724
sg64
(lp3731
S'last_query'
p3732
asbag57
(g78
g59
NtRp3733
(dp3734
g62
(dp3735
g89
g90
ssg71
g3724
sg64
(lp3736
S':'
asbag57
(g78
g59
NtRp3737
(dp3738
g62
(dp3739
sg71
g3724
sg64
(lp3740
g57
(g58
g59
NtRp3741
(dp3742
g62
(dp3743
g70
I5
ssg71
g3737
sg64
(lp3744
S'db.times.id>0'
p3745
asbasbasbasbasbsS'etype'
p3746
S"<type 'exceptions.TypeError'>"
p3747
sS'date'
p3748
S'Sun Apr 14 19:25:26 2013'
p3749
sS'response'
p3750
g57
(g58
g59
NtRp3751
(dp3752
g62
(dp3753
sg64
(lp3754
g57
(g66
g59
NtRp3755
(dp3756
g62
(dp3757
g70
I5
ssg71
Nsg64
(lp3758
g57
(g73
g59
NtRp3759
(dp3760
g62
(dp3761
sg71
g3755
sg64
(lp3762
g57
(g78
g59
NtRp3763
(dp3764
g62
(dp3765
g82
g83
ssg71
g3759
sg64
(lp3766
g155
asbag57
(g78
g59
NtRp3767
(dp3768
g62
(dp3769
g89
g90
ssg71
g3759
sg64
(lp3770
S':'
asbag57
(g78
g59
NtRp3771
(dp3772
g62
(dp3773
sg71
g3759
sg64
(lp3774
g57
(g58
g59
NtRp3775
(dp3776
g62
(dp3777
g70
I5
ssg71
g3771
sg64
(lp3778
S'<cStringIO.StringO object at 0xae185a60>'
p3779
asbasbasbag57
(g73
g59
NtRp3780
(dp3781
g62
(dp3782
sg71
g3755
sg64
(lp3783
g57
(g78
g59
NtRp3784
(dp3785
g62
(dp3786
g82
g83
ssg71
g3780
sg64
(lp3787
g243
asbag57
(g78
g59
NtRp3788
(dp3789
g62
(dp3790
g89
g90
ssg71
g3780
sg64
(lp3791
S':'
asbag57
(g78
g59
NtRp3792
(dp3793
g62
(dp3794
sg71
g3780
sg64
(lp3795
g57
(g58
g59
NtRp3796
(dp3797
g62
(dp3798
g70
I5
ssg71
g3792
sg64
(lp3799
g57
(g66
g59
NtRp3800
(dp3801
g62
(dp3802
g70
I4
ssg71
Nsg64
(lp3803
g57
(g73
g59
NtRp3804
(dp3805
g62
(dp3806
sg71
g3800
sg64
(lp3807
g57
(g78
g59
NtRp3808
(dp3809
g62
(dp3810
g82
g83
ssg71
g3804
sg64
(lp3811
S'session_id_onlineexamination'
p3812
asbag57
(g78
g59
NtRp3813
(dp3814
g62
(dp3815
g89
g90
ssg71
g3804
sg64
(lp3816
S':'
asbag57
(g78
g59
NtRp3817
(dp3818
g62
(dp3819
sg71
g3804
sg64
(lp3820
g57
(g58
g59
NtRp3821
(dp3822
g62
(dp3823
g70
I4
ssg71
g3817
sg64
(lp3824
g475
ag57
(g66
g59
NtRp3825
(dp3826
g62
(dp3827
g70
I3
ssg71
Nsg64
(lp3828
g57
(g73
g59
NtRp3829
(dp3830
g62
(dp3831
sg71
g3825
sg64
(lp3832
g57
(g78
g59
NtRp3833
(dp3834
g62
(dp3835
g82
g83
ssg71
g3829
sg64
(lp3836
g294
asbag57
(g78
g59
NtRp3837
(dp3838
g62
(dp3839
g89
g90
ssg71
g3829
sg64
(lp3840
S':'
asbag57
(g78
g59
NtRp3841
(dp3842
g62
(dp3843
sg71
g3829
sg64
(lp3844
g57
(g58
g59
NtRp3845
(dp3846
g62
(dp3847
g70
I3
ssg71
g3841
sg64
(lp3848
S''
asbasbasbag57
(g73
g59
NtRp3849
(dp3850
g62
(dp3851
sg71
g3825
sg64
(lp3852
g57
(g78
g59
NtRp3853
(dp3854
g62
(dp3855
g82
g83
ssg71
g3849
sg64
(lp3856
g315
asbag57
(g78
g59
NtRp3857
(dp3858
g62
(dp3859
g89
g90
ssg71
g3849
sg64
(lp3860
S':'
asbag57
(g78
g59
NtRp3861
(dp3862
g62
(dp3863
sg71
g3849
sg64
(lp3864
g57
(g58
g59
NtRp3865
(dp3866
g62
(dp3867
g70
I3
ssg71
g3861
sg64
(lp3868
S''
asbasbasbag57
(g73
g59
NtRp3869
(dp3870
g62
(dp3871
sg71
g3825
sg64
(lp3872
g57
(g78
g59
NtRp3873
(dp3874
g62
(dp3875
g82
g83
ssg71
g3869
sg64
(lp3876
g336
asbag57
(g78
g59
NtRp3877
(dp3878
g62
(dp3879
g89
g90
ssg71
g3869
sg64
(lp3880
S':'
asbag57
(g78
g59
NtRp3881
(dp3882
g62
(dp3883
sg71
g3869
sg64
(lp3884
g57
(g58
g59
NtRp3885
(dp3886
g62
(dp3887
g70
I3
ssg71
g3881
sg64
(lp3888
S''
asbasbasbag57
(g73
g59
NtRp3889
(dp3890
g62
(dp3891
sg71
g3825
sg64
(lp3892
g57
(g78
g59
NtRp3893
(dp3894
g62
(dp3895
g82
g83
ssg71
g3889
sg64
(lp3896
g357
asbag57
(g78
g59
NtRp3897
(dp3898
g62
(dp3899
g89
g90
ssg71
g3889
sg64
(lp3900
S':'
asbag57
(g78
g59
NtRp3901
(dp3902
g62
(dp3903
sg71
g3889
sg64
(lp3904
g57
(g58
g59
NtRp3905
(dp3906
g62
(dp3907
g70
I3
ssg71
g3901
sg64
(lp3908
S''
asbasbasbag57
(g73
g59
NtRp3909
(dp3910
g62
(dp3911
sg71
g3825
sg64
(lp3912
g57
(g78
g59
NtRp3913
(dp3914
g62
(dp3915
g82
g83
ssg71
g3909
sg64
(lp3916
g378
asbag57
(g78
g59
NtRp3917
(dp3918
g62
(dp3919
g89
g90
ssg71
g3909
sg64
(lp3920
S':'
asbag57
(g78
g59
NtRp3921
(dp3922
g62
(dp3923
sg71
g3909
sg64
(lp3924
g57
(g58
g59
NtRp3925
(dp3926
g62
(dp3927
g70
I3
ssg71
g3921
sg64
(lp3928
S''
asbasbasbag57
(g73
g59
NtRp3929
(dp3930
g62
(dp3931
sg71
g3825
sg64
(lp3932
g57
(g78
g59
NtRp3933
(dp3934
g62
(dp3935
g82
g83
ssg71
g3929
sg64
(lp3936
g399
asbag57
(g78
g59
NtRp3937
(dp3938
g62
(dp3939
g89
g90
ssg71
g3929
sg64
(lp3940
S':'
asbag57
(g78
g59
NtRp3941
(dp3942
g62
(dp3943
sg71
g3929
sg64
(lp3944
g57
(g58
g59
NtRp3945
(dp3946
g62
(dp3947
g70
I3
ssg71
g3941
sg64
(lp3948
S'/'
asbasbasbag57
(g73
g59
NtRp3949
(dp3950
g62
(dp3951
sg71
g3825
sg64
(lp3952
g57
(g78
g59
NtRp3953
(dp3954
g62
(dp3955
g82
g83
ssg71
g3949
sg64
(lp3956
g420
asbag57
(g78
g59
NtRp3957
(dp3958
g62
(dp3959
g89
g90
ssg71
g3949
sg64
(lp3960
S':'
asbag57
(g78
g59
NtRp3961
(dp3962
g62
(dp3963
sg71
g3949
sg64
(lp3964
g57
(g58
g59
NtRp3965
(dp3966
g62
(dp3967
g70
I3
ssg71
g3961
sg64
(lp3968
S''
asbasbasbag57
(g73
g59
NtRp3969
(dp3970
g62
(dp3971
sg71
g3825
sg64
(lp3972
g57
(g78
g59
NtRp3973
(dp3974
g62
(dp3975
g82
g83
ssg71
g3969
sg64
(lp3976
g441
asbag57
(g78
g59
NtRp3977
(dp3978
g62
(dp3979
g89
g90
ssg71
g3969
sg64
(lp3980
S':'
asbag57
(g78
g59
NtRp3981
(dp3982
g62
(dp3983
sg71
g3969
sg64
(lp3984
g57
(g58
g59
NtRp3985
(dp3986
g62
(dp3987
g70
I3
ssg71
g3981
sg64
(lp3988
S''
asbasbasbasbasbasbasbasbasbasbasbag57
(g73
g59
NtRp3989
(dp3990
g62
(dp3991
sg71
g3755
sg64
(lp3992
g57
(g78
g59
NtRp3993
(dp3994
g62
(dp3995
g82
g83
ssg71
g3989
sg64
(lp3996
S'delimiters'
p3997
asbag57
(g78
g59
NtRp3998
(dp3999
g62
(dp4000
g89
g90
ssg71
g3989
sg64
(lp4001
S':'
asbag57
(g78
g59
NtRp4002
(dp4003
g62
(dp4004
sg71
g3989
sg64
(lp4005
g57
(g58
g59
NtRp4006
(dp4007
g62
(dp4008
g70
I5
ssg71
g4002
sg64
(lp4009
g57
(g66
g59
NtRp4010
(dp4011
g62
(dp4012
g70
I4
ssg71
Nsg64
(lp4013
g57
(g73
g59
NtRp4014
(dp4015
g62
(dp4016
sg71
g4010
sg64
(lp4017
g57
(g78
g59
NtRp4018
(dp4019
g62
(dp4020
sg71
g4014
sg64
(lp4021
g57
(g58
g59
NtRp4022
(dp4023
g62
(dp4024
g70
I4
ssg71
g4018
sg64
(lp4025
S'{{'
p4026
asbasbasbag57
(g73
g59
NtRp4027
(dp4028
g62
(dp4029
sg71
g4010
sg64
(lp4030
g57
(g78
g59
NtRp4031
(dp4032
g62
(dp4033
sg71
g4027
sg64
(lp4034
g57
(g58
g59
NtRp4035
(dp4036
g62
(dp4037
g70
I4
ssg71
g4031
sg64
(lp4038
S'}}'
p4039
asbasbasbasbasbasbasbag57
(g73
g59
NtRp4040
(dp4041
g62
(dp4042
sg71
g3755
sg64
(lp4043
g57
(g78
g59
NtRp4044
(dp4045
g62
(dp4046
g82
g83
ssg71
g4040
sg64
(lp4047
S'files'
p4048
asbag57
(g78
g59
NtRp4049
(dp4050
g62
(dp4051
g89
g90
ssg71
g4040
sg64
(lp4052
S':'
asbag57
(g78
g59
NtRp4053
(dp4054
g62
(dp4055
sg71
g4040
sg64
(lp4056
g57
(g58
g59
NtRp4057
(dp4058
g62
(dp4059
g70
I5
ssg71
g4053
sg64
(lp4060
g57
(g66
g59
NtRp4061
(dp4062
g62
(dp4063
g70
I4
ssg71
Nsg64
(lp4064
sbasbasbasbag57
(g73
g59
NtRp4065
(dp4066
g62
(dp4067
sg71
g3755
sg64
(lp4068
g57
(g78
g59
NtRp4069
(dp4070
g62
(dp4071
g82
g83
ssg71
g4065
sg64
(lp4072
S'flash'
p4073
asbag57
(g78
g59
NtRp4074
(dp4075
g62
(dp4076
g89
g90
ssg71
g4065
sg64
(lp4077
S':'
asbag57
(g78
g59
NtRp4078
(dp4079
g62
(dp4080
sg71
g4065
sg64
(lp4081
g57
(g58
g59
NtRp4082
(dp4083
g62
(dp4084
g70
I5
ssg71
g4078
sg64
(lp4085
S''
asbasbasbag57
(g73
g59
NtRp4086
(dp4087
g62
(dp4088
sg71
g3755
sg64
(lp4089
g57
(g78
g59
NtRp4090
(dp4091
g62
(dp4092
g82
g83
ssg71
g4086
sg64
(lp4093
S'generic_patterns'
p4094
asbag57
(g78
g59
NtRp4095
(dp4096
g62
(dp4097
g89
g90
ssg71
g4086
sg64
(lp4098
S':'
asbag57
(g78
g59
NtRp4099
(dp4100
g62
(dp4101
sg71
g4086
sg64
(lp4102
g57
(g58
g59
NtRp4103
(dp4104
g62
(dp4105
g70
I5
ssg71
g4099
sg64
(lp4106
g57
(g66
g59
NtRp4107
(dp4108
g62
(dp4109
g70
I4
ssg71
Nsg64
(lp4110
g57
(g73
g59
NtRp4111
(dp4112
g62
(dp4113
sg71
g4107
sg64
(lp4114
g57
(g78
g59
NtRp4115
(dp4116
g62
(dp4117
sg71
g4111
sg64
(lp4118
g57
(g58
g59
NtRp4119
(dp4120
g62
(dp4121
g70
I4
ssg71
g4115
sg64
(lp4122
S'*'
asbasbasbasbasbasbasbag57
(g73
g59
NtRp4123
(dp4124
g62
(dp4125
sg71
g3755
sg64
(lp4126
g57
(g78
g59
NtRp4127
(dp4128
g62
(dp4129
g82
g83
ssg71
g4123
sg64
(lp4130
S'google_analytics_id'
p4131
asbag57
(g78
g59
NtRp4132
(dp4133
g62
(dp4134
g89
g90
ssg71
g4123
sg64
(lp4135
S':'
asbag57
(g78
g59
NtRp4136
(dp4137
g62
(dp4138
sg71
g4123
sg64
(lp4139
g57
(g58
g59
NtRp4140
(dp4141
g62
(dp4142
g70
I5
ssg71
g4136
sg64
(lp4143
S'None'
p4144
asbasbasbag57
(g73
g59
NtRp4145
(dp4146
g62
(dp4147
sg71
g3755
sg64
(lp4148
g57
(g78
g59
NtRp4149
(dp4150
g62
(dp4151
g82
g83
ssg71
g4145
sg64
(lp4152
S'headers'
p4153
asbag57
(g78
g59
NtRp4154
(dp4155
g62
(dp4156
g89
g90
ssg71
g4145
sg64
(lp4157
S':'
asbag57
(g78
g59
NtRp4158
(dp4159
g62
(dp4160
sg71
g4145
sg64
(lp4161
g57
(g58
g59
NtRp4162
(dp4163
g62
(dp4164
g70
I5
ssg71
g4158
sg64
(lp4165
g57
(g66
g59
NtRp4166
(dp4167
g62
(dp4168
g70
I4
ssg71
Nsg64
(lp4169
g57
(g73
g59
NtRp4170
(dp4171
g62
(dp4172
sg71
g4166
sg64
(lp4173
g57
(g78
g59
NtRp4174
(dp4175
g62
(dp4176
g82
g83
ssg71
g4170
sg64
(lp4177
S'X-Powered-By'
p4178
asbag57
(g78
g59
NtRp4179
(dp4180
g62
(dp4181
g89
g90
ssg71
g4170
sg64
(lp4182
S':'
asbag57
(g78
g59
NtRp4183
(dp4184
g62
(dp4185
sg71
g4170
sg64
(lp4186
g57
(g58
g59
NtRp4187
(dp4188
g62
(dp4189
g70
I4
ssg71
g4183
sg64
(lp4190
S'web2py'
p4191
asbasbasbasbasbasbasbag57
(g73
g59
NtRp4192
(dp4193
g62
(dp4194
sg71
g3755
sg64
(lp4195
g57
(g78
g59
NtRp4196
(dp4197
g62
(dp4198
g82
g83
ssg71
g4192
sg64
(lp4199
S'logo'
p4200
asbag57
(g78
g59
NtRp4201
(dp4202
g62
(dp4203
g89
g90
ssg71
g4192
sg64
(lp4204
S':'
asbag57
(g78
g59
NtRp4205
(dp4206
g62
(dp4207
sg71
g4192
sg64
(lp4208
g57
(g58
g59
NtRp4209
(dp4210
g62
(dp4211
g70
I5
ssg71
g4205
sg64
(lp4212
g57
(cgluon.html
A
p4213
g59
NtRp4214
(dp4215
g62
(dp4216
S'_class'
p4217
S'brand'
p4218
sS'_href'
p4219
S'http://www.web2py.com/'
p4220
ssg71
Nsg64
(lp4221
g57
(cgluon.html
B
p4222
g59
NtRp4223
(dp4224
g62
(dp4225
sg71
g4214
sg64
(lp4226
S'web'
p4227
ag57
(cgluon.html
SPAN
p4228
g59
NtRp4229
(dp4230
g62
(dp4231
sg71
g4223
sg64
(lp4232
I2
asbaS'py'
p4233
asbacgluon.html
XML_unpickle
p4234
(S's\r\x00\x00\x00&trade;&nbsp;'
tRp4235
asbasbasbasbag57
(g73
g59
NtRp4236
(dp4237
g62
(dp4238
sg71
g3755
sg64
(lp4239
g57
(g78
g59
NtRp4240
(dp4241
g62
(dp4242
g82
g83
ssg71
g4236
sg64
(lp4243
S'menu'
p4244
asbag57
(g78
g59
NtRp4245
(dp4246
g62
(dp4247
g89
g90
ssg71
g4236
sg64
(lp4248
S':'
asbag57
(g78
g59
NtRp4249
(dp4250
g62
(dp4251
sg71
g4236
sg64
(lp4252
g57
(g58
g59
NtRp4253
(dp4254
g62
(dp4255
g70
I5
ssg71
g4249
sg64
(lp4256
g57
(g66
g59
NtRp4257
(dp4258
g62
(dp4259
g70
I4
ssg71
Nsg64
(lp4260
g57
(g73
g59
NtRp4261
(dp4262
g62
(dp4263
sg71
g4257
sg64
(lp4264
g57
(g78
g59
NtRp4265
(dp4266
g62
(dp4267
sg71
g4261
sg64
(lp4268
g57
(g58
g59
NtRp4269
(dp4270
g62
(dp4271
g70
I4
ssg71
g4265
sg64
(lp4272
g57
(g66
g59
NtRp4273
(dp4274
g62
(dp4275
g70
I3
ssg71
Nsg64
(lp4276
g57
(g73
g59
NtRp4277
(dp4278
g62
(dp4279
sg71
g4273
sg64
(lp4280
g57
(g78
g59
NtRp4281
(dp4282
g62
(dp4283
sg71
g4277
sg64
(lp4284
g57
(g58
g59
NtRp4285
(dp4286
g62
(dp4287
g70
I3
ssg71
g4281
sg64
(lp4288
cgluon.languages
lazyT_unpickle
p4289
(S's\x04\x00\x00\x00Home'
tRp4290
asbasbasbag57
(g73
g59
NtRp4291
(dp4292
g62
(dp4293
sg71
g4273
sg64
(lp4294
g57
(g78
g59
NtRp4295
(dp4296
g62
(dp4297
sg71
g4291
sg64
(lp4298
g57
(g58
g59
NtRp4299
(dp4300
g62
(dp4301
g70
I3
ssg71
g4295
sg64
(lp4302
g100
asbasbasbag57
(g73
g59
NtRp4303
(dp4304
g62
(dp4305
sg71
g4273
sg64
(lp4306
g57
(g78
g59
NtRp4307
(dp4308
g62
(dp4309
sg71
g4303
sg64
(lp4310
g57
(g58
g59
NtRp4311
(dp4312
g62
(dp4313
g70
I3
ssg71
g4307
sg64
(lp4314
S'/OnlineExamination/default/index'
p4315
asbasbasbag57
(g73
g59
NtRp4316
(dp4317
g62
(dp4318
sg71
g4273
sg64
(lp4319
g57
(g78
g59
NtRp4320
(dp4321
g62
(dp4322
sg71
g4316
sg64
(lp4323
g57
(g58
g59
NtRp4324
(dp4325
g62
(dp4326
g70
I3
ssg71
g4320
sg64
(lp4327
g57
(g66
g59
NtRp4328
(dp4329
g62
(dp4330
g70
I2
ssg71
Nsg64
(lp4331
sbasbasbasbasbasbasbasbag57
(g73
g59
NtRp4332
(dp4333
g62
(dp4334
sg71
g4257
sg64
(lp4335
g57
(g78
g59
NtRp4336
(dp4337
g62
(dp4338
sg71
g4332
sg64
(lp4339
g57
(g58
g59
NtRp4340
(dp4341
g62
(dp4342
g70
I4
ssg71
g4336
sg64
(lp4343
g57
(g66
g59
NtRp4344
(dp4345
g62
(dp4346
g70
I3
ssg71
Nsg64
(lp4347
g57
(g73
g59
NtRp4348
(dp4349
g62
(dp4350
sg71
g4344
sg64
(lp4351
g57
(g78
g59
NtRp4352
(dp4353
g62
(dp4354
sg71
g4348
sg64
(lp4355
g57
(g58
g59
NtRp4356
(dp4357
g62
(dp4358
g70
I3
ssg71
g4352
sg64
(lp4359
g57
(g4228
g59
NtRp4360
(dp4361
g62
(dp4362
g4217
S'highlighted'
p4363
ssg71
Nsg64
(lp4364
g4191
asbasbasbasbag57
(g73
g59
NtRp4365
(dp4366
g62
(dp4367
sg71
g4344
sg64
(lp4368
g57
(g78
g59
NtRp4369
(dp4370
g62
(dp4371
sg71
g4365
sg64
(lp4372
g57
(g58
g59
NtRp4373
(dp4374
g62
(dp4375
g70
I3
ssg71
g4369
sg64
(lp4376
g100
asbasbasbag57
(g73
g59
NtRp4377
(dp4378
g62
(dp4379
sg71
g4344
sg64
(lp4380
g57
(g78
g59
NtRp4381
(dp4382
g62
(dp4383
sg71
g4377
sg64
(lp4384
g57
(g58
g59
NtRp4385
(dp4386
g62
(dp4387
g70
I3
ssg71
g4381
sg64
(lp4388
S'http://web2py.com'
p4389
asbasbasbag57
(g73
g59
NtRp4390
(dp4391
g62
(dp4392
sg71
g4344
sg64
(lp4393
g57
(g78
g59
NtRp4394
(dp4395
g62
(dp4396
sg71
g4390
sg64
(lp4397
g57
(g58
g59
NtRp4398
(dp4399
g62
(dp4400
g70
I3
ssg71
g4394
sg64
(lp4401
g57
(g66
g59
NtRp4402
(dp4403
g62
(dp4404
g70
I2
ssg71
Nsg64
(lp4405
g57
(g73
g59
NtRp4406
(dp4407
g62
(dp4408
sg71
g4402
sg64
(lp4409
g57
(g78
g59
NtRp4410
(dp4411
g62
(dp4412
sg71
g4406
sg64
(lp4413
g57
(g58
g59
NtRp4414
(dp4415
g62
(dp4416
g70
I2
ssg71
g4410
sg64
(lp4417
g57
(g66
g59
NtRp4418
(dp4419
g62
(dp4420
g70
I1
ssg71
Nsg64
(lp4421
g57
(g73
g59
NtRp4422
(dp4423
g62
(dp4424
sg71
g4418
sg64
(lp4425
g57
(g78
g59
NtRp4426
(dp4427
g62
(dp4428
sg71
g4422
sg64
(lp4429
g57
(g58
g59
NtRp4430
(dp4431
g62
(dp4432
g70
I1
ssg71
g4426
sg64
(lp4433
g4289
(S's\x08\x00\x00\x00My Sites'
tRp4434
asbasbasbag57
(g73
g59
NtRp4435
(dp4436
g62
(dp4437
sg71
g4418
sg64
(lp4438
g57
(g78
g59
NtRp4439
(dp4440
g62
(dp4441
sg71
g4435
sg64
(lp4442
g57
(g58
g59
NtRp4443
(dp4444
g62
(dp4445
g70
I1
ssg71
g4439
sg64
(lp4446
I00
asbasbasbag57
(g73
g59
NtRp4447
(dp4448
g62
(dp4449
sg71
g4418
sg64
(lp4450
g57
(g78
g59
NtRp4451
(dp4452
g62
(dp4453
sg71
g4447
sg64
(lp4454
g57
(g58
g59
NtRp4455
(dp4456
g62
(dp4457
g70
I1
ssg71
g4451
sg64
(lp4458
S'/admin/default/site'
p4459
asbasbasbasbasbasbasbag57
(g73
g59
NtRp4460
(dp4461
g62
(dp4462
sg71
g4402
sg64
(lp4463
g57
(g78
g59
NtRp4464
(dp4465
g62
(dp4466
sg71
g4460
sg64
(lp4467
g57
(g58
g59
NtRp4468
(dp4469
g62
(dp4470
g70
I2
ssg71
g4464
sg64
(lp4471
g57
(g66
g59
NtRp4472
(dp4473
g62
(dp4474
g70
I1
ssg71
Nsg64
(lp4475
g57
(g73
g59
NtRp4476
(dp4477
g62
(dp4478
sg71
g4472
sg64
(lp4479
g57
(g78
g59
NtRp4480
(dp4481
g62
(dp4482
sg71
g4476
sg64
(lp4483
g57
(g58
g59
NtRp4484
(dp4485
g62
(dp4486
g70
I1
ssg71
g4480
sg64
(lp4487
g4289
(S's\x08\x00\x00\x00This App'
tRp4488
asbasbasbag57
(g73
g59
NtRp4489
(dp4490
g62
(dp4491
sg71
g4472
sg64
(lp4492
g57
(g78
g59
NtRp4493
(dp4494
g62
(dp4495
sg71
g4489
sg64
(lp4496
g57
(g58
g59
NtRp4497
(dp4498
g62
(dp4499
g70
I1
ssg71
g4493
sg64
(lp4500
I00
asbasbasbag57
(g73
g59
NtRp4501
(dp4502
g62
(dp4503
sg71
g4472
sg64
(lp4504
g57
(g78
g59
NtRp4505
(dp4506
g62
(dp4507
sg71
g4501
sg64
(lp4508
g57
(g58
g59
NtRp4509
(dp4510
g62
(dp4511
g70
I1
ssg71
g4505
sg64
(lp4512
S'/admin/default/design/OnlineExamination'
p4513
asbasbasbag57
(g73
g59
NtRp4514
(dp4515
g62
(dp4516
sg71
g4472
sg64
(lp4517
g57
(g78
g59
NtRp4518
(dp4519
g62
(dp4520
sg71
g4514
sg64
(lp4521
g57
(g58
g59
NtRp4522
(dp4523
g62
(dp4524
g70
I1
ssg71
g4518
sg64
(lp4525
(lp4526
(g4289
(S's\n\x00\x00\x00Controller'
tRp4527
I00
S'/admin/default/edit/OnlineExamination/controllers/default.py'
tp4528
a(g4289
(S's\x04\x00\x00\x00View'
tRp4529
I00
S'/admin/default/edit/OnlineExamination/views/default/exam.html'
tp4530
a(g4289
(S's\x06\x00\x00\x00Layout'
tRp4531
I00
S'/admin/default/edit/OnlineExamination/views/layout.html'
tp4532
a(g4289
(S's\n\x00\x00\x00Stylesheet'
tRp4533
I00
S'/admin/default/edit/OnlineExamination/static/css/web2py.css'
tp4534
a(g4289
(S's\x08\x00\x00\x00DB Model'
tRp4535
I00
S'/admin/default/edit/OnlineExamination/models/db.py'
tp4536
a(g4289
(S's\n\x00\x00\x00Menu Model'
tRp4537
I00
S'/admin/default/edit/OnlineExamination/models/menu.py'
tp4538
a(g4289
(S's\x08\x00\x00\x00Database'
tRp4539
I00
S'/OnlineExamination/appadmin/index'
tp4540
a(g4289
(S's\x06\x00\x00\x00Errors'
tRp4541
I00
S'/admin/default/errors/OnlineExamination'
tp4542
a(g4289
(S's\x05\x00\x00\x00About'
tRp4543
I00
S'/admin/default/about/OnlineExamination'
tp4544
aasbasbasbasbasbasbasbag57
(g73
g59
NtRp4545
(dp4546
g62
(dp4547
sg71
g4402
sg64
(lp4548
g57
(g78
g59
NtRp4549
(dp4550
g62
(dp4551
sg71
g4545
sg64
(lp4552
g57
(g58
g59
NtRp4553
(dp4554
g62
(dp4555
g70
I2
ssg71
g4549
sg64
(lp4556
g57
(g66
g59
NtRp4557
(dp4558
g62
(dp4559
g70
I1
ssg71
Nsg64
(lp4560
g57
(g73
g59
NtRp4561
(dp4562
g62
(dp4563
sg71
g4557
sg64
(lp4564
g57
(g78
g59
NtRp4565
(dp4566
g62
(dp4567
sg71
g4561
sg64
(lp4568
g57
(g58
g59
NtRp4569
(dp4570
g62
(dp4571
g70
I1
ssg71
g4565
sg64
(lp4572
S'web2py.com'
p4573
asbasbasbag57
(g73
g59
NtRp4574
(dp4575
g62
(dp4576
sg71
g4557
sg64
(lp4577
g57
(g78
g59
NtRp4578
(dp4579
g62
(dp4580
sg71
g4574
sg64
(lp4581
g57
(g58
g59
NtRp4582
(dp4583
g62
(dp4584
g70
I1
ssg71
g4578
sg64
(lp4585
I00
asbasbasbag57
(g73
g59
NtRp4586
(dp4587
g62
(dp4588
sg71
g4557
sg64
(lp4589
g57
(g78
g59
NtRp4590
(dp4591
g62
(dp4592
sg71
g4586
sg64
(lp4593
g57
(g58
g59
NtRp4594
(dp4595
g62
(dp4596
g70
I1
ssg71
g4590
sg64
(lp4597
S'http://www.web2py.com'
p4598
asbasbasbag57
(g73
g59
NtRp4599
(dp4600
g62
(dp4601
sg71
g4557
sg64
(lp4602
g57
(g78
g59
NtRp4603
(dp4604
g62
(dp4605
sg71
g4599
sg64
(lp4606
g57
(g58
g59
NtRp4607
(dp4608
g62
(dp4609
g70
I1
ssg71
g4603
sg64
(lp4610
(lp4611
(g4289
(S's\x08\x00\x00\x00Download'
tRp4612
I00
S'http://www.web2py.com/examples/default/download'
p4613
tp4614
a(g4289
(S's\x07\x00\x00\x00Support'
tRp4615
I00
S'http://www.web2py.com/examples/default/support'
p4616
tp4617
a(g4289
(S's\x04\x00\x00\x00Demo'
tRp4618
I00
S'http://web2py.com/demo_admin'
p4619
tp4620
a(g4289
(S's\x0e\x00\x00\x00Quick Examples'
tRp4621
I00
S'http://web2py.com/examples/default/examples'
p4622
tp4623
a(g4289
(S's\x03\x00\x00\x00FAQ'
tRp4624
I00
S'http://web2py.com/AlterEgo'
p4625
tp4626
a(g4289
(S's\x06\x00\x00\x00Videos'
tRp4627
I00
S'http://www.web2py.com/examples/default/videos/'
p4628
tp4629
a(g4289
(S's\x11\x00\x00\x00Free Applications'
tRp4630
I00
S'http://web2py.com/appliances'
p4631
tp4632
a(g4289
(S's\x07\x00\x00\x00Plugins'
tRp4633
I00
S'http://web2py.com/plugins'
p4634
tp4635
a(g4289
(S's\x07\x00\x00\x00Layouts'
tRp4636
I00
S'http://web2py.com/layouts'
p4637
tp4638
a(g4289
(S's\x07\x00\x00\x00Recipes'
tRp4639
I00
S'http://web2pyslices.com/'
p4640
tp4641
a(g4289
(S's\x08\x00\x00\x00Semantic'
tRp4642
I00
S'http://web2py.com/semantic'
p4643
tp4644
aasbasbasbasbasbasbasbag57
(g73
g59
NtRp4645
(dp4646
g62
(dp4647
sg71
g4402
sg64
(lp4648
g57
(g78
g59
NtRp4649
(dp4650
g62
(dp4651
sg71
g4645
sg64
(lp4652
g57
(g58
g59
NtRp4653
(dp4654
g62
(dp4655
g70
I2
ssg71
g4649
sg64
(lp4656
g57
(g66
g59
NtRp4657
(dp4658
g62
(dp4659
g70
I1
ssg71
Nsg64
(lp4660
g57
(g73
g59
NtRp4661
(dp4662
g62
(dp4663
sg71
g4657
sg64
(lp4664
g57
(g78
g59
NtRp4665
(dp4666
g62
(dp4667
sg71
g4661
sg64
(lp4668
g57
(g58
g59
NtRp4669
(dp4670
g62
(dp4671
g70
I1
ssg71
g4665
sg64
(lp4672
g4289
(S's\r\x00\x00\x00Documentation'
tRp4673
asbasbasbag57
(g73
g59
NtRp4674
(dp4675
g62
(dp4676
sg71
g4657
sg64
(lp4677
g57
(g78
g59
NtRp4678
(dp4679
g62
(dp4680
sg71
g4674
sg64
(lp4681
g57
(g58
g59
NtRp4682
(dp4683
g62
(dp4684
g70
I1
ssg71
g4678
sg64
(lp4685
I00
asbasbasbag57
(g73
g59
NtRp4686
(dp4687
g62
(dp4688
sg71
g4657
sg64
(lp4689
g57
(g78
g59
NtRp4690
(dp4691
g62
(dp4692
sg71
g4686
sg64
(lp4693
g57
(g58
g59
NtRp4694
(dp4695
g62
(dp4696
g70
I1
ssg71
g4690
sg64
(lp4697
S'http://www.web2py.com/book'
p4698
asbasbasbag57
(g73
g59
NtRp4699
(dp4700
g62
(dp4701
sg71
g4657
sg64
(lp4702
g57
(g78
g59
NtRp4703
(dp4704
g62
(dp4705
sg71
g4699
sg64
(lp4706
g57
(g58
g59
NtRp4707
(dp4708
g62
(dp4709
g70
I1
ssg71
g4703
sg64
(lp4710
(lp4711
(g4289
(S's\x07\x00\x00\x00Preface'
tRp4712
I00
S'http://www.web2py.com/book/default/chapter/00'
p4713
tp4714
a(g4289
(S's\x0c\x00\x00\x00Introduction'
tRp4715
I00
S'http://www.web2py.com/book/default/chapter/01'
p4716
tp4717
a(g4289
(S's\x06\x00\x00\x00Python'
tRp4718
I00
S'http://www.web2py.com/book/default/chapter/02'
p4719
tp4720
a(g4289
(S's\x08\x00\x00\x00Overview'
tRp4721
I00
S'http://www.web2py.com/book/default/chapter/03'
p4722
tp4723
a(g4289
(S's\x08\x00\x00\x00The Core'
tRp4724
I00
S'http://www.web2py.com/book/default/chapter/04'
p4725
tp4726
a(g4289
(S's\t\x00\x00\x00The Views'
tRp4727
I00
S'http://www.web2py.com/book/default/chapter/05'
p4728
tp4729
a(g4289
(S's\x08\x00\x00\x00Database'
tRp4730
I00
S'http://www.web2py.com/book/default/chapter/06'
p4731
tp4732
a(g4289
(S's\x14\x00\x00\x00Forms and Validators'
tRp4733
I00
S'http://www.web2py.com/book/default/chapter/07'
p4734
tp4735
a(g4289
(S's\r\x00\x00\x00Email and SMS'
tRp4736
I00
S'http://www.web2py.com/book/default/chapter/08'
p4737
tp4738
a(g4289
(S's\x0e\x00\x00\x00Access Control'
tRp4739
I00
S'http://www.web2py.com/book/default/chapter/09'
p4740
tp4741
a(g4289
(S's\x08\x00\x00\x00Services'
tRp4742
I00
S'http://www.web2py.com/book/default/chapter/10'
p4743
tp4744
a(g4289
(S's\x0c\x00\x00\x00Ajax Recipes'
tRp4745
I00
S'http://www.web2py.com/book/default/chapter/11'
p4746
tp4747
a(g4289
(S's\x16\x00\x00\x00Components and Plugins'
tRp4748
I00
S'http://www.web2py.com/book/default/chapter/12'
p4749
tp4750
a(g4289
(S's\x12\x00\x00\x00Deployment Recipes'
tRp4751
I00
S'http://www.web2py.com/book/default/chapter/13'
p4752
tp4753
a(g4289
(S's\r\x00\x00\x00Other Recipes'
tRp4754
I00
S'http://www.web2py.com/book/default/chapter/14'
p4755
tp4756
a(g4289
(S's\r\x00\x00\x00Buy this book'
tRp4757
I00
S'http://stores.lulu.com/web2py'
p4758
tp4759
aasbasbasbasbasbasbasbag57
(g73
g59
NtRp4760
(dp4761
g62
(dp4762
sg71
g4402
sg64
(lp4763
g57
(g78
g59
NtRp4764
(dp4765
g62
(dp4766
sg71
g4760
sg64
(lp4767
g57
(g58
g59
NtRp4768
(dp4769
g62
(dp4770
g70
I2
ssg71
g4764
sg64
(lp4771
g57
(g66
g59
NtRp4772
(dp4773
g62
(dp4774
g70
I1
ssg71
Nsg64
(lp4775
g57
(g73
g59
NtRp4776
(dp4777
g62
(dp4778
sg71
g4772
sg64
(lp4779
g57
(g78
g59
NtRp4780
(dp4781
g62
(dp4782
sg71
g4776
sg64
(lp4783
g57
(g58
g59
NtRp4784
(dp4785
g62
(dp4786
g70
I1
ssg71
g4780
sg64
(lp4787
g4289
(S's\t\x00\x00\x00Community'
tRp4788
asbasbasbag57
(g73
g59
NtRp4789
(dp4790
g62
(dp4791
sg71
g4772
sg64
(lp4792
g57
(g78
g59
NtRp4793
(dp4794
g62
(dp4795
sg71
g4789
sg64
(lp4796
g57
(g58
g59
NtRp4797
(dp4798
g62
(dp4799
g70
I1
ssg71
g4793
sg64
(lp4800
I00
asbasbasbag57
(g73
g59
NtRp4801
(dp4802
g62
(dp4803
sg71
g4772
sg64
(lp4804
g57
(g78
g59
NtRp4805
(dp4806
g62
(dp4807
sg71
g4801
sg64
(lp4808
g57
(g58
g59
NtRp4809
(dp4810
g62
(dp4811
g70
I1
ssg71
g4805
sg64
(lp4812
Nasbasbasbag57
(g73
g59
NtRp4813
(dp4814
g62
(dp4815
sg71
g4772
sg64
(lp4816
g57
(g78
g59
NtRp4817
(dp4818
g62
(dp4819
sg71
g4813
sg64
(lp4820
g57
(g58
g59
NtRp4821
(dp4822
g62
(dp4823
g70
I1
ssg71
g4817
sg64
(lp4824
(lp4825
(g4289
(S's\x06\x00\x00\x00Groups'
tRp4826
I00
S'http://www.web2py.com/examples/default/usergroups'
p4827
tp4828
a(g4289
(S's\x07\x00\x00\x00Twitter'
tRp4829
I00
S'http://twitter.com/web2py'
p4830
tp4831
a(g4289
(S's\t\x00\x00\x00Live Chat'
tRp4832
I00
S'http://webchat.freenode.net/?channels=web2py'
p4833
tp4834
aasbasbasbasbasbasbasbag57
(g73
g59
NtRp4835
(dp4836
g62
(dp4837
sg71
g4402
sg64
(lp4838
g57
(g78
g59
NtRp4839
(dp4840
g62
(dp4841
sg71
g4835
sg64
(lp4842
g57
(g58
g59
NtRp4843
(dp4844
g62
(dp4845
g70
I2
ssg71
g4839
sg64
(lp4846
g57
(g66
g59
NtRp4847
(dp4848
g62
(dp4849
g70
I1
ssg71
Nsg64
(lp4850
g57
(g73
g59
NtRp4851
(dp4852
g62
(dp4853
sg71
g4847
sg64
(lp4854
g57
(g78
g59
NtRp4855
(dp4856
g62
(dp4857
sg71
g4851
sg64
(lp4858
g57
(g58
g59
NtRp4859
(dp4860
g62
(dp4861
g70
I1
ssg71
g4855
sg64
(lp4862
g4289
(S's\x07\x00\x00\x00Plugins'
tRp4863
asbasbasbag57
(g73
g59
NtRp4864
(dp4865
g62
(dp4866
sg71
g4847
sg64
(lp4867
g57
(g78
g59
NtRp4868
(dp4869
g62
(dp4870
sg71
g4864
sg64
(lp4871
g57
(g58
g59
NtRp4872
(dp4873
g62
(dp4874
g70
I1
ssg71
g4868
sg64
(lp4875
I00
asbasbasbag57
(g73
g59
NtRp4876
(dp4877
g62
(dp4878
sg71
g4847
sg64
(lp4879
g57
(g78
g59
NtRp4880
(dp4881
g62
(dp4882
sg71
g4876
sg64
(lp4883
g57
(g58
g59
NtRp4884
(dp4885
g62
(dp4886
g70
I1
ssg71
g4880
sg64
(lp4887
Nasbasbasbag57
(g73
g59
NtRp4888
(dp4889
g62
(dp4890
sg71
g4847
sg64
(lp4891
g57
(g78
g59
NtRp4892
(dp4893
g62
(dp4894
sg71
g4888
sg64
(lp4895
g57
(g58
g59
NtRp4896
(dp4897
g62
(dp4898
g70
I1
ssg71
g4892
sg64
(lp4899
(lp4900
(S'plugin_wiki'
p4901
I00
S'http://web2py.com/examples/default/download'
p4902
tp4903
a(g4289
(S's\r\x00\x00\x00Other Plugins'
tRp4904
I00
g4634
tp4905
a(g4289
(S's\x0e\x00\x00\x00Layout Plugins'
tRp4906
I00
g4637
tp4907
aasbasbasbasbasbasbasbasbasbasbasbasbasbasbasbasbasbasbasbag57
(g73
g59
NtRp4908
(dp4909
g62
(dp4910
sg71
g3755
sg64
(lp4911
g57
(g78
g59
NtRp4912
(dp4913
g62
(dp4914
g82
g83
ssg71
g4908
sg64
(lp4915
S'meta'
p4916
asbag57
(g78
g59
NtRp4917
(dp4918
g62
(dp4919
g89
g90
ssg71
g4908
sg64
(lp4920
S':'
asbag57
(g78
g59
NtRp4921
(dp4922
g62
(dp4923
sg71
g4908
sg64
(lp4924
g57
(g58
g59
NtRp4925
(dp4926
g62
(dp4927
g70
I5
ssg71
g4921
sg64
(lp4928
g57
(g66
g59
NtRp4929
(dp4930
g62
(dp4931
g70
I4
ssg71
Nsg64
(lp4932
g57
(g73
g59
NtRp4933
(dp4934
g62
(dp4935
sg71
g4929
sg64
(lp4936
g57
(g78
g59
NtRp4937
(dp4938
g62
(dp4939
g82
g83
ssg71
g4933
sg64
(lp4940
S'author'
p4941
asbag57
(g78
g59
NtRp4942
(dp4943
g62
(dp4944
g89
g90
ssg71
g4933
sg64
(lp4945
S':'
asbag57
(g78
g59
NtRp4946
(dp4947
g62
(dp4948
sg71
g4933
sg64
(lp4949
g57
(g58
g59
NtRp4950
(dp4951
g62
(dp4952
g70
I4
ssg71
g4946
sg64
(lp4953
S'Your Name <you@example.com>'
p4954
asbasbasbag57
(g73
g59
NtRp4955
(dp4956
g62
(dp4957
sg71
g4929
sg64
(lp4958
g57
(g78
g59
NtRp4959
(dp4960
g62
(dp4961
g82
g83
ssg71
g4955
sg64
(lp4962
S'description'
p4963
asbag57
(g78
g59
NtRp4964
(dp4965
g62
(dp4966
g89
g90
ssg71
g4955
sg64
(lp4967
S':'
asbag57
(g78
g59
NtRp4968
(dp4969
g62
(dp4970
sg71
g4955
sg64
(lp4971
g57
(g58
g59
NtRp4972
(dp4973
g62
(dp4974
g70
I4
ssg71
g4968
sg64
(lp4975
S'a cool new app'
p4976
asbasbasbag57
(g73
g59
NtRp4977
(dp4978
g62
(dp4979
sg71
g4929
sg64
(lp4980
g57
(g78
g59
NtRp4981
(dp4982
g62
(dp4983
g82
g83
ssg71
g4977
sg64
(lp4984
S'generator'
p4985
asbag57
(g78
g59
NtRp4986
(dp4987
g62
(dp4988
g89
g90
ssg71
g4977
sg64
(lp4989
S':'
asbag57
(g78
g59
NtRp4990
(dp4991
g62
(dp4992
sg71
g4977
sg64
(lp4993
g57
(g58
g59
NtRp4994
(dp4995
g62
(dp4996
g70
I4
ssg71
g4990
sg64
(lp4997
S'Web2py Web Framework'
p4998
asbasbasbag57
(g73
g59
NtRp4999
(dp5000
g62
(dp5001
sg71
g4929
sg64
(lp5002
g57
(g78
g59
NtRp5003
(dp5004
g62
(dp5005
g82
g83
ssg71
g4999
sg64
(lp5006
S'keywords'
p5007
asbag57
(g78
g59
NtRp5008
(dp5009
g62
(dp5010
g89
g90
ssg71
g4999
sg64
(lp5011
S':'
asbag57
(g78
g59
NtRp5012
(dp5013
g62
(dp5014
sg71
g4999
sg64
(lp5015
g57
(g58
g59
NtRp5016
(dp5017
g62
(dp5018
g70
I4
ssg71
g5012
sg64
(lp5019
S'web2py, python, framework'
p5020
asbasbasbasbasbasbasbag57
(g73
g59
NtRp5021
(dp5022
g62
(dp5023
sg71
g3755
sg64
(lp5024
g57
(g78
g59
NtRp5025
(dp5026
g62
(dp5027
g82
g83
ssg71
g5021
sg64
(lp5028
S'models_to_run'
p5029
asbag57
(g78
g59
NtRp5030
(dp5031
g62
(dp5032
g89
g90
ssg71
g5021
sg64
(lp5033
S':'
asbag57
(g78
g59
NtRp5034
(dp5035
g62
(dp5036
sg71
g5021
sg64
(lp5037
g57
(g58
g59
NtRp5038
(dp5039
g62
(dp5040
g70
I5
ssg71
g5034
sg64
(lp5041
g57
(g66
g59
NtRp5042
(dp5043
g62
(dp5044
g70
I4
ssg71
Nsg64
(lp5045
g57
(g73
g59
NtRp5046
(dp5047
g62
(dp5048
sg71
g5042
sg64
(lp5049
g57
(g78
g59
NtRp5050
(dp5051
g62
(dp5052
sg71
g5046
sg64
(lp5053
g57
(g58
g59
NtRp5054
(dp5055
g62
(dp5056
g70
I4
ssg71
g5050
sg64
(lp5057
S'^\\w+\\.py$'
p5058
asbasbasbag57
(g73
g59
NtRp5059
(dp5060
g62
(dp5061
sg71
g5042
sg64
(lp5062
g57
(g78
g59
NtRp5063
(dp5064
g62
(dp5065
sg71
g5059
sg64
(lp5066
g57
(g58
g59
NtRp5067
(dp5068
g62
(dp5069
g70
I4
ssg71
g5063
sg64
(lp5070
S'^default/\\w+\\.py$'
p5071
asbasbasbag57
(g73
g59
NtRp5072
(dp5073
g62
(dp5074
sg71
g5042
sg64
(lp5075
g57
(g78
g59
NtRp5076
(dp5077
g62
(dp5078
sg71
g5072
sg64
(lp5079
g57
(g58
g59
NtRp5080
(dp5081
g62
(dp5082
g70
I4
ssg71
g5076
sg64
(lp5083
S'^default/exam/\\w+\\.py$'
p5084
asbasbasbasbasbasbasbag57
(g73
g59
NtRp5085
(dp5086
g62
(dp5087
sg71
g3755
sg64
(lp5088
g57
(g78
g59
NtRp5089
(dp5090
g62
(dp5091
g82
g83
ssg71
g5085
sg64
(lp5092
S'postprocessing'
p5093
asbag57
(g78
g59
NtRp5094
(dp5095
g62
(dp5096
g89
g90
ssg71
g5085
sg64
(lp5097
S':'
asbag57
(g78
g59
NtRp5098
(dp5099
g62
(dp5100
sg71
g5085
sg64
(lp5101
g57
(g58
g59
NtRp5102
(dp5103
g62
(dp5104
g70
I5
ssg71
g5098
sg64
(lp5105
g57
(g66
g59
NtRp5106
(dp5107
g62
(dp5108
g70
I4
ssg71
Nsg64
(lp5109
sbasbasbasbag57
(g73
g59
NtRp5110
(dp5111
g62
(dp5112
sg71
g3755
sg64
(lp5113
g57
(g78
g59
NtRp5114
(dp5115
g62
(dp5116
g82
g83
ssg71
g5110
sg64
(lp5117
S'session_cookie_expires'
p5118
asbag57
(g78
g59
NtRp5119
(dp5120
g62
(dp5121
g89
g90
ssg71
g5110
sg64
(lp5122
S':'
asbag57
(g78
g59
NtRp5123
(dp5124
g62
(dp5125
sg71
g5110
sg64
(lp5126
g57
(g58
g59
NtRp5127
(dp5128
g62
(dp5129
g70
I5
ssg71
g5123
sg64
(lp5130
S'None'
p5131
asbasbasbag57
(g73
g59
NtRp5132
(dp5133
g62
(dp5134
sg71
g3755
sg64
(lp5135
g57
(g78
g59
NtRp5136
(dp5137
g62
(dp5138
g82
g83
ssg71
g5132
sg64
(lp5139
S'session_data_name'
p5140
asbag57
(g78
g59
NtRp5141
(dp5142
g62
(dp5143
g89
g90
ssg71
g5132
sg64
(lp5144
S':'
asbag57
(g78
g59
NtRp5145
(dp5146
g62
(dp5147
sg71
g5132
sg64
(lp5148
g57
(g58
g59
NtRp5149
(dp5150
g62
(dp5151
g70
I5
ssg71
g5145
sg64
(lp5152
S'session_data_onlineexamination'
p5153
asbasbasbag57
(g73
g59
NtRp5154
(dp5155
g62
(dp5156
sg71
g3755
sg64
(lp5157
g57
(g78
g59
NtRp5158
(dp5159
g62
(dp5160
g82
g83
ssg71
g5154
sg64
(lp5161
S'session_file'
p5162
asbag57
(g78
g59
NtRp5163
(dp5164
g62
(dp5165
g89
g90
ssg71
g5154
sg64
(lp5166
S':'
asbag57
(g78
g59
NtRp5167
(dp5168
g62
(dp5169
sg71
g5154
sg64
(lp5170
g57
(g58
g59
NtRp5171
(dp5172
g62
(dp5173
g70
I5
ssg71
g5167
sg64
(lp5174
S"<open file '/home/gaurav/classwork/WEB_PROGRAMMING/web2py/applications/OnlineExamination/sessions/127.0.0.1-c946dbc5-3ee7-4ce1-86c5-f16bb3a3c13c', mode 'rb+' at 0xa6435a0>"
p5175
asbasbasbag57
(g73
g59
NtRp5176
(dp5177
g62
(dp5178
sg71
g3755
sg64
(lp5179
g57
(g78
g59
NtRp5180
(dp5181
g62
(dp5182
g82
g83
ssg71
g5176
sg64
(lp5183
S'session_filename'
p5184
asbag57
(g78
g59
NtRp5185
(dp5186
g62
(dp5187
g89
g90
ssg71
g5176
sg64
(lp5188
S':'
asbag57
(g78
g59
NtRp5189
(dp5190
g62
(dp5191
sg71
g5176
sg64
(lp5192
g57
(g58
g59
NtRp5193
(dp5194
g62
(dp5195
g70
I5
ssg71
g5189
sg64
(lp5196
S'/home/gaurav/classwork/WEB_PROGRAMMING/web2py/applications/OnlineExamination/sessions/127.0.0.1-c946dbc5-3ee7-4ce1-86c5-f16bb3a3c13c'
p5197
asbasbasbag57
(g73
g59
NtRp5198
(dp5199
g62
(dp5200
sg71
g3755
sg64
(lp5201
g57
(g78
g59
NtRp5202
(dp5203
g62
(dp5204
g82
g83
ssg71
g5198
sg64
(lp5205
S'session_id'
p5206
asbag57
(g78
g59
NtRp5207
(dp5208
g62
(dp5209
g89
g90
ssg71
g5198
sg64
(lp5210
S':'
asbag57
(g78
g59
NtRp5211
(dp5212
g62
(dp5213
sg71
g5198
sg64
(lp5214
g57
(g58
g59
NtRp5215
(dp5216
g62
(dp5217
g70
I5
ssg71
g5211
sg64
(lp5218
g475
asbasbasbag57
(g73
g59
NtRp5219
(dp5220
g62
(dp5221
sg71
g3755
sg64
(lp5222
g57
(g78
g59
NtRp5223
(dp5224
g62
(dp5225
g82
g83
ssg71
g5219
sg64
(lp5226
S'session_id_name'
p5227
asbag57
(g78
g59
NtRp5228
(dp5229
g62
(dp5230
g89
g90
ssg71
g5219
sg64
(lp5231
S':'
asbag57
(g78
g59
NtRp5232
(dp5233
g62
(dp5234
sg71
g5219
sg64
(lp5235
g57
(g58
g59
NtRp5236
(dp5237
g62
(dp5238
g70
I5
ssg71
g5232
sg64
(lp5239
g3812
asbasbasbag57
(g73
g59
NtRp5240
(dp5241
g62
(dp5242
sg71
g3755
sg64
(lp5243
g57
(g78
g59
NtRp5244
(dp5245
g62
(dp5246
g82
g83
ssg71
g5240
sg64
(lp5247
S'session_locked'
p5248
asbag57
(g78
g59
NtRp5249
(dp5250
g62
(dp5251
g89
g90
ssg71
g5240
sg64
(lp5252
S':'
asbag57
(g78
g59
NtRp5253
(dp5254
g62
(dp5255
sg71
g5240
sg64
(lp5256
g57
(g58
g59
NtRp5257
(dp5258
g62
(dp5259
g70
I5
ssg71
g5253
sg64
(lp5260
g1791
asbasbasbag57
(g73
g59
NtRp5261
(dp5262
g62
(dp5263
sg71
g3755
sg64
(lp5264
g57
(g78
g59
NtRp5265
(dp5266
g62
(dp5267
g82
g83
ssg71
g5261
sg64
(lp5268
S'session_new'
p5269
asbag57
(g78
g59
NtRp5270
(dp5271
g62
(dp5272
g89
g90
ssg71
g5261
sg64
(lp5273
S':'
asbag57
(g78
g59
NtRp5274
(dp5275
g62
(dp5276
sg71
g5261
sg64
(lp5277
g57
(g58
g59
NtRp5278
(dp5279
g62
(dp5280
g70
I5
ssg71
g5274
sg64
(lp5281
g100
asbasbasbag57
(g73
g59
NtRp5282
(dp5283
g62
(dp5284
sg71
g3755
sg64
(lp5285
g57
(g78
g59
NtRp5286
(dp5287
g62
(dp5288
g82
g83
ssg71
g5282
sg64
(lp5289
S'session_storage_type'
p5290
asbag57
(g78
g59
NtRp5291
(dp5292
g62
(dp5293
g89
g90
ssg71
g5282
sg64
(lp5294
S':'
asbag57
(g78
g59
NtRp5295
(dp5296
g62
(dp5297
sg71
g5282
sg64
(lp5298
g57
(g58
g59
NtRp5299
(dp5300
g62
(dp5301
g70
I5
ssg71
g5295
sg64
(lp5302
g3243
asbasbasbag57
(g73
g59
NtRp5303
(dp5304
g62
(dp5305
sg71
g3755
sg64
(lp5306
g57
(g78
g59
NtRp5307
(dp5308
g62
(dp5309
g82
g83
ssg71
g5303
sg64
(lp5310
S'status'
p5311
asbag57
(g78
g59
NtRp5312
(dp5313
g62
(dp5314
g89
g90
ssg71
g5303
sg64
(lp5315
S':'
asbag57
(g78
g59
NtRp5316
(dp5317
g62
(dp5318
sg71
g5303
sg64
(lp5319
g57
(g58
g59
NtRp5320
(dp5321
g62
(dp5322
g70
I5
ssg71
g5316
sg64
(lp5323
S'200'
p5324
asbasbasbag57
(g73
g59
NtRp5325
(dp5326
g62
(dp5327
sg71
g3755
sg64
(lp5328
g57
(g78
g59
NtRp5329
(dp5330
g62
(dp5331
g82
g83
ssg71
g5325
sg64
(lp5332
S'subtitle'
p5333
asbag57
(g78
g59
NtRp5334
(dp5335
g62
(dp5336
g89
g90
ssg71
g5325
sg64
(lp5337
S':'
asbag57
(g78
g59
NtRp5338
(dp5339
g62
(dp5340
sg71
g5325
sg64
(lp5341
g57
(g58
g59
NtRp5342
(dp5343
g62
(dp5344
g70
I5
ssg71
g5338
sg64
(lp5345
g4289
(S's\x13\x00\x00\x00Online Exam Portal!'
tRp5346
asbasbasbag57
(g73
g59
NtRp5347
(dp5348
g62
(dp5349
sg71
g3755
sg64
(lp5350
g57
(g78
g59
NtRp5351
(dp5352
g62
(dp5353
g82
g83
ssg71
g5347
sg64
(lp5354
S'title'
p5355
asbag57
(g78
g59
NtRp5356
(dp5357
g62
(dp5358
g89
g90
ssg71
g5347
sg64
(lp5359
S':'
asbag57
(g78
g59
NtRp5360
(dp5361
g62
(dp5362
sg71
g5347
sg64
(lp5363
g57
(g58
g59
NtRp5364
(dp5365
g62
(dp5366
g70
I5
ssg71
g5360
sg64
(lp5367
S'Onlineexamination'
p5368
asbasbasbag57
(g73
g59
NtRp5369
(dp5370
g62
(dp5371
sg71
g3755
sg64
(lp5372
g57
(g78
g59
NtRp5373
(dp5374
g62
(dp5375
g82
g83
ssg71
g5369
sg64
(lp5376
S'view'
p5377
asbag57
(g78
g59
NtRp5378
(dp5379
g62
(dp5380
g89
g90
ssg71
g5369
sg64
(lp5381
S':'
asbag57
(g78
g59
NtRp5382
(dp5383
g62
(dp5384
sg71
g5369
sg64
(lp5385
g57
(g58
g59
NtRp5386
(dp5387
g62
(dp5388
g70
I5
ssg71
g5382
sg64
(lp5389
S'default/exam.html'
p5390
asbasbasbasbasbsS'locals'
p5391
(dp5392
S'CHECK_TEACHER'
p5393
S'<Rows (0)>'
p5394
sS'end_times'
p5395
S'datetime.time(22, 21, 11)'
p5396
sS'datetime'
p5397
S"<module 'datetime' from '/usr/lib/python2.7/lib-dynload/datetime.so'>"
p5398
sS'p'
g45
sS'x'
S'1'
sg2427
S'datetime.datetime(2013, 4, 14, 19, 25, 26, 16452)'
p5399
sssS'traceback'
p5400
S'Traceback (most recent call last):\n  File "/home/gaurav/classwork/WEB_PROGRAMMING/web2py/gluon/restricted.py", line 212, in restricted\n    exec ccode in environment\n  File "/home/gaurav/classwork/WEB_PROGRAMMING/web2py/applications/OnlineExamination/controllers/default.py", line 319, in <module>\n  File "/home/gaurav/classwork/WEB_PROGRAMMING/web2py/gluon/globals.py", line 193, in <lambda>\n    self._caller = lambda f: f()\n  File "/home/gaurav/classwork/WEB_PROGRAMMING/web2py/gluon/tools.py", line 2929, in f\n    return action(*a, **b)\n  File "/home/gaurav/classwork/WEB_PROGRAMMING/web2py/applications/OnlineExamination/controllers/default.py", line 142, in exam\n    if(x>=end_times):\nTypeError: can\'t compare datetime.time to int\n'
p5401
s.